

HI-TECH Software PIC LITE Macro Assembler V9.83 build 10920 
                                                                                               Mon Jun 25 10:10:24 2012

HI-TECH Software Omniscient Code Generator (Lite mode) build 10920
     1  0000                     opt subtitle "HI-TECH Software Omniscient Code Generator (Lite mode) build 10920"
     2                           
     3                           opt pagewidth 120
     4                           
     5                           	opt lm
     6                           
     7                           	processor	16F77
     8                           clrc	macro
     9                           	bcf	3,0
    10  0000                     	endm
    11                           clrz	macro
    12                           	bcf	3,2
    13  0000                     	endm
    14                           setc	macro
    15                           	bsf	3,0
    16  0000                     	endm
    17                           setz	macro
    18                           	bsf	3,2
    19  0000                     	endm
    20                           skipc	macro
    21                           	btfss	3,0
    22  0000                     	endm
    23                           skipz	macro
    24                           	btfss	3,2
    25  0000                     	endm
    26                           skipnc	macro
    27                           	btfsc	3,0
    28  0000                     	endm
    29                           skipnz	macro
    30                           	btfsc	3,2
    31  0000                     	endm
    32  0000                     indf	equ	0
    33  0000                     indf0	equ	0
    34  0002                     pc	equ	2
    35  0002                     pcl	equ	2
    36  0003                     status	equ	3
    37  0004                     fsr	equ	4
    38  0004                     fsr0	equ	4
    39  0001                     c	equ	1
    40  0000                     z	equ	0
    41  000A                     pclath	equ	10
    42                           # 34 "main.c"
    43                           	psect config,class=CONFIG,delta=2 ;#
    44                           # 34 "main.c"
    45  2007  FFE2               	dw 0xFFFE & 0xFFFB & 0xFFF7 & 0xFFEF & 0xFFFF ;#
    46                           	FNCALL	_main,_debug_init
    47                           	FNCALL	_main,_reles_init
    48                           	FNCALL	_main,_uart_init
    49                           	FNCALL	_main,_lcd_init
    50                           	FNCALL	_main,_main_msg_inicial
    51                           	FNCALL	_main,_p1503_init
    52                           	FNCALL	_main,_homem_animacao
    53                           	FNCALL	_main,_p1503_loop
    54                           	FNCALL	_main,_protocolo_cmd
    55                           	FNCALL	_main,_uart_hard_fim
    56                           	FNCALL	_protocolo_cmd,_printf
    57                           	FNCALL	_protocolo_cmd,_protocolo_ver_cmd
    58                           	FNCALL	_protocolo_ver_cmd,_protocolo_lcd
    59                           	FNCALL	_protocolo_ver_cmd,_lcd_string
    60                           	FNCALL	_protocolo_ver_cmd,_p1503_barramento
    61                           	FNCALL	_protocolo_ver_cmd,_p1503_analogico
    62                           	FNCALL	_protocolo_ver_cmd,_reles_cmd_arg
    63                           	FNCALL	_protocolo_ver_cmd,_debug_lcd
    64                           	FNCALL	_protocolo_ver_cmd,_printf
    65                           	FNCALL	_uart_hard_fim,_debug_lcd
    66                           	FNCALL	_uart_hard_fim,_lcd_string
    67                           	FNCALL	_uart_hard_fim,_putch
    68                           	FNCALL	_homem_animacao,_lcd_clear
    69                           	FNCALL	_homem_animacao,_homem_inicio
    70                           	FNCALL	_homem_animacao,_homem_corre_esquerda
    71                           	FNCALL	_homem_animacao,_homem_vira_direita
    72                           	FNCALL	_homem_animacao,_homem_corre_direita
    73                           	FNCALL	_homem_animacao,_homem_vira_esquerda
    74                           	FNCALL	_homem_animacao,_lcd_string
    75                           	FNCALL	_homem_vira_esquerda,_lcd_clear
    76                           	FNCALL	_homem_vira_esquerda,_lcd_string
    77                           	FNCALL	_homem_vira_esquerda,_lcd_novo_char
    78                           	FNCALL	_homem_vira_esquerda,_lcd_cursor_ddram
    79                           	FNCALL	_homem_vira_esquerda,_lcd_putch
    80                           	FNCALL	_homem_corre_direita,_lcd_clear
    81                           	FNCALL	_homem_corre_direita,_lcd_string
    82                           	FNCALL	_homem_corre_direita,_lcd_novo_char
    83                           	FNCALL	_homem_corre_direita,_lcd_cursor_ddram
    84                           	FNCALL	_homem_corre_direita,_lcd_putch
    85                           	FNCALL	_homem_vira_direita,_lcd_clear
    86                           	FNCALL	_homem_vira_direita,_lcd_string
    87                           	FNCALL	_homem_vira_direita,_lcd_novo_char
    88                           	FNCALL	_homem_vira_direita,_lcd_cursor_ddram
    89                           	FNCALL	_homem_vira_direita,_lcd_putch
    90                           	FNCALL	_homem_corre_esquerda,_lcd_clear
    91                           	FNCALL	_homem_corre_esquerda,_lcd_string
    92                           	FNCALL	_homem_corre_esquerda,_lcd_novo_char
    93                           	FNCALL	_homem_corre_esquerda,_lcd_cursor_ddram
    94                           	FNCALL	_homem_corre_esquerda,_lcd_putch
    95                           	FNCALL	_homem_inicio,_lcd_string
    96                           	FNCALL	_homem_inicio,_lcd_novo_char
    97                           	FNCALL	_homem_inicio,_lcd_cursor_ddram
    98                           	FNCALL	_homem_inicio,_lcd_putch
    99                           	FNCALL	_protocolo_lcd,_printf
   100                           	FNCALL	_protocolo_lcd,_lcd_string
   101                           	FNCALL	_debug_lcd,_lcd_string
   102                           	FNCALL	_p1503_loop,_uart_tx_soft
   103                           	FNCALL	_p1503_loop,_lcd_string
   104                           	FNCALL	_main_msg_inicial,_cria_rosto
   105                           	FNCALL	_main_msg_inicial,_lcd_string
   106                           	FNCALL	_lcd_string,_lcd_goto
   107                           	FNCALL	_lcd_string,_lcd_putch
   108                           	FNCALL	_cria_rosto,_lcd_novo_char
   109                           	FNCALL	_cria_rosto,_lcd_cursor_ddram
   110                           	FNCALL	_cria_rosto,_lcd_putch
   111                           	FNCALL	_lcd_init,_lcd_write
   112                           	FNCALL	_lcd_init,_lcd_clear
   113                           	FNCALL	_lcd_goto,_lcd_write
   114                           	FNCALL	_lcd_clear,_lcd_write
   115                           	FNCALL	_lcd_putch,_lcd_write
   116                           	FNCALL	_lcd_cursor_ddram,_lcd_write
   117                           	FNCALL	_lcd_novo_char,_lcd_write
   118                           	FNCALL	_p1503_init,_uart_tx_soft
   119                           	FNCALL	_p1503_init,_p1503_cmd_arg
   120                           	FNCALL	_p1503_init,_p1503_envia_pacote
   121                           	FNCALL	_p1503_analogico,_p1503_cmd_arg
   122                           	FNCALL	_printf,_putch
   123                           	FNCALL	_printf,_isdigit
   124                           	FNCALL	_printf,___wmul
   125                           	FNCALL	_printf,___lwdiv
   126                           	FNCALL	_uart_init,_uart_init_hardware
   127                           	FNCALL	_uart_init,_uart_init_software
   128                           	FNROOT	_main
   129                           	FNCALL	__isr,_uart_rx_soft
   130                           	FNCALL	intlevel1,__isr
   131                           	global	intlevel1
   132                           	FNROOT	intlevel1
   133                           	global	lcd_cursor_ddram@F1078
   134                           psect	idataBANK0,class=CODE,space=0,delta=2
   135                           global __pidataBANK0
   136  1D59                     __pidataBANK0:
   137                           	file	"lcd.c"
   138                           	line	157
   139                           
   140                           ;initializer for lcd_cursor_ddram@F1078
   141  1D59  3400               	retlw	0
   142  1D5A  3400               	retlw	0
   143                           
   144  1D5B  3440               	retlw	040h
   145  1D5C  3400               	retlw	0
   146                           
   147  1D5D  3410               	retlw	010h
   148  1D5E  3400               	retlw	0
   149                           
   150  1D5F  3450               	retlw	050h
   151  1D60  3400               	retlw	0
   152                           
   153                           	global	_hexpowers
   154                           psect	stringtext,class=STRCODE,delta=2,reloc=256
   155                           global __pstringtext
   156  0100                     __pstringtext:
   157                           ;	global	stringtab,__stringbase
   158  0100                     stringtab:
   159                           ;	String table - string pointers are 2 bytes each
   160  0100  1BFF               	btfsc	(btemp+1),7
   161  0101  290A               	ljmp	stringcode
   162  0102  1383               	bcf	status,7
   163  0103  187F               	btfsc	(btemp+1),0
   164  0104  1783               	bsf	status,7
   165  0105  0800               	movf	indf,w
   166  0106  0A84               	incf fsr
   167  0107  1903               skipnz
   168  0108  0AFF               incf btemp+1
   169  0109  0008               	return
   170  010A                     stringcode:
   171  010A  087F               	movf btemp+1,w
   172  010B  397F               andlw 7Fh
   173  010C  008A               movwf	pclath
   174  010D  0804               	movf	fsr,w
   175  010E  0A84               incf fsr
   176  010F  1903               skipnz
   177  0110  0AFF               incf btemp+1
   178  0111  0082               	movwf pc
   179  0112                     __stringbase:
   180                           	file	"C:\Program Files (x86)\HI-TECH Software\PICC\9.83\lib\doprnt.c"
   181                           	line	358
   182  0112                     _hexpowers:
   183  0112  3401               	retlw	01h
   184  0113  3400               	retlw	0
   185                           
   186  0114  3410               	retlw	010h
   187  0115  3400               	retlw	0
   188                           
   189  0116  3400               	retlw	0
   190  0117  3401               	retlw	01h
   191                           
   192  0118  3400               	retlw	0
   193  0119  3410               	retlw	010h
   194                           
   195                           	global	lcd_cursor_ddram@_numlines
   196                           psect	stringtext
   197                           	file	"lcd.c"
   198                           	line	158
   199  011A                     lcd_cursor_ddram@_numlines:
   200  011A  3404               	retlw	04h
   201  011B  3400               	retlw	0
   202                           
   203                           	global	_rosto
   204                           psect	stringtext
   205                           	file	"main.h"
   206                           	line	5
   207  011C                     _rosto:
   208  011C  3400               	retlw	0
   209  011D  341B               	retlw	01Bh
   210  011E  3408               	retlw	08h
   211  011F  3408               	retlw	08h
   212  0120  340E               	retlw	0Eh
   213  0121  3400               	retlw	0
   214  0122  340F               	retlw	0Fh
   215  0123  3400               	retlw	0
   216                           	global	_slipA1
   217                           psect	stringtext
   218                           	file	"homem.h"
   219                           	line	42
   220  0124                     _slipA1:
   221  0124  3407               	retlw	07h
   222  0125  3407               	retlw	07h
   223  0126  3403               	retlw	03h
   224  0127  3403               	retlw	03h
   225  0128  3401               	retlw	01h
   226  0129  340F               	retlw	0Fh
   227  012A  340F               	retlw	0Fh
   228  012B  3407               	retlw	07h
   229                           	global	_slipA2
   230                           psect	stringtext
   231                           	file	"homem.h"
   232                           	line	43
   233  012C                     _slipA2:
   234  012C  3400               	retlw	0
   235  012D  3403               	retlw	03h
   236  012E  3407               	retlw	07h
   237  012F  340F               	retlw	0Fh
   238  0130  340F               	retlw	0Fh
   239  0131  3407               	retlw	07h
   240  0132  3403               	retlw	03h
   241  0133  3407               	retlw	07h
   242                           	global	_slipA3
   243                           psect	stringtext
   244                           	file	"homem.h"
   245                           	line	44
   246  0134                     _slipA3:
   247  0134  341F               	retlw	01Fh
   248  0135  341F               	retlw	01Fh
   249  0136  341F               	retlw	01Fh
   250  0137  341F               	retlw	01Fh
   251  0138  341F               	retlw	01Fh
   252  0139  341F               	retlw	01Fh
   253  013A  3418               	retlw	018h
   254  013B  3410               	retlw	010h
   255                           	global	_slipA4
   256                           psect	stringtext
   257                           	file	"homem.h"
   258                           	line	45
   259  013C                     _slipA4:
   260  013C  341F               	retlw	01Fh
   261  013D  341F               	retlw	01Fh
   262  013E  341D               	retlw	01Dh
   263  013F  341D               	retlw	01Dh
   264  0140  341F               	retlw	01Fh
   265  0141  341F               	retlw	01Fh
   266  0142  341F               	retlw	01Fh
   267  0143  341F               	retlw	01Fh
   268                           	global	_slipA5
   269                           psect	stringtext
   270                           	file	"homem.h"
   271                           	line	46
   272  0144                     _slipA5:
   273  0144  3418               	retlw	018h
   274  0145  3418               	retlw	018h
   275  0146  3410               	retlw	010h
   276  0147  3400               	retlw	0
   277  0148  3400               	retlw	0
   278  0149  3400               	retlw	0
   279  014A  3400               	retlw	0
   280  014B  3400               	retlw	0
   281                           	global	_slipA6
   282                           psect	stringtext
   283                           	file	"homem.h"
   284                           	line	47
   285  014C                     _slipA6:
   286  014C  3400               	retlw	0
   287  014D  3418               	retlw	018h
   288  014E  3400               	retlw	0
   289  014F  341C               	retlw	01Ch
   290  0150  341C               	retlw	01Ch
   291  0151  3418               	retlw	018h
   292  0152  3410               	retlw	010h
   293  0153  3418               	retlw	018h
   294                           	global	_slipB1
   295                           psect	stringtext
   296                           	file	"homem.h"
   297                           	line	50
   298  0154                     _slipB1:
   299  0154  3403               	retlw	03h
   300  0155  3403               	retlw	03h
   301  0156  3401               	retlw	01h
   302  0157  3401               	retlw	01h
   303  0158  3400               	retlw	0
   304  0159  3407               	retlw	07h
   305  015A  3407               	retlw	07h
   306  015B  3403               	retlw	03h
   307                           	global	_slipB2
   308                           psect	stringtext
   309                           	file	"homem.h"
   310                           	line	51
   311  015C                     _slipB2:
   312  015C  3400               	retlw	0
   313  015D  3401               	retlw	01h
   314  015E  3403               	retlw	03h
   315  015F  3407               	retlw	07h
   316  0160  3407               	retlw	07h
   317  0161  3403               	retlw	03h
   318  0162  3401               	retlw	01h
   319  0163  3403               	retlw	03h
   320                           	global	_slipB3
   321                           psect	stringtext
   322                           	file	"homem.h"
   323                           	line	52
   324  0164                     _slipB3:
   325  0164  341F               	retlw	01Fh
   326  0165  341F               	retlw	01Fh
   327  0166  341F               	retlw	01Fh
   328  0167  341F               	retlw	01Fh
   329  0168  341F               	retlw	01Fh
   330  0169  341F               	retlw	01Fh
   331  016A  341C               	retlw	01Ch
   332  016B  3418               	retlw	018h
   333                           	global	_slipB4
   334                           psect	stringtext
   335                           	file	"homem.h"
   336                           	line	53
   337  016C                     _slipB4:
   338  016C  341F               	retlw	01Fh
   339  016D  341F               	retlw	01Fh
   340  016E  341E               	retlw	01Eh
   341  016F  341E               	retlw	01Eh
   342  0170  341F               	retlw	01Fh
   343  0171  341F               	retlw	01Fh
   344  0172  341F               	retlw	01Fh
   345  0173  341F               	retlw	01Fh
   346                           	global	_slipB5
   347                           psect	stringtext
   348                           	file	"homem.h"
   349                           	line	54
   350  0174                     _slipB5:
   351  0174  341C               	retlw	01Ch
   352  0175  341C               	retlw	01Ch
   353  0176  3418               	retlw	018h
   354  0177  3410               	retlw	010h
   355  0178  3410               	retlw	010h
   356  0179  3400               	retlw	0
   357  017A  3400               	retlw	0
   358  017B  3400               	retlw	0
   359                           	global	_slipB6
   360                           psect	stringtext
   361                           	file	"homem.h"
   362                           	line	55
   363  017C                     _slipB6:
   364  017C  3400               	retlw	0
   365  017D  3418               	retlw	018h
   366  017E  3410               	retlw	010h
   367  017F  341C               	retlw	01Ch
   368  0180  341E               	retlw	01Eh
   369  0181  341C               	retlw	01Ch
   370  0182  3418               	retlw	018h
   371  0183  341C               	retlw	01Ch
   372                           	global	_slipC1
   373                           psect	stringtext
   374                           	file	"homem.h"
   375                           	line	58
   376  0184                     _slipC1:
   377  0184  3401               	retlw	01h
   378  0185  3401               	retlw	01h
   379  0186  3400               	retlw	0
   380  0187  3400               	retlw	0
   381  0188  3400               	retlw	0
   382  0189  3403               	retlw	03h
   383  018A  3403               	retlw	03h
   384  018B  3401               	retlw	01h
   385                           	global	_slipC2
   386                           psect	stringtext
   387                           	file	"homem.h"
   388                           	line	59
   389  018C                     _slipC2:
   390  018C  3400               	retlw	0
   391  018D  3400               	retlw	0
   392  018E  3401               	retlw	01h
   393  018F  3403               	retlw	03h
   394  0190  3403               	retlw	03h
   395  0191  3401               	retlw	01h
   396  0192  3400               	retlw	0
   397  0193  3401               	retlw	01h
   398                           	global	_slipC3
   399                           psect	stringtext
   400                           	file	"homem.h"
   401                           	line	60
   402  0194                     _slipC3:
   403  0194  341F               	retlw	01Fh
   404  0195  341F               	retlw	01Fh
   405  0196  341F               	retlw	01Fh
   406  0197  341F               	retlw	01Fh
   407  0198  341F               	retlw	01Fh
   408  0199  341F               	retlw	01Fh
   409  019A  341E               	retlw	01Eh
   410  019B  341C               	retlw	01Ch
   411                           	global	_slipC4
   412                           psect	stringtext
   413                           	file	"homem.h"
   414                           	line	61
   415  019C                     _slipC4:
   416  019C  340F               	retlw	0Fh
   417  019D  341F               	retlw	01Fh
   418  019E  341F               	retlw	01Fh
   419  019F  341F               	retlw	01Fh
   420  01A0  341F               	retlw	01Fh
   421  01A1  341F               	retlw	01Fh
   422  01A2  341F               	retlw	01Fh
   423  01A3  341F               	retlw	01Fh
   424                           	global	_slipC5
   425                           psect	stringtext
   426                           	file	"homem.h"
   427                           	line	62
   428  01A4                     _slipC5:
   429  01A4  341E               	retlw	01Eh
   430  01A5  341E               	retlw	01Eh
   431  01A6  341C               	retlw	01Ch
   432  01A7  3418               	retlw	018h
   433  01A8  3418               	retlw	018h
   434  01A9  3410               	retlw	010h
   435  01AA  3400               	retlw	0
   436  01AB  3400               	retlw	0
   437                           	global	_slipC6
   438                           psect	stringtext
   439                           	file	"homem.h"
   440                           	line	63
   441  01AC                     _slipC6:
   442  01AC  3410               	retlw	010h
   443  01AD  341C               	retlw	01Ch
   444  01AE  3418               	retlw	018h
   445  01AF  341E               	retlw	01Eh
   446  01B0  341F               	retlw	01Fh
   447  01B1  341E               	retlw	01Eh
   448  01B2  341C               	retlw	01Ch
   449  01B3  341E               	retlw	01Eh
   450                           	global	_slipD1
   451                           psect	stringtext
   452                           	file	"homem.h"
   453                           	line	92
   454  01B4                     _slipD1:
   455  01B4  3403               	retlw	03h
   456  01B5  3403               	retlw	03h
   457  01B6  3401               	retlw	01h
   458  01B7  3400               	retlw	0
   459  01B8  3400               	retlw	0
   460  01B9  3400               	retlw	0
   461  01BA  3400               	retlw	0
   462  01BB  3400               	retlw	0
   463                           	global	_slipD2
   464                           psect	stringtext
   465                           	file	"homem.h"
   466                           	line	93
   467  01BC                     _slipD2:
   468  01BC  3400               	retlw	0
   469  01BD  3401               	retlw	01h
   470  01BE  3400               	retlw	0
   471  01BF  3403               	retlw	03h
   472  01C0  3407               	retlw	07h
   473  01C1  3403               	retlw	03h
   474  01C2  3401               	retlw	01h
   475  01C3  3403               	retlw	03h
   476                           	global	_slipD3
   477                           psect	stringtext
   478                           	file	"homem.h"
   479                           	line	94
   480  01C4                     _slipD3:
   481  01C4  341F               	retlw	01Fh
   482  01C5  341F               	retlw	01Fh
   483  01C6  341F               	retlw	01Fh
   484  01C7  341F               	retlw	01Fh
   485  01C8  341F               	retlw	01Fh
   486  01C9  341F               	retlw	01Fh
   487  01CA  3403               	retlw	03h
   488  01CB  3401               	retlw	01h
   489                           	global	_slipD4
   490                           psect	stringtext
   491                           	file	"homem.h"
   492                           	line	95
   493  01CC                     _slipD4:
   494  01CC  341F               	retlw	01Fh
   495  01CD  341F               	retlw	01Fh
   496  01CE  3417               	retlw	017h
   497  01CF  3417               	retlw	017h
   498  01D0  341F               	retlw	01Fh
   499  01D1  341F               	retlw	01Fh
   500  01D2  341F               	retlw	01Fh
   501  01D3  341F               	retlw	01Fh
   502                           	global	_slipD5
   503                           psect	stringtext
   504                           	file	"homem.h"
   505                           	line	96
   506  01D4                     _slipD5:
   507  01D4  341C               	retlw	01Ch
   508  01D5  341C               	retlw	01Ch
   509  01D6  3418               	retlw	018h
   510  01D7  3418               	retlw	018h
   511  01D8  3410               	retlw	010h
   512  01D9  341E               	retlw	01Eh
   513  01DA  341E               	retlw	01Eh
   514  01DB  341C               	retlw	01Ch
   515                           	global	_slipD6
   516                           psect	stringtext
   517                           	file	"homem.h"
   518                           	line	97
   519  01DC                     _slipD6:
   520  01DC  3400               	retlw	0
   521  01DD  3418               	retlw	018h
   522  01DE  341C               	retlw	01Ch
   523  01DF  341E               	retlw	01Eh
   524  01E0  341E               	retlw	01Eh
   525  01E1  341C               	retlw	01Ch
   526  01E2  3418               	retlw	018h
   527  01E3  341C               	retlw	01Ch
   528                           	global	_slipE1
   529                           psect	stringtext
   530                           	file	"homem.h"
   531                           	line	100
   532  01E4                     _slipE1:
   533  01E4  3407               	retlw	07h
   534  01E5  3407               	retlw	07h
   535  01E6  3407               	retlw	07h
   536  01E7  3403               	retlw	03h
   537  01E8  3401               	retlw	01h
   538  01E9  3400               	retlw	0
   539  01EA  3400               	retlw	0
   540  01EB  3400               	retlw	0
   541                           	global	_slipE2
   542                           psect	stringtext
   543                           	file	"homem.h"
   544                           	line	101
   545  01EC                     _slipE2:
   546  01EC  3400               	retlw	0
   547  01ED  3403               	retlw	03h
   548  01EE  3401               	retlw	01h
   549  01EF  3407               	retlw	07h
   550  01F0  340F               	retlw	0Fh
   551  01F1  3407               	retlw	07h
   552  01F2  3403               	retlw	03h
   553  01F3  3407               	retlw	07h
   554                           	global	_slipE3
   555                           psect	stringtext
   556                           	file	"homem.h"
   557                           	line	102
   558  01F4                     _slipE3:
   559  01F4  341F               	retlw	01Fh
   560  01F5  341F               	retlw	01Fh
   561  01F6  341F               	retlw	01Fh
   562  01F7  341F               	retlw	01Fh
   563  01F8  341F               	retlw	01Fh
   564  01F9  341F               	retlw	01Fh
   565  01FA  3407               	retlw	07h
   566  01FB  3403               	retlw	03h
   567                           	global	_slipE4
   568                           psect	stringtext
   569                           	file	"homem.h"
   570                           	line	103
   571  01FC                     _slipE4:
   572  01FC  341F               	retlw	01Fh
   573  01FD  341F               	retlw	01Fh
   574  01FE  340F               	retlw	0Fh
   575  01FF  340F               	retlw	0Fh
   576  0200  341F               	retlw	01Fh
   577  0201  341F               	retlw	01Fh
   578  0202  341F               	retlw	01Fh
   579  0203  341F               	retlw	01Fh
   580                           	global	_slipE5
   581                           psect	stringtext
   582                           	file	"homem.h"
   583                           	line	104
   584  0204                     _slipE5:
   585  0204  3418               	retlw	018h
   586  0205  3418               	retlw	018h
   587  0206  3410               	retlw	010h
   588  0207  3400               	retlw	0
   589  0208  3410               	retlw	010h
   590  0209  341C               	retlw	01Ch
   591  020A  341C               	retlw	01Ch
   592  020B  3418               	retlw	018h
   593                           	global	_slipE6
   594                           psect	stringtext
   595                           	file	"homem.h"
   596                           	line	105
   597  020C                     _slipE6:
   598  020C  3400               	retlw	0
   599  020D  3400               	retlw	0
   600  020E  3418               	retlw	018h
   601  020F  341C               	retlw	01Ch
   602  0210  341C               	retlw	01Ch
   603  0211  3418               	retlw	018h
   604  0212  3410               	retlw	010h
   605  0213  3418               	retlw	018h
   606                           	global	_slipF1
   607                           psect	stringtext
   608                           	file	"homem.h"
   609                           	line	108
   610  0214                     _slipF1:
   611  0214  340F               	retlw	0Fh
   612  0215  340F               	retlw	0Fh
   613  0216  3407               	retlw	07h
   614  0217  3407               	retlw	07h
   615  0218  3403               	retlw	03h
   616  0219  3401               	retlw	01h
   617  021A  3400               	retlw	0
   618  021B  3400               	retlw	0
   619                           	global	_slipF2
   620                           psect	stringtext
   621                           	file	"homem.h"
   622                           	line	109
   623  021C                     _slipF2:
   624  021C  3401               	retlw	01h
   625  021D  3407               	retlw	07h
   626  021E  3403               	retlw	03h
   627  021F  340F               	retlw	0Fh
   628  0220  341F               	retlw	01Fh
   629  0221  340F               	retlw	0Fh
   630  0222  3407               	retlw	07h
   631  0223  340F               	retlw	0Fh
   632                           	global	_slipF3
   633                           psect	stringtext
   634                           	file	"homem.h"
   635                           	line	110
   636  0224                     _slipF3:
   637  0224  341F               	retlw	01Fh
   638  0225  341F               	retlw	01Fh
   639  0226  341F               	retlw	01Fh
   640  0227  341F               	retlw	01Fh
   641  0228  341F               	retlw	01Fh
   642  0229  341F               	retlw	01Fh
   643  022A  340F               	retlw	0Fh
   644  022B  3407               	retlw	07h
   645                           	global	_slipF4
   646                           psect	stringtext
   647                           	file	"homem.h"
   648                           	line	111
   649  022C                     _slipF4:
   650  022C  341E               	retlw	01Eh
   651  022D  341F               	retlw	01Fh
   652  022E  341F               	retlw	01Fh
   653  022F  341F               	retlw	01Fh
   654  0230  341F               	retlw	01Fh
   655  0231  341F               	retlw	01Fh
   656  0232  341F               	retlw	01Fh
   657  0233  341F               	retlw	01Fh
   658                           	global	_slipF5
   659                           psect	stringtext
   660                           	file	"homem.h"
   661                           	line	112
   662  0234                     _slipF5:
   663  0234  3400               	retlw	0
   664  0235  3400               	retlw	0
   665  0236  3400               	retlw	0
   666  0237  3400               	retlw	0
   667  0238  3400               	retlw	0
   668  0239  3418               	retlw	018h
   669  023A  3418               	retlw	018h
   670  023B  3410               	retlw	010h
   671                           	global	_slipF6
   672                           psect	stringtext
   673                           	file	"homem.h"
   674                           	line	113
   675  023C                     _slipF6:
   676  023C  3400               	retlw	0
   677  023D  3400               	retlw	0
   678  023E  3410               	retlw	010h
   679  023F  3418               	retlw	018h
   680  0240  3418               	retlw	018h
   681  0241  3410               	retlw	010h
   682  0242  3400               	retlw	0
   683  0243  3410               	retlw	010h
   684                           	global	_stepA1
   685                           psect	stringtext
   686                           	file	"homem.h"
   687                           	line	8
   688  0244                     _stepA1:
   689  0244  3403               	retlw	03h
   690  0245  3407               	retlw	07h
   691  0246  3407               	retlw	07h
   692  0247  3407               	retlw	07h
   693  0248  3407               	retlw	07h
   694  0249  3401               	retlw	01h
   695  024A  3403               	retlw	03h
   696  024B  3407               	retlw	07h
   697                           	global	_stepA2
   698                           psect	stringtext
   699                           	file	"homem.h"
   700                           	line	9
   701  024C                     _stepA2:
   702  024C  3401               	retlw	01h
   703  024D  3401               	retlw	01h
   704  024E  3403               	retlw	03h
   705  024F  3403               	retlw	03h
   706  0250  3403               	retlw	03h
   707  0251  3401               	retlw	01h
   708  0252  3400               	retlw	0
   709  0253  3401               	retlw	01h
   710                           	global	_stepA3
   711                           psect	stringtext
   712                           	file	"homem.h"
   713                           	line	10
   714  0254                     _stepA3:
   715  0254  341F               	retlw	01Fh
   716  0255  341F               	retlw	01Fh
   717  0256  341F               	retlw	01Fh
   718  0257  341F               	retlw	01Fh
   719  0258  341F               	retlw	01Fh
   720  0259  341B               	retlw	01Bh
   721  025A  3411               	retlw	011h
   722  025B  3411               	retlw	011h
   723                           	global	_stepA4
   724                           psect	stringtext
   725                           	file	"homem.h"
   726                           	line	11
   727  025C                     _stepA4:
   728  025C  341F               	retlw	01Fh
   729  025D  341F               	retlw	01Fh
   730  025E  341D               	retlw	01Dh
   731  025F  341D               	retlw	01Dh
   732  0260  341F               	retlw	01Fh
   733  0261  341F               	retlw	01Fh
   734  0262  341F               	retlw	01Fh
   735  0263  341F               	retlw	01Fh
   736                           	global	_stepA5
   737                           psect	stringtext
   738                           	file	"homem.h"
   739                           	line	12
   740  0264                     _stepA5:
   741  0264  3418               	retlw	018h
   742  0265  341C               	retlw	01Ch
   743  0266  341C               	retlw	01Ch
   744  0267  341C               	retlw	01Ch
   745  0268  341C               	retlw	01Ch
   746  0269  3410               	retlw	010h
   747  026A  3418               	retlw	018h
   748  026B  341C               	retlw	01Ch
   749                           	global	_stepA6
   750                           psect	stringtext
   751                           	file	"homem.h"
   752                           	line	13
   753  026C                     _stepA6:
   754  026C  3400               	retlw	0
   755  026D  3410               	retlw	010h
   756  026E  3418               	retlw	018h
   757  026F  3400               	retlw	0
   758  0270  3418               	retlw	018h
   759  0271  341C               	retlw	01Ch
   760  0272  3418               	retlw	018h
   761  0273  3410               	retlw	010h
   762                           	global	_stepB1
   763                           psect	stringtext
   764                           	file	"homem.h"
   765                           	line	17
   766  0274                     _stepB1:
   767  0274  3403               	retlw	03h
   768  0275  3403               	retlw	03h
   769  0276  3403               	retlw	03h
   770  0277  3403               	retlw	03h
   771  0278  3401               	retlw	01h
   772  0279  3400               	retlw	0
   773  027A  3400               	retlw	0
   774  027B  3400               	retlw	0
   775                           	global	_stepB2
   776                           psect	stringtext
   777                           	file	"homem.h"
   778                           	line	18
   779  027C                     _stepB2:
   780  027C  3400               	retlw	0
   781  027D  3401               	retlw	01h
   782  027E  3401               	retlw	01h
   783  027F  3403               	retlw	03h
   784  0280  3403               	retlw	03h
   785  0281  3403               	retlw	03h
   786  0282  3400               	retlw	0
   787  0283  3401               	retlw	01h
   788                           	global	_stepB3
   789                           psect	stringtext
   790                           	file	"homem.h"
   791                           	line	19
   792  0284                     _stepB3:
   793  0284  341F               	retlw	01Fh
   794  0285  341F               	retlw	01Fh
   795  0286  341F               	retlw	01Fh
   796  0287  341F               	retlw	01Fh
   797  0288  341F               	retlw	01Fh
   798  0289  341F               	retlw	01Fh
   799  028A  341F               	retlw	01Fh
   800  028B  341E               	retlw	01Eh
   801                           	global	_stepB4
   802                           psect	stringtext
   803                           	file	"homem.h"
   804                           	line	20
   805  028C                     _stepB4:
   806  028C  341F               	retlw	01Fh
   807  028D  341F               	retlw	01Fh
   808  028E  341D               	retlw	01Dh
   809  028F  341D               	retlw	01Dh
   810  0290  341F               	retlw	01Fh
   811  0291  341F               	retlw	01Fh
   812  0292  341F               	retlw	01Fh
   813  0293  341F               	retlw	01Fh
   814                           	global	_stepB5
   815                           psect	stringtext
   816                           	file	"homem.h"
   817                           	line	21
   818  0294                     _stepB5:
   819  0294  3400               	retlw	0
   820  0295  3400               	retlw	0
   821  0296  3410               	retlw	010h
   822  0297  3410               	retlw	010h
   823  0298  3410               	retlw	010h
   824  0299  3400               	retlw	0
   825  029A  3410               	retlw	010h
   826  029B  3400               	retlw	0
   827                           	global	_stepB6
   828                           psect	stringtext
   829                           	file	"homem.h"
   830                           	line	22
   831  029C                     _stepB6:
   832  029C  3400               	retlw	0
   833  029D  3418               	retlw	018h
   834  029E  3400               	retlw	0
   835  029F  3418               	retlw	018h
   836  02A0  341C               	retlw	01Ch
   837  02A1  3418               	retlw	018h
   838  02A2  3410               	retlw	010h
   839  02A3  3400               	retlw	0
   840                           	global	_stepC1
   841                           psect	stringtext
   842                           	file	"homem.h"
   843                           	line	25
   844  02A4                     _stepC1:
   845  02A4  341F               	retlw	01Fh
   846  02A5  341F               	retlw	01Fh
   847  02A6  341D               	retlw	01Dh
   848  02A7  3403               	retlw	03h
   849  02A8  3407               	retlw	07h
   850  02A9  340F               	retlw	0Fh
   851  02AA  340F               	retlw	0Fh
   852  02AB  3407               	retlw	07h
   853                           	global	_stepC2
   854                           psect	stringtext
   855                           	file	"homem.h"
   856                           	line	26
   857  02AC                     _stepC2:
   858  02AC  3400               	retlw	0
   859  02AD  3401               	retlw	01h
   860  02AE  3401               	retlw	01h
   861  02AF  3403               	retlw	03h
   862  02B0  3403               	retlw	03h
   863  02B1  3403               	retlw	03h
   864  02B2  3400               	retlw	0
   865  02B3  3407               	retlw	07h
   866                           	global	_stepC3
   867                           psect	stringtext
   868                           	file	"homem.h"
   869                           	line	27
   870  02B4                     _stepC3:
   871  02B4  341F               	retlw	01Fh
   872  02B5  341F               	retlw	01Fh
   873  02B6  341F               	retlw	01Fh
   874  02B7  341F               	retlw	01Fh
   875  02B8  341F               	retlw	01Fh
   876  02B9  3413               	retlw	013h
   877  02BA  3400               	retlw	0
   878  02BB  3400               	retlw	0
   879                           	global	_stepC4
   880                           psect	stringtext
   881                           	file	"homem.h"
   882                           	line	28
   883  02BC                     _stepC4:
   884  02BC  341F               	retlw	01Fh
   885  02BD  341F               	retlw	01Fh
   886  02BE  341D               	retlw	01Dh
   887  02BF  341D               	retlw	01Dh
   888  02C0  341F               	retlw	01Fh
   889  02C1  341F               	retlw	01Fh
   890  02C2  341F               	retlw	01Fh
   891  02C3  341F               	retlw	01Fh
   892                           	global	_stepC5
   893                           psect	stringtext
   894                           	file	"homem.h"
   895                           	line	29
   896  02C4                     _stepC5:
   897  02C4  341E               	retlw	01Eh
   898  02C5  341E               	retlw	01Eh
   899  02C6  340C               	retlw	0Ch
   900  02C7  341C               	retlw	01Ch
   901  02C8  341C               	retlw	01Ch
   902  02C9  341C               	retlw	01Ch
   903  02CA  3400               	retlw	0
   904  02CB  3400               	retlw	0
   905                           	global	_stepC6
   906                           psect	stringtext
   907                           	file	"homem.h"
   908                           	line	30
   909  02CC                     _stepC6:
   910  02CC  3400               	retlw	0
   911  02CD  3418               	retlw	018h
   912  02CE  3400               	retlw	0
   913  02CF  3418               	retlw	018h
   914  02D0  341C               	retlw	01Ch
   915  02D1  3418               	retlw	018h
   916  02D2  3410               	retlw	010h
   917  02D3  3400               	retlw	0
   918                           	global	_stepD1
   919                           psect	stringtext
   920                           	file	"homem.h"
   921                           	line	33
   922  02D4                     _stepD1:
   923  02D4  3401               	retlw	01h
   924  02D5  3403               	retlw	03h
   925  02D6  3407               	retlw	07h
   926  02D7  3407               	retlw	07h
   927  02D8  3407               	retlw	07h
   928  02D9  340F               	retlw	0Fh
   929  02DA  340C               	retlw	0Ch
   930  02DB  3400               	retlw	0
   931                           	global	_stepD2
   932                           psect	stringtext
   933                           	file	"homem.h"
   934                           	line	34
   935  02DC                     _stepD2:
   936  02DC  3400               	retlw	0
   937  02DD  3400               	retlw	0
   938  02DE  3401               	retlw	01h
   939  02DF  3401               	retlw	01h
   940  02E0  3403               	retlw	03h
   941  02E1  3403               	retlw	03h
   942  02E2  3403               	retlw	03h
   943  02E3  3400               	retlw	0
   944                           	global	_stepD3
   945                           psect	stringtext
   946                           	file	"homem.h"
   947                           	line	35
   948  02E4                     _stepD3:
   949  02E4  341F               	retlw	01Fh
   950  02E5  341F               	retlw	01Fh
   951  02E6  341F               	retlw	01Fh
   952  02E7  341F               	retlw	01Fh
   953  02E8  341F               	retlw	01Fh
   954  02E9  341F               	retlw	01Fh
   955  02EA  341E               	retlw	01Eh
   956  02EB  341F               	retlw	01Fh
   957                           	global	_stepD4
   958                           psect	stringtext
   959                           	file	"homem.h"
   960                           	line	36
   961  02EC                     _stepD4:
   962  02EC  3400               	retlw	0
   963  02ED  341F               	retlw	01Fh
   964  02EE  341F               	retlw	01Fh
   965  02EF  341D               	retlw	01Dh
   966  02F0  341D               	retlw	01Dh
   967  02F1  341F               	retlw	01Fh
   968  02F2  341F               	retlw	01Fh
   969  02F3  341F               	retlw	01Fh
   970                           	global	_stepD5
   971                           psect	stringtext
   972                           	file	"homem.h"
   973                           	line	37
   974  02F4                     _stepD5:
   975  02F4  3410               	retlw	010h
   976  02F5  3418               	retlw	018h
   977  02F6  3410               	retlw	010h
   978  02F7  3400               	retlw	0
   979  02F8  3400               	retlw	0
   980  02F9  3400               	retlw	0
   981  02FA  3400               	retlw	0
   982  02FB  3400               	retlw	0
   983                           	global	_stepD6
   984                           psect	stringtext
   985                           	file	"homem.h"
   986                           	line	38
   987  02FC                     _stepD6:
   988  02FC  3400               	retlw	0
   989  02FD  3400               	retlw	0
   990  02FE  3418               	retlw	018h
   991  02FF  3400               	retlw	0
   992  0300  3418               	retlw	018h
   993  0301  341C               	retlw	01Ch
   994  0302  3418               	retlw	018h
   995  0303  3410               	retlw	010h
   996                           	global	_stepE1
   997                           psect	stringtext
   998                           	file	"homem.h"
   999                           	line	67
  1000  0304                     _stepE1:
  1001  0304  3400               	retlw	0
  1002  0305  3401               	retlw	01h
  1003  0306  3401               	retlw	01h
  1004  0307  3401               	retlw	01h
  1005  0308  3400               	retlw	0
  1006  0309  3400               	retlw	0
  1007  030A  3401               	retlw	01h
  1008  030B  3400               	retlw	0
  1009                           	global	_stepE2
  1010                           psect	stringtext
  1011                           	file	"homem.h"
  1012                           	line	68
  1013  030C                     _stepE2:
  1014  030C  3400               	retlw	0
  1015  030D  3403               	retlw	03h
  1016  030E  3400               	retlw	0
  1017  030F  3403               	retlw	03h
  1018  0310  3407               	retlw	07h
  1019  0311  3403               	retlw	03h
  1020  0312  3401               	retlw	01h
  1021  0313  3400               	retlw	0
  1022                           	global	_stepE3
  1023                           psect	stringtext
  1024                           	file	"homem.h"
  1025                           	line	69
  1026  0314                     _stepE3:
  1027  0314  341F               	retlw	01Fh
  1028  0315  341F               	retlw	01Fh
  1029  0316  341F               	retlw	01Fh
  1030  0317  341F               	retlw	01Fh
  1031  0318  341F               	retlw	01Fh
  1032  0319  341F               	retlw	01Fh
  1033  031A  341F               	retlw	01Fh
  1034  031B  340F               	retlw	0Fh
  1035                           	global	_stepE4
  1036                           psect	stringtext
  1037                           	file	"homem.h"
  1038                           	line	70
  1039  031C                     _stepE4:
  1040  031C  341F               	retlw	01Fh
  1041  031D  341F               	retlw	01Fh
  1042  031E  3417               	retlw	017h
  1043  031F  3417               	retlw	017h
  1044  0320  341F               	retlw	01Fh
  1045  0321  341F               	retlw	01Fh
  1046  0322  341F               	retlw	01Fh
  1047  0323  341F               	retlw	01Fh
  1048                           	global	_stepE5
  1049                           psect	stringtext
  1050                           	file	"homem.h"
  1051                           	line	71
  1052  0324                     _stepE5:
  1053  0324  3418               	retlw	018h
  1054  0325  3418               	retlw	018h
  1055  0326  3418               	retlw	018h
  1056  0327  3418               	retlw	018h
  1057  0328  3410               	retlw	010h
  1058  0329  3400               	retlw	0
  1059  032A  3400               	retlw	0
  1060  032B  3400               	retlw	0
  1061                           	global	_stepE6
  1062                           psect	stringtext
  1063                           	file	"homem.h"
  1064                           	line	72
  1065  032C                     _stepE6:
  1066  032C  3400               	retlw	0
  1067  032D  3410               	retlw	010h
  1068  032E  3410               	retlw	010h
  1069  032F  3418               	retlw	018h
  1070  0330  3418               	retlw	018h
  1071  0331  3418               	retlw	018h
  1072  0332  3410               	retlw	010h
  1073  0333  3410               	retlw	010h
  1074                           	global	_stepF1
  1075                           psect	stringtext
  1076                           	file	"homem.h"
  1077                           	line	75
  1078  0334                     _stepF1:
  1079  0334  340F               	retlw	0Fh
  1080  0335  340F               	retlw	0Fh
  1081  0336  340C               	retlw	0Ch
  1082  0337  3407               	retlw	07h
  1083  0338  3407               	retlw	07h
  1084  0339  3407               	retlw	07h
  1085  033A  3400               	retlw	0
  1086  033B  3400               	retlw	0
  1087                           	global	_stepF2
  1088                           psect	stringtext
  1089                           	file	"homem.h"
  1090                           	line	76
  1091  033C                     _stepF2:
  1092  033C  3400               	retlw	0
  1093  033D  3403               	retlw	03h
  1094  033E  3400               	retlw	0
  1095  033F  3403               	retlw	03h
  1096  0340  3407               	retlw	07h
  1097  0341  3403               	retlw	03h
  1098  0342  3401               	retlw	01h
  1099  0343  3400               	retlw	0
  1100                           	global	_stepF3
  1101                           psect	stringtext
  1102                           	file	"homem.h"
  1103                           	line	77
  1104  0344                     _stepF3:
  1105  0344  341F               	retlw	01Fh
  1106  0345  341F               	retlw	01Fh
  1107  0346  341F               	retlw	01Fh
  1108  0347  341F               	retlw	01Fh
  1109  0348  341F               	retlw	01Fh
  1110  0349  3419               	retlw	019h
  1111  034A  3400               	retlw	0
  1112  034B  3400               	retlw	0
  1113                           	global	_stepF4
  1114                           psect	stringtext
  1115                           	file	"homem.h"
  1116                           	line	78
  1117  034C                     _stepF4:
  1118  034C  341F               	retlw	01Fh
  1119  034D  341F               	retlw	01Fh
  1120  034E  3417               	retlw	017h
  1121  034F  3417               	retlw	017h
  1122  0350  341F               	retlw	01Fh
  1123  0351  341F               	retlw	01Fh
  1124  0352  341F               	retlw	01Fh
  1125  0353  341F               	retlw	01Fh
  1126                           	global	_stepF5
  1127                           psect	stringtext
  1128                           	file	"homem.h"
  1129                           	line	79
  1130  0354                     _stepF5:
  1131  0354  341F               	retlw	01Fh
  1132  0355  341F               	retlw	01Fh
  1133  0356  3417               	retlw	017h
  1134  0357  3418               	retlw	018h
  1135  0358  341C               	retlw	01Ch
  1136  0359  341E               	retlw	01Eh
  1137  035A  341E               	retlw	01Eh
  1138  035B  341C               	retlw	01Ch
  1139                           	global	_stepF6
  1140                           psect	stringtext
  1141                           	file	"homem.h"
  1142                           	line	80
  1143  035C                     _stepF6:
  1144  035C  3400               	retlw	0
  1145  035D  3410               	retlw	010h
  1146  035E  3410               	retlw	010h
  1147  035F  3418               	retlw	018h
  1148  0360  3418               	retlw	018h
  1149  0361  3418               	retlw	018h
  1150  0362  3400               	retlw	0
  1151  0363  341C               	retlw	01Ch
  1152                           	global	_stepG1
  1153                           psect	stringtext
  1154                           	file	"homem.h"
  1155                           	line	83
  1156  0364                     _stepG1:
  1157  0364  3401               	retlw	01h
  1158  0365  3403               	retlw	03h
  1159  0366  3401               	retlw	01h
  1160  0367  3400               	retlw	0
  1161  0368  3400               	retlw	0
  1162  0369  3400               	retlw	0
  1163  036A  3400               	retlw	0
  1164  036B  3400               	retlw	0
  1165                           	global	_stepG2
  1166                           psect	stringtext
  1167                           	file	"homem.h"
  1168                           	line	84
  1169  036C                     _stepG2:
  1170  036C  3400               	retlw	0
  1171  036D  3400               	retlw	0
  1172  036E  3403               	retlw	03h
  1173  036F  3400               	retlw	0
  1174  0370  3403               	retlw	03h
  1175  0371  3407               	retlw	07h
  1176  0372  3403               	retlw	03h
  1177  0373  3401               	retlw	01h
  1178                           	global	_stepG3
  1179                           psect	stringtext
  1180                           	file	"homem.h"
  1181                           	line	85
  1182  0374                     _stepG3:
  1183  0374  341F               	retlw	01Fh
  1184  0375  341F               	retlw	01Fh
  1185  0376  341F               	retlw	01Fh
  1186  0377  341F               	retlw	01Fh
  1187  0378  341F               	retlw	01Fh
  1188  0379  341F               	retlw	01Fh
  1189  037A  340F               	retlw	0Fh
  1190  037B  341F               	retlw	01Fh
  1191                           	global	_stepG4
  1192                           psect	stringtext
  1193                           	file	"homem.h"
  1194                           	line	86
  1195  037C                     _stepG4:
  1196  037C  3400               	retlw	0
  1197  037D  341F               	retlw	01Fh
  1198  037E  341F               	retlw	01Fh
  1199  037F  3417               	retlw	017h
  1200  0380  3417               	retlw	017h
  1201  0381  341F               	retlw	01Fh
  1202  0382  341F               	retlw	01Fh
  1203  0383  341F               	retlw	01Fh
  1204                           	global	_stepG5
  1205                           psect	stringtext
  1206                           	file	"homem.h"
  1207                           	line	87
  1208  0384                     _stepG5:
  1209  0384  3410               	retlw	010h
  1210  0385  3418               	retlw	018h
  1211  0386  341C               	retlw	01Ch
  1212  0387  341C               	retlw	01Ch
  1213  0388  341C               	retlw	01Ch
  1214  0389  341E               	retlw	01Eh
  1215  038A  3406               	retlw	06h
  1216  038B  3400               	retlw	0
  1217                           	global	_stepG6
  1218                           psect	stringtext
  1219                           	file	"homem.h"
  1220                           	line	88
  1221  038C                     _stepG6:
  1222  038C  3400               	retlw	0
  1223  038D  3400               	retlw	0
  1224  038E  3410               	retlw	010h
  1225  038F  3410               	retlw	010h
  1226  0390  3418               	retlw	018h
  1227  0391  3418               	retlw	018h
  1228  0392  3418               	retlw	018h
  1229  0393  3400               	retlw	0
  1230                           	global	_hexpowers
  1231                           	global	lcd_cursor_ddram@_numlines
  1232                           	global	_rosto
  1233                           	global	_slipA1
  1234                           	global	_slipA2
  1235                           	global	_slipA3
  1236                           	global	_slipA4
  1237                           	global	_slipA5
  1238                           	global	_slipA6
  1239                           	global	_slipB1
  1240                           	global	_slipB2
  1241                           	global	_slipB3
  1242                           	global	_slipB4
  1243                           	global	_slipB5
  1244                           	global	_slipB6
  1245                           	global	_slipC1
  1246                           	global	_slipC2
  1247                           	global	_slipC3
  1248                           	global	_slipC4
  1249                           	global	_slipC5
  1250                           	global	_slipC6
  1251                           	global	_slipD1
  1252                           	global	_slipD2
  1253                           	global	_slipD3
  1254                           	global	_slipD4
  1255                           	global	_slipD5
  1256                           	global	_slipD6
  1257                           	global	_slipE1
  1258                           	global	_slipE2
  1259                           	global	_slipE3
  1260                           	global	_slipE4
  1261                           	global	_slipE5
  1262                           	global	_slipE6
  1263                           	global	_slipF1
  1264                           	global	_slipF2
  1265                           	global	_slipF3
  1266                           	global	_slipF4
  1267                           	global	_slipF5
  1268                           	global	_slipF6
  1269                           	global	_stepA1
  1270                           	global	_stepA2
  1271                           	global	_stepA3
  1272                           	global	_stepA4
  1273                           	global	_stepA5
  1274                           	global	_stepA6
  1275                           	global	_stepB1
  1276                           	global	_stepB2
  1277                           	global	_stepB3
  1278                           	global	_stepB4
  1279                           	global	_stepB5
  1280                           	global	_stepB6
  1281                           	global	_stepC1
  1282                           	global	_stepC2
  1283                           	global	_stepC3
  1284                           	global	_stepC4
  1285                           	global	_stepC5
  1286                           	global	_stepC6
  1287                           	global	_stepD1
  1288                           	global	_stepD2
  1289                           	global	_stepD3
  1290                           	global	_stepD4
  1291                           	global	_stepD5
  1292                           	global	_stepD6
  1293                           	global	_stepE1
  1294                           	global	_stepE2
  1295                           	global	_stepE3
  1296                           	global	_stepE4
  1297                           	global	_stepE5
  1298                           	global	_stepE6
  1299                           	global	_stepF1
  1300                           	global	_stepF2
  1301                           	global	_stepF3
  1302                           	global	_stepF4
  1303                           	global	_stepF5
  1304                           	global	_stepF6
  1305                           	global	_stepG1
  1306                           	global	_stepG2
  1307                           	global	_stepG3
  1308                           	global	_stepG4
  1309                           	global	_stepG5
  1310                           	global	_stepG6
  1311                           	global	_p1503
  1312                           	global	_protocolo
  1313                           	global	p1503_analogico@contexto
  1314                           	global	p1503_loop@timeout
  1315                           	global	protocolo_cmd@a
  1316                           	global	_uart
  1317                           	global	_segundo
  1318                           	global	_tmr2_cont
  1319                           	global	_debug
  1320                           	global	_buffer
  1321                           	global	_INTCONbits
  1322  000B                     _INTCONbits	set	11
  1323                           	global	_PORTB
  1324  0006                     _PORTB	set	6
  1325                           	global	_PORTD
  1326  0008                     _PORTD	set	8
  1327                           	global	_PORTE
  1328  0009                     _PORTE	set	9
  1329                           	global	_RCREG
  1330  001A                     _RCREG	set	26
  1331                           	global	_RCSTA
  1332  0018                     _RCSTA	set	24
  1333                           	global	_TXREG
  1334  0019                     _TXREG	set	25
  1335                           	global	_GIE
  1336  005F                     _GIE	set	95
  1337                           	global	_PEIE
  1338  005E                     _PEIE	set	94
  1339                           	global	_RB4
  1340  0034                     _RB4	set	52
  1341                           	global	_RB5
  1342  0035                     _RB5	set	53
  1343                           	global	_RB6
  1344  0036                     _RB6	set	54
  1345                           	global	_RB7
  1346  0037                     _RB7	set	55
  1347                           	global	_RC0
  1348  0038                     _RC0	set	56
  1349                           	global	_RC1
  1350  0039                     _RC1	set	57
  1351                           	global	_RCIF
  1352  0065                     _RCIF	set	101
  1353                           	global	_TXIF
  1354  0064                     _TXIF	set	100
  1355                           	global	_ADCON1
  1356  009F                     _ADCON1	set	159
  1357                           	global	_PIE1bits
  1358  008C                     _PIE1bits	set	140
  1359                           	global	_SPBRG
  1360  0099                     _SPBRG	set	153
  1361                           	global	_TRISB
  1362  0086                     _TRISB	set	134
  1363                           	global	_TRISD
  1364  0088                     _TRISD	set	136
  1365                           	global	_TRISE
  1366  0089                     _TRISE	set	137
  1367                           	global	_TXSTA
  1368  0098                     _TXSTA	set	152
  1369                           	global	_TRISB5
  1370  0435                     _TRISB5	set	1077
  1371                           	global	_TRISB6
  1372  0436                     _TRISB6	set	1078
  1373                           	global	_TRISC0
  1374  0438                     _TRISC0	set	1080
  1375                           	global	_TRISC6
  1376  043E                     _TRISC6	set	1086
  1377                           	global	_TRISC7
  1378  043F                     _TRISC7	set	1087
  1379                           	
  1380  0394                     STR_17:	
  1381  0394  340D               	retlw	13
  1382  0395  340A               	retlw	10
  1383  0396  346E               	retlw	110	;'n'
  1384  0397  3465               	retlw	101	;'e'
  1385  0398  346E               	retlw	110	;'n'
  1386  0399  3468               	retlw	104	;'h'
  1387  039A  3475               	retlw	117	;'u'
  1388  039B  346D               	retlw	109	;'m'
  1389  039C  3420               	retlw	32	;' '
  1390  039D  3463               	retlw	99	;'c'
  1391  039E  346F               	retlw	111	;'o'
  1392  039F  346D               	retlw	109	;'m'
  1393  03A0  3461               	retlw	97	;'a'
  1394  03A1  346E               	retlw	110	;'n'
  1395  03A2  3464               	retlw	100	;'d'
  1396  03A3  346F               	retlw	111	;'o'
  1397  03A4  3420               	retlw	32	;' '
  1398  03A5  3476               	retlw	118	;'v'
  1399  03A6  3461               	retlw	97	;'a'
  1400  03A7  346C               	retlw	108	;'l'
  1401  03A8  3469               	retlw	105	;'i'
  1402  03A9  3464               	retlw	100	;'d'
  1403  03AA  346F               	retlw	111	;'o'
  1404  03AB  3420               	retlw	32	;' '
  1405  03AC  3465               	retlw	101	;'e'
  1406  03AD  346E               	retlw	110	;'n'
  1407  03AE  3463               	retlw	99	;'c'
  1408  03AF  346F               	retlw	111	;'o'
  1409  03B0  346E               	retlw	110	;'n'
  1410  03B1  3474               	retlw	116	;'t'
  1411  03B2  3472               	retlw	114	;'r'
  1412  03B3  3461               	retlw	97	;'a'
  1413  03B4  3464               	retlw	100	;'d'
  1414  03B5  346F               	retlw	111	;'o'
  1415  03B6  3400               	retlw	0
  1416                           psect	stringtext
  1417                           	
  1418  03B7                     STR_21:	
  1419  03B7  340D               	retlw	13
  1420  03B8  340A               	retlw	10
  1421  03B9  3463               	retlw	99	;'c'
  1422  03BA  346F               	retlw	111	;'o'
  1423  03BB  3470               	retlw	112	;'p'
  1424  03BC  3469               	retlw	105	;'i'
  1425  03BD  3461               	retlw	97	;'a'
  1426  03BE  346E               	retlw	110	;'n'
  1427  03BF  3464               	retlw	100	;'d'
  1428  03C0  346F               	retlw	111	;'o'
  1429  03C1  3420               	retlw	32	;' '
  1430  03C2  3470               	retlw	112	;'p'
  1431  03C3  342F               	retlw	47	;'/'
  1432  03C4  3420               	retlw	32	;' '
  1433  03C5  346C               	retlw	108	;'l'
  1434  03C6  3463               	retlw	99	;'c'
  1435  03C7  3464               	retlw	100	;'d'
  1436  03C8  3420               	retlw	32	;' '
  1437  03C9  343D               	retlw	61	;'='
  1438  03CA  3420               	retlw	32	;' '
  1439  03CB  3425               	retlw	37	;'%'
  1440  03CC  3463               	retlw	99	;'c'
  1441  03CD  3400               	retlw	0
  1442                           psect	stringtext
  1443                           	
  1444  03CE                     STR_37:	
  1445  03CE  3430               	retlw	48	;'0'
  1446  03CF  3431               	retlw	49	;'1'
  1447  03D0  3432               	retlw	50	;'2'
  1448  03D1  3433               	retlw	51	;'3'
  1449  03D2  3434               	retlw	52	;'4'
  1450  03D3  3435               	retlw	53	;'5'
  1451  03D4  3436               	retlw	54	;'6'
  1452  03D5  3437               	retlw	55	;'7'
  1453  03D6  3438               	retlw	56	;'8'
  1454  03D7  3439               	retlw	57	;'9'
  1455  03D8  3461               	retlw	97	;'a'
  1456  03D9  3462               	retlw	98	;'b'
  1457  03DA  3463               	retlw	99	;'c'
  1458  03DB  3464               	retlw	100	;'d'
  1459  03DC  3465               	retlw	101	;'e'
  1460  03DD  3466               	retlw	102	;'f'
  1461  03DE  3400               	retlw	0
  1462                           psect	stringtext
  1463                           	
  1464  03DF                     STR_23:	
  1465  03DF  342D               	retlw	45	;'-'
  1466  03E0  342D               	retlw	45	;'-'
  1467  03E1  342D               	retlw	45	;'-'
  1468  03E2  342D               	retlw	45	;'-'
  1469  03E3  342D               	retlw	45	;'-'
  1470  03E4  342D               	retlw	45	;'-'
  1471  03E5  342D               	retlw	45	;'-'
  1472  03E6  342D               	retlw	45	;'-'
  1473  03E7  342D               	retlw	45	;'-'
  1474  03E8  342D               	retlw	45	;'-'
  1475  03E9  342D               	retlw	45	;'-'
  1476  03EA  342D               	retlw	45	;'-'
  1477  03EB  342D               	retlw	45	;'-'
  1478  03EC  342D               	retlw	45	;'-'
  1479  03ED  342D               	retlw	45	;'-'
  1480  03EE  342D               	retlw	45	;'-'
  1481  03EF  3400               	retlw	0
  1482                           psect	stringtext
  1483                           	
  1484  03F0                     STR_19:	
  1485  03F0  340D               	retlw	13
  1486  03F1  340A               	retlw	10
  1487  03F2  3466               	retlw	102	;'f'
  1488  03F3  3469               	retlw	105	;'i'
  1489  03F4  346D               	retlw	109	;'m'
  1490  03F5  3420               	retlw	32	;' '
  1491  03F6  3464               	retlw	100	;'d'
  1492  03F7  346F               	retlw	111	;'o'
  1493  03F8  3420               	retlw	32	;' '
  1494  03F9  3463               	retlw	99	;'c'
  1495  03FA  346D               	retlw	109	;'m'
  1496  03FB  3464               	retlw	100	;'d'
  1497  03FC  3420               	retlw	32	;' '
  1498  03FD  346C               	retlw	108	;'l'
  1499  03FE  3463               	retlw	99	;'c'
  1500  03FF  3464               	retlw	100	;'d'
  1501  0400  3400               	retlw	0
  1502                           psect	stringtext
  1503                           	
  1504  0401                     STR_16:	
  1505  0401  3470               	retlw	112	;'p'
  1506  0402  3472               	retlw	114	;'r'
  1507  0403  3469               	retlw	105	;'i'
  1508  0404  346E               	retlw	110	;'n'
  1509  0405  3474               	retlw	116	;'t'
  1510  0406  3466               	retlw	102	;'f'
  1511  0407  3420               	retlw	32	;' '
  1512  0408  3464               	retlw	100	;'d'
  1513  0409  3465               	retlw	101	;'e'
  1514  040A  3473               	retlw	115	;'s'
  1515  040B  346C               	retlw	108	;'l'
  1516  040C  3469               	retlw	105	;'i'
  1517  040D  3467               	retlw	103	;'g'
  1518  040E  3461               	retlw	97	;'a'
  1519  040F  3464               	retlw	100	;'d'
  1520  0410  346F               	retlw	111	;'o'
  1521  0411  3400               	retlw	0
  1522                           psect	stringtext
  1523                           	
  1524  0412                     STR_4:	
  1525  0412  3420               	retlw	32	;' '
  1526  0413  3420               	retlw	32	;' '
  1527  0414  3420               	retlw	32	;' '
  1528  0415  3420               	retlw	32	;' '
  1529  0416  3420               	retlw	32	;' '
  1530  0417  3420               	retlw	32	;' '
  1531  0418  3420               	retlw	32	;' '
  1532  0419  3420               	retlw	32	;' '
  1533  041A  3420               	retlw	32	;' '
  1534  041B  3420               	retlw	32	;' '
  1535  041C  3420               	retlw	32	;' '
  1536  041D  3420               	retlw	32	;' '
  1537  041E  3420               	retlw	32	;' '
  1538  041F  3420               	retlw	32	;' '
  1539  0420  3420               	retlw	32	;' '
  1540  0421  3420               	retlw	32	;' '
  1541  0422  3400               	retlw	0
  1542                           psect	stringtext
  1543                           	
  1544  0423                     STR_1:	
  1545  0423  3450               	retlw	80	;'P'
  1546  0424  3472               	retlw	114	;'r'
  1547  0425  346F               	retlw	111	;'o'
  1548  0426  346A               	retlw	106	;'j'
  1549  0427  3465               	retlw	101	;'e'
  1550  0428  3474               	retlw	116	;'t'
  1551  0429  346F               	retlw	111	;'o'
  1552  042A  3420               	retlw	32	;' '
  1553  042B  3456               	retlw	86	;'V'
  1554  042C  342D               	retlw	45	;'-'
  1555  042D  3432               	retlw	50	;'2'
  1556  042E  3420               	retlw	32	;' '
  1557  042F  3420               	retlw	32	;' '
  1558  0430  3420               	retlw	32	;' '
  1559  0431  3420               	retlw	32	;' '
  1560  0432  3420               	retlw	32	;' '
  1561  0433  3400               	retlw	0
  1562                           psect	stringtext
  1563                           	
  1564  0434                     STR_2:	
  1565  0434  3431               	retlw	49	;'1'
  1566  0435  3438               	retlw	56	;'8'
  1567  0436  342D               	retlw	45	;'-'
  1568  0437  346A               	retlw	106	;'j'
  1569  0438  3461               	retlw	97	;'a'
  1570  0439  346E               	retlw	110	;'n'
  1571  043A  342D               	retlw	45	;'-'
  1572  043B  3432               	retlw	50	;'2'
  1573  043C  3430               	retlw	48	;'0'
  1574  043D  3431               	retlw	49	;'1'
  1575  043E  3432               	retlw	50	;'2'
  1576  043F  3420               	retlw	32	;' '
  1577  0440  3420               	retlw	32	;' '
  1578  0441  3420               	retlw	32	;' '
  1579  0442  3420               	retlw	32	;' '
  1580  0443  3420               	retlw	32	;' '
  1581  0444  3400               	retlw	0
  1582                           psect	stringtext
  1583                           	
  1584  0445                     STR_11:	
  1585  0445  340D               	retlw	13
  1586  0446  340A               	retlw	10
  1587  0447  3476               	retlw	118	;'v'
  1588  0448  3465               	retlw	101	;'e'
  1589  0449  346E               	retlw	110	;'n'
  1590  044A  3464               	retlw	100	;'d'
  1591  044B  346F               	retlw	111	;'o'
  1592  044C  3420               	retlw	32	;' '
  1593  044D  3463               	retlw	99	;'c'
  1594  044E  346F               	retlw	111	;'o'
  1595  044F  346D               	retlw	109	;'m'
  1596  0450  3461               	retlw	97	;'a'
  1597  0451  346E               	retlw	110	;'n'
  1598  0452  3464               	retlw	100	;'d'
  1599  0453  346F               	retlw	111	;'o'
  1600  0454  3400               	retlw	0
  1601                           psect	stringtext
  1602                           	
  1603  0455                     STR_22:	
  1604  0455  3465               	retlw	101	;'e'
  1605  0456  3472               	retlw	114	;'r'
  1606  0457  3472               	retlw	114	;'r'
  1607  0458  346F               	retlw	111	;'o'
  1608  0459  3420               	retlw	32	;' '
  1609  045A  346E               	retlw	110	;'n'
  1610  045B  346F               	retlw	111	;'o'
  1611  045C  3420               	retlw	32	;' '
  1612  045D  3470               	retlw	112	;'p'
  1613  045E  3431               	retlw	49	;'1'
  1614  045F  3435               	retlw	53	;'5'
  1615  0460  3430               	retlw	48	;'0'
  1616  0461  3433               	retlw	51	;'3'
  1617  0462  3400               	retlw	0
  1618                           psect	stringtext
  1619                           	
  1620  0463                     STR_10:	
  1621  0463  340D               	retlw	13
  1622  0464  340A               	retlw	10
  1623  0465  3425               	retlw	37	;'%'
  1624  0466  3463               	retlw	99	;'c'
  1625  0467  3420               	retlw	32	;' '
  1626  0468  343D               	retlw	61	;'='
  1627  0469  3420               	retlw	32	;' '
  1628  046A  3430               	retlw	48	;'0'
  1629  046B  3478               	retlw	120	;'x'
  1630  046C  3425               	retlw	37	;'%'
  1631  046D  3430               	retlw	48	;'0'
  1632  046E  3432               	retlw	50	;'2'
  1633  046F  3478               	retlw	120	;'x'
  1634  0470  3400               	retlw	0
  1635                           psect	stringtext
  1636                           	
  1637  0471                     STR_18:	
  1638  0471  3465               	retlw	101	;'e'
  1639  0472  3472               	retlw	114	;'r'
  1640  0473  3472               	retlw	114	;'r'
  1641  0474  346F               	retlw	111	;'o'
  1642  0475  3420               	retlw	32	;' '
  1643  0476  346E               	retlw	110	;'n'
  1644  0477  346F               	retlw	111	;'o'
  1645  0478  3420               	retlw	32	;' '
  1646  0479  3463               	retlw	99	;'c'
  1647  047A  346D               	retlw	109	;'m'
  1648  047B  3464               	retlw	100	;'d'
  1649  047C  3400               	retlw	0
  1650                           psect	stringtext
  1651                           	
  1652  047D                     STR_8:	
  1653  047D  340D               	retlw	13
  1654  047E  340A               	retlw	10
  1655  047F  3425               	retlw	37	;'%'
  1656  0480  3463               	retlw	99	;'c'
  1657  0481  3420               	retlw	32	;' '
  1658  0482  343D               	retlw	61	;'='
  1659  0483  3420               	retlw	32	;' '
  1660  0484  3430               	retlw	48	;'0'
  1661  0485  3478               	retlw	120	;'x'
  1662  0486  3425               	retlw	37	;'%'
  1663  0487  3478               	retlw	120	;'x'
  1664  0488  3400               	retlw	0
  1665                           psect	stringtext
  1666                           	
  1667  0489                     STR_3:	
  1668  0489  346F               	retlw	111	;'o'
  1669  048A  3476               	retlw	118	;'v'
  1670  048B  3465               	retlw	101	;'e'
  1671  048C  3472               	retlw	114	;'r'
  1672  048D  3466               	retlw	102	;'f'
  1673  048E  346C               	retlw	108	;'l'
  1674  048F  346F               	retlw	111	;'o'
  1675  0490  3477               	retlw	119	;'w'
  1676  0491  3400               	retlw	0
  1677                           psect	stringtext
  1678                           	
  1679  0492                     STR_36:	
  1680  0492  3446               	retlw	70	;'F'
  1681  0493  3449               	retlw	73	;'I'
  1682  0494  344D               	retlw	77	;'M'
  1683  0495  342E               	retlw	46	;'.'
  1684  0496  342E               	retlw	46	;'.'
  1685  0497  342E               	retlw	46	;'.'
  1686  0498  342E               	retlw	46	;'.'
  1687  0499  3400               	retlw	0
  1688                           psect	stringtext
  1689                           	
  1690  049A                     STR_7:	
  1691  049A  340D               	retlw	13
  1692  049B  340A               	retlw	10
  1693  049C  3463               	retlw	99	;'c'
  1694  049D  346D               	retlw	109	;'m'
  1695  049E  3464               	retlw	100	;'d'
  1696  049F  343A               	retlw	58	;':'
  1697  04A0  3400               	retlw	0
  1698                           psect	stringtext
  1699                           	
  1700  04A1                     STR_9:	
  1701  04A1  340D               	retlw	13
  1702  04A2  340A               	retlw	10
  1703  04A3  3461               	retlw	97	;'a'
  1704  04A4  3472               	retlw	114	;'r'
  1705  04A5  3467               	retlw	103	;'g'
  1706  04A6  343A               	retlw	58	;':'
  1707  04A7  3400               	retlw	0
  1708                           psect	stringtext
  1709  03DF                     STR_24	equ	STR_23+0
  1710  03DF                     STR_25	equ	STR_23+0
  1711  03DF                     STR_26	equ	STR_23+0
  1712  03DF                     STR_27	equ	STR_23+0
  1713  03DF                     STR_28	equ	STR_23+0
  1714  03DF                     STR_29	equ	STR_23+0
  1715  03DF                     STR_30	equ	STR_23+0
  1716  03DF                     STR_31	equ	STR_23+0
  1717  03DF                     STR_32	equ	STR_23+0
  1718  03DF                     STR_33	equ	STR_23+0
  1719  03DF                     STR_34	equ	STR_23+0
  1720  03DF                     STR_35	equ	STR_23+0
  1721  0412                     STR_5	equ	STR_4+0
  1722  0412                     STR_6	equ	STR_4+0
  1723  0412                     STR_12	equ	STR_4+0
  1724  0412                     STR_13	equ	STR_4+0
  1725  0412                     STR_14	equ	STR_4+0
  1726  0412                     STR_15	equ	STR_4+0
  1727  0412                     STR_20	equ	STR_4+0
  1728                           	file	"C:\Users\FELIPE~1\AppData\Local\Temp\s1mc."
  1729                           	line	#
  1730                           psect cinit,class=CODE,delta=2
  1731                           global start_initialization
  1732  1E46                     start_initialization:
  1733                           
  1734                           psect	bssCOMMON,class=COMMON,space=1
  1735                           global __pbssCOMMON
  1736  0079                     __pbssCOMMON:
  1737  0079                     _uart:
  1738  0079                            ds      3
  1739                           
  1740  007C                     _segundo:
  1741  007C                            ds      1
  1742                           
  1743  007D                     _tmr2_cont:
  1744  007D                            ds      1
  1745                           
  1746                           psect	bssBANK0,class=BANK0,space=1
  1747                           global __pbssBANK0
  1748  0048                     __pbssBANK0:
  1749  0048                     _p1503:
  1750  0048                            ds      5
  1751                           
  1752  004D                     _protocolo:
  1753  004D                            ds      3
  1754                           
  1755  0050                     p1503_analogico@contexto:
  1756  0050                            ds      1
  1757                           
  1758  0051                     p1503_loop@timeout:
  1759  0051                            ds      1
  1760                           
  1761  0052                     protocolo_cmd@a:
  1762  0052                            ds      1
  1763                           
  1764  0053                     _buffer:
  1765  0053                            ds      19
  1766                           
  1767                           psect	dataBANK0,class=BANK0,space=1
  1768                           global __pdataBANK0
  1769  0066                     __pdataBANK0:
  1770                           	file	"lcd.c"
  1771                           	line	157
  1772  0066                     lcd_cursor_ddram@F1078:
  1773  0066                            ds      8
  1774                           
  1775                           psect	bssBANK1,class=BANK1,space=1
  1776                           global __pbssBANK1
  1777  00A0                     __pbssBANK1:
  1778  00A0                     _debug:
  1779  00A0                            ds      18
  1780                           
  1781                           psect clrtext,class=CODE,delta=2
  1782                           global clear_ram
  1783                           ;	Called with FSR containing the base address, and
  1784                           ;	W with the last address+1
  1785  1D51                     clear_ram:
  1786  1D51  0064               	clrwdt			;clear the watchdog before getting into this loop
  1787  1D52                     clrloop:
  1788  1D52  0180               	clrf	indf		;clear RAM location pointed to by FSR
  1789  1D53  0A84               	incf	fsr,f		;increment pointer
  1790  1D54  0604               	xorwf	fsr,w		;XOR with final address
  1791  1D55  1903               	btfsc	status,2	;have we reached the end yet?
  1792  1D56  3400               	retlw	0		;all done for this memory range, return
  1793  1D57  0604               	xorwf	fsr,w		;XOR again to restore value
  1794  1D58  2D52               	goto	clrloop		;do the next byte
  1795                           
  1796                           ; Clear objects allocated to COMMON
  1797                           psect cinit,class=CODE,delta=2
  1798  1E46  01F9               	clrf	((__pbssCOMMON)+0)&07Fh
  1799  1E47  01FA               	clrf	((__pbssCOMMON)+1)&07Fh
  1800  1E48  01FB               	clrf	((__pbssCOMMON)+2)&07Fh
  1801  1E49  01FC               	clrf	((__pbssCOMMON)+3)&07Fh
  1802  1E4A  01FD               	clrf	((__pbssCOMMON)+4)&07Fh
  1803                           ; Clear objects allocated to BANK0
  1804                           psect cinit,class=CODE,delta=2
  1805  1E4B  1383               	bcf	status, 7	;select IRP bank0
  1806  1E4C  3048               	movlw	low(__pbssBANK0)
  1807  1E4D  0084               	movwf	fsr
  1808  1E4E  3066               	movlw	low((__pbssBANK0)+01Eh)
  1809  1E4F  160A  158A  2551   	fcall	clear_ram
              160A  158A         
  1810                           ; Clear objects allocated to BANK1
  1811                           psect cinit,class=CODE,delta=2
  1812  1E54  30A0               	movlw	low(__pbssBANK1)
  1813  1E55  0084               	movwf	fsr
  1814  1E56  30B2               	movlw	low((__pbssBANK1)+012h)
  1815  1E57  160A  158A  2551   	fcall	clear_ram
              160A  158A         
  1816                           global btemp
  1817                           psect inittext,class=CODE,delta=2
  1818                           global init_fetch,btemp
  1819                           ;	Called with low address in FSR and high address in W
  1820  1DC3                     init_fetch:
  1821  1DC3  087E               	movf btemp,w
  1822  1DC4  008A               	movwf pclath
  1823  1DC5  087F               	movf btemp+1,w
  1824  1DC6  0082               	movwf pc
  1825                           global init_ram
  1826                           ;Called with:
  1827                           ;	high address of idata address in btemp 
  1828                           ;	low address of idata address in btemp+1 
  1829                           ;	low address of data in FSR
  1830                           ;	high address + 1 of data in btemp-1
  1831  1DC7                     init_ram:
  1832  1DC7  160A  158A  25C3   	fcall init_fetch
              160A  158A         
  1833  1DCC  0080               	movwf indf,f
  1834  1DCD  0A84               	incf fsr,f
  1835  1DCE  0804               	movf fsr,w
  1836  1DCF  067D               	xorwf btemp-1,w
  1837  1DD0  1903               	btfsc status,2
  1838  1DD1  3400               	retlw 0
  1839  1DD2  0AFF               	incf btemp+1,f
  1840  1DD3  1903               	btfsc status,2
  1841  1DD4  0AFE               	incf btemp,f
  1842  1DD5  2DC7               	goto init_ram
  1843                           ; Initialize objects allocated to BANK0
  1844                           psect cinit,class=CODE,delta=2
  1845                           global init_ram, __pidataBANK0
  1846  1E5C  306E               	movlw low(__pdataBANK0+8)
  1847  1E5D  00FD               	movwf btemp-1,f
  1848  1E5E  301D               	movlw high(__pidataBANK0)
  1849  1E5F  00FE               	movwf btemp,f
  1850  1E60  3059               	movlw low(__pidataBANK0)
  1851  1E61  00FF               	movwf btemp+1,f
  1852  1E62  3066               	movlw low(__pdataBANK0)
  1853  1E63  0084               	movwf fsr,f
  1854  1E64  160A  158A  25C7   	fcall init_ram
              160A  158A         
  1855                           psect cinit,class=CODE,delta=2
  1856                           global end_of_initialization
  1857                           
  1858                           ;End of C runtime variable initialization code
  1859                           
  1860  1E69                     end_of_initialization:
  1861  1E69  0183               clrf status
  1862  1E6A  160A  118A  297E   ljmp _main	;jump to C main() function
  1863                           psect	cstackCOMMON,class=COMMON,space=1
  1864                           global __pcstackCOMMON
  1865  0070                     __pcstackCOMMON:
  1866                           	global	??_uart_rx_soft
  1867  0070                     ??_uart_rx_soft:	; 0 bytes @ 0x0
  1868                           	global	?_debug_init
  1869  0070                     ?_debug_init:	; 0 bytes @ 0x0
  1870                           	global	?_reles_init
  1871  0070                     ?_reles_init:	; 0 bytes @ 0x0
  1872                           	global	?_uart_init
  1873  0070                     ?_uart_init:	; 0 bytes @ 0x0
  1874                           	global	?_lcd_init
  1875  0070                     ?_lcd_init:	; 0 bytes @ 0x0
  1876                           	global	?_main_msg_inicial
  1877  0070                     ?_main_msg_inicial:	; 0 bytes @ 0x0
  1878                           	global	?_p1503_init
  1879  0070                     ?_p1503_init:	; 0 bytes @ 0x0
  1880                           	global	?_homem_animacao
  1881  0070                     ?_homem_animacao:	; 0 bytes @ 0x0
  1882                           	global	?_p1503_loop
  1883  0070                     ?_p1503_loop:	; 0 bytes @ 0x0
  1884                           	global	?_protocolo_cmd
  1885  0070                     ?_protocolo_cmd:	; 0 bytes @ 0x0
  1886                           	global	?_uart_hard_fim
  1887  0070                     ?_uart_hard_fim:	; 0 bytes @ 0x0
  1888                           	global	?_lcd_putch
  1889  0070                     ?_lcd_putch:	; 0 bytes @ 0x0
  1890                           	global	?_uart_init_hardware
  1891  0070                     ?_uart_init_hardware:	; 0 bytes @ 0x0
  1892                           	global	?_uart_init_software
  1893  0070                     ?_uart_init_software:	; 0 bytes @ 0x0
  1894                           	global	?_protocolo_ver_cmd
  1895  0070                     ?_protocolo_ver_cmd:	; 0 bytes @ 0x0
  1896                           	global	?_protocolo_lcd
  1897  0070                     ?_protocolo_lcd:	; 0 bytes @ 0x0
  1898                           	global	?_p1503_envia_pacote
  1899  0070                     ?_p1503_envia_pacote:	; 0 bytes @ 0x0
  1900                           	global	?_isdigit
  1901  0070                     ?_isdigit:	; 1 bit 
  1902                           	global	?__isr
  1903  0070                     ?__isr:	; 0 bytes @ 0x0
  1904                           	global	?_main
  1905  0070                     ?_main:	; 0 bytes @ 0x0
  1906                           	global	?_lcd_write
  1907  0070                     ?_lcd_write:	; 0 bytes @ 0x0
  1908                           	global	?_lcd_clear
  1909  0070                     ?_lcd_clear:	; 0 bytes @ 0x0
  1910                           	global	?_lcd_goto
  1911  0070                     ?_lcd_goto:	; 0 bytes @ 0x0
  1912                           	global	?_putch
  1913  0070                     ?_putch:	; 0 bytes @ 0x0
  1914                           	global	?_uart_tx_soft
  1915  0070                     ?_uart_tx_soft:	; 0 bytes @ 0x0
  1916                           	global	?_homem_inicio
  1917  0070                     ?_homem_inicio:	; 0 bytes @ 0x0
  1918                           	global	?_homem_corre_esquerda
  1919  0070                     ?_homem_corre_esquerda:	; 0 bytes @ 0x0
  1920                           	global	?_homem_vira_direita
  1921  0070                     ?_homem_vira_direita:	; 0 bytes @ 0x0
  1922                           	global	?_homem_corre_direita
  1923  0070                     ?_homem_corre_direita:	; 0 bytes @ 0x0
  1924                           	global	?_homem_vira_esquerda
  1925  0070                     ?_homem_vira_esquerda:	; 0 bytes @ 0x0
  1926                           	global	?_uart_rx_soft
  1927  0070                     ?_uart_rx_soft:	; 1 bytes @ 0x0
  1928                           	global	?_p1503_barramento
  1929  0070                     ?_p1503_barramento:	; 1 bytes @ 0x0
  1930                           	global	?_p1503_analogico
  1931  0070                     ?_p1503_analogico:	; 1 bytes @ 0x0
  1932  0070                     	ds	2
  1933                           	global	uart_rx_soft@val
  1934  0072                     uart_rx_soft@val:	; 1 bytes @ 0x2
  1935  0072                     	ds	1
  1936                           	global	uart_rx_soft@offset
  1937  0073                     uart_rx_soft@offset:	; 1 bytes @ 0x3
  1938  0073                     	ds	1
  1939                           	global	??__isr
  1940  0074                     ??__isr:	; 0 bytes @ 0x4
  1941  0074                     	ds	5
  1942                           psect	cstackBANK0,class=BANK0,space=1
  1943                           global __pcstackBANK0
  1944  0020                     __pcstackBANK0:
  1945                           	global	??_debug_init
  1946  0020                     ??_debug_init:	; 0 bytes @ 0x0
  1947                           	global	??_reles_init
  1948  0020                     ??_reles_init:	; 0 bytes @ 0x0
  1949                           	global	??_uart_init
  1950  0020                     ??_uart_init:	; 0 bytes @ 0x0
  1951                           	global	??_uart_init_hardware
  1952  0020                     ??_uart_init_hardware:	; 0 bytes @ 0x0
  1953                           	global	??_uart_init_software
  1954  0020                     ??_uart_init_software:	; 0 bytes @ 0x0
  1955                           	global	??_p1503_barramento
  1956  0020                     ??_p1503_barramento:	; 0 bytes @ 0x0
  1957                           	global	?_reles_cmd_arg
  1958  0020                     ?_reles_cmd_arg:	; 0 bytes @ 0x0
  1959                           	global	?_p1503_cmd_arg
  1960  0020                     ?_p1503_cmd_arg:	; 0 bytes @ 0x0
  1961                           	global	??_p1503_envia_pacote
  1962  0020                     ??_p1503_envia_pacote:	; 0 bytes @ 0x0
  1963                           	global	??_isdigit
  1964  0020                     ??_isdigit:	; 0 bytes @ 0x0
  1965                           	global	??_lcd_write
  1966  0020                     ??_lcd_write:	; 0 bytes @ 0x0
  1967                           	global	??_putch
  1968  0020                     ??_putch:	; 0 bytes @ 0x0
  1969                           	global	??_uart_tx_soft
  1970  0020                     ??_uart_tx_soft:	; 0 bytes @ 0x0
  1971                           	global	?___wmul
  1972  0020                     ?___wmul:	; 2 bytes @ 0x0
  1973                           	global	?___lwdiv
  1974  0020                     ?___lwdiv:	; 2 bytes @ 0x0
  1975                           	global	putch@byte
  1976  0020                     putch@byte:	; 1 bytes @ 0x0
  1977                           	global	reles_cmd_arg@arg
  1978  0020                     reles_cmd_arg@arg:	; 1 bytes @ 0x0
  1979                           	global	p1503_cmd_arg@arg
  1980  0020                     p1503_cmd_arg@arg:	; 1 bytes @ 0x0
  1981                           	global	_isdigit$6085
  1982  0020                     _isdigit$6085:	; 1 bytes @ 0x0
  1983                           	global	___wmul@multiplier
  1984  0020                     ___wmul@multiplier:	; 2 bytes @ 0x0
  1985                           	global	___lwdiv@divisor
  1986  0020                     ___lwdiv@divisor:	; 2 bytes @ 0x0
  1987  0020                     	ds	1
  1988                           	global	??_reles_cmd_arg
  1989  0021                     ??_reles_cmd_arg:	; 0 bytes @ 0x1
  1990                           	global	??_p1503_cmd_arg
  1991  0021                     ??_p1503_cmd_arg:	; 0 bytes @ 0x1
  1992                           	global	uart_tx_soft@data
  1993  0021                     uart_tx_soft@data:	; 1 bytes @ 0x1
  1994                           	global	reles_cmd_arg@cmd
  1995  0021                     reles_cmd_arg@cmd:	; 1 bytes @ 0x1
  1996                           	global	isdigit@c
  1997  0021                     isdigit@c:	; 1 bytes @ 0x1
  1998  0021                     	ds	1
  1999                           	global	lcd_write@c
  2000  0022                     lcd_write@c:	; 1 bytes @ 0x2
  2001                           	global	uart_tx_soft@mask
  2002  0022                     uart_tx_soft@mask:	; 1 bytes @ 0x2
  2003                           	global	p1503_cmd_arg@cmd
  2004  0022                     p1503_cmd_arg@cmd:	; 1 bytes @ 0x2
  2005                           	global	___wmul@multiplicand
  2006  0022                     ___wmul@multiplicand:	; 2 bytes @ 0x2
  2007                           	global	___lwdiv@dividend
  2008  0022                     ___lwdiv@dividend:	; 2 bytes @ 0x2
  2009  0022                     	ds	1
  2010                           	global	??_p1503_init
  2011  0023                     ??_p1503_init:	; 0 bytes @ 0x3
  2012                           	global	?_lcd_novo_char
  2013  0023                     ?_lcd_novo_char:	; 0 bytes @ 0x3
  2014                           	global	?_lcd_cursor_ddram
  2015  0023                     ?_lcd_cursor_ddram:	; 0 bytes @ 0x3
  2016                           	global	??_lcd_putch
  2017  0023                     ??_lcd_putch:	; 0 bytes @ 0x3
  2018                           	global	??_p1503_analogico
  2019  0023                     ??_p1503_analogico:	; 0 bytes @ 0x3
  2020                           	global	??_lcd_clear
  2021  0023                     ??_lcd_clear:	; 0 bytes @ 0x3
  2022                           	global	??_lcd_goto
  2023  0023                     ??_lcd_goto:	; 0 bytes @ 0x3
  2024                           	global	lcd_putch@c
  2025  0023                     lcd_putch@c:	; 1 bytes @ 0x3
  2026                           	global	lcd_goto@pos
  2027  0023                     lcd_goto@pos:	; 1 bytes @ 0x3
  2028                           	global	lcd_cursor_ddram@linha
  2029  0023                     lcd_cursor_ddram@linha:	; 1 bytes @ 0x3
  2030                           	global	lcd_novo_char@bloco
  2031  0023                     lcd_novo_char@bloco:	; 2 bytes @ 0x3
  2032  0023                     	ds	1
  2033                           	global	?_lcd_string
  2034  0024                     ?_lcd_string:	; 0 bytes @ 0x4
  2035                           	global	??_lcd_cursor_ddram
  2036  0024                     ??_lcd_cursor_ddram:	; 0 bytes @ 0x4
  2037                           	global	??___wmul
  2038  0024                     ??___wmul:	; 0 bytes @ 0x4
  2039                           	global	??___lwdiv
  2040  0024                     ??___lwdiv:	; 0 bytes @ 0x4
  2041                           	global	p1503_analogico@canal
  2042  0024                     p1503_analogico@canal:	; 1 bytes @ 0x4
  2043                           	global	lcd_string@s
  2044  0024                     lcd_string@s:	; 2 bytes @ 0x4
  2045                           	global	___wmul@product
  2046  0024                     ___wmul@product:	; 2 bytes @ 0x4
  2047  0024                     	ds	1
  2048                           	global	??_lcd_init
  2049  0025                     ??_lcd_init:	; 0 bytes @ 0x5
  2050                           	global	??_lcd_novo_char
  2051  0025                     ??_lcd_novo_char:	; 0 bytes @ 0x5
  2052                           	global	___lwdiv@quotient
  2053  0025                     ___lwdiv@quotient:	; 2 bytes @ 0x5
  2054  0025                     	ds	1
  2055                           	global	lcd_string@pos
  2056  0026                     lcd_string@pos:	; 1 bytes @ 0x6
  2057                           	global	lcd_novo_char@local
  2058  0026                     lcd_novo_char@local:	; 1 bytes @ 0x6
  2059  0026                     	ds	1
  2060                           	global	??_p1503_loop
  2061  0027                     ??_p1503_loop:	; 0 bytes @ 0x7
  2062                           	global	??_lcd_string
  2063  0027                     ??_lcd_string:	; 0 bytes @ 0x7
  2064                           	global	?_debug_lcd
  2065  0027                     ?_debug_lcd:	; 0 bytes @ 0x7
  2066                           	global	lcd_novo_char@i
  2067  0027                     lcd_novo_char@i:	; 1 bytes @ 0x7
  2068                           	global	___lwdiv@counter
  2069  0027                     ___lwdiv@counter:	; 1 bytes @ 0x7
  2070                           	global	debug_lcd@s
  2071  0027                     debug_lcd@s:	; 2 bytes @ 0x7
  2072  0027                     	ds	1
  2073                           	global	?_printf
  2074  0028                     ?_printf:	; 2 bytes @ 0x8
  2075                           	global	printf@f
  2076  0028                     printf@f:	; 2 bytes @ 0x8
  2077                           	global	lcd_cursor_ddram@row_offsets
  2078  0028                     lcd_cursor_ddram@row_offsets:	; 8 bytes @ 0x8
  2079  0028                     	ds	1
  2080                           	global	debug_lcd@pos
  2081  0029                     debug_lcd@pos:	; 1 bytes @ 0x9
  2082  0029                     	ds	1
  2083                           	global	debug_lcd@bug
  2084  002A                     debug_lcd@bug:	; 2 bytes @ 0xA
  2085  002A                     	ds	2
  2086                           	global	??_debug_lcd
  2087  002C                     ??_debug_lcd:	; 0 bytes @ 0xC
  2088  002C                     	ds	1
  2089                           	global	??_uart_hard_fim
  2090  002D                     ??_uart_hard_fim:	; 0 bytes @ 0xD
  2091  002D                     	ds	1
  2092                           	global	??_printf
  2093  002E                     ??_printf:	; 0 bytes @ 0xE
  2094  002E                     	ds	2
  2095                           	global	lcd_cursor_ddram@coluna
  2096  0030                     lcd_cursor_ddram@coluna:	; 1 bytes @ 0x10
  2097  0030                     	ds	1
  2098                           	global	?_cria_rosto
  2099  0031                     ?_cria_rosto:	; 0 bytes @ 0x11
  2100                           	global	??_homem_inicio
  2101  0031                     ??_homem_inicio:	; 0 bytes @ 0x11
  2102                           	global	??_homem_corre_esquerda
  2103  0031                     ??_homem_corre_esquerda:	; 0 bytes @ 0x11
  2104                           	global	??_homem_vira_direita
  2105  0031                     ??_homem_vira_direita:	; 0 bytes @ 0x11
  2106                           	global	??_homem_corre_direita
  2107  0031                     ??_homem_corre_direita:	; 0 bytes @ 0x11
  2108                           	global	??_homem_vira_esquerda
  2109  0031                     ??_homem_vira_esquerda:	; 0 bytes @ 0x11
  2110                           	global	cria_rosto@linha
  2111  0031                     cria_rosto@linha:	; 1 bytes @ 0x11
  2112                           	global	printf@flag
  2113  0031                     printf@flag:	; 1 bytes @ 0x11
  2114  0031                     	ds	1
  2115                           	global	??_cria_rosto
  2116  0032                     ??_cria_rosto:	; 0 bytes @ 0x12
  2117                           	global	printf@prec
  2118  0032                     printf@prec:	; 1 bytes @ 0x12
  2119                           	global	homem_inicio@b
  2120  0032                     homem_inicio@b:	; 2 bytes @ 0x12
  2121  0032                     	ds	1
  2122                           	global	cria_rosto@coluna
  2123  0033                     cria_rosto@coluna:	; 1 bytes @ 0x13
  2124                           	global	printf@ap
  2125  0033                     printf@ap:	; 1 bytes @ 0x13
  2126  0033                     	ds	1
  2127                           	global	??_main_msg_inicial
  2128  0034                     ??_main_msg_inicial:	; 0 bytes @ 0x14
  2129                           	global	homem_corre_esquerda@b
  2130  0034                     homem_corre_esquerda@b:	; 1 bytes @ 0x14
  2131                           	global	homem_corre_direita@b
  2132  0034                     homem_corre_direita@b:	; 1 bytes @ 0x14
  2133                           	global	homem_inicio@c
  2134  0034                     homem_inicio@c:	; 2 bytes @ 0x14
  2135                           	global	homem_vira_direita@b
  2136  0034                     homem_vira_direita@b:	; 2 bytes @ 0x14
  2137                           	global	homem_vira_esquerda@b
  2138  0034                     homem_vira_esquerda@b:	; 2 bytes @ 0x14
  2139                           	global	printf@_val
  2140  0034                     printf@_val:	; 3 bytes @ 0x14
  2141  0034                     	ds	1
  2142                           	global	homem_corre_esquerda@g
  2143  0035                     homem_corre_esquerda@g:	; 1 bytes @ 0x15
  2144                           	global	homem_corre_direita@g
  2145  0035                     homem_corre_direita@g:	; 1 bytes @ 0x15
  2146  0035                     	ds	1
  2147                           	global	homem_corre_esquerda@c
  2148  0036                     homem_corre_esquerda@c:	; 1 bytes @ 0x16
  2149                           	global	homem_corre_direita@c
  2150  0036                     homem_corre_direita@c:	; 1 bytes @ 0x16
  2151                           	global	homem_inicio@a
  2152  0036                     homem_inicio@a:	; 2 bytes @ 0x16
  2153                           	global	homem_vira_direita@c
  2154  0036                     homem_vira_direita@c:	; 2 bytes @ 0x16
  2155                           	global	homem_vira_esquerda@c
  2156  0036                     homem_vira_esquerda@c:	; 2 bytes @ 0x16
  2157  0036                     	ds	1
  2158                           	global	homem_corre_esquerda@f
  2159  0037                     homem_corre_esquerda@f:	; 1 bytes @ 0x17
  2160                           	global	homem_corre_direita@f
  2161  0037                     homem_corre_direita@f:	; 1 bytes @ 0x17
  2162                           	global	printf@width
  2163  0037                     printf@width:	; 2 bytes @ 0x17
  2164  0037                     	ds	1
  2165                           	global	homem_corre_esquerda@d
  2166  0038                     homem_corre_esquerda@d:	; 1 bytes @ 0x18
  2167                           	global	homem_corre_direita@d
  2168  0038                     homem_corre_direita@d:	; 1 bytes @ 0x18
  2169                           	global	homem_vira_direita@a
  2170  0038                     homem_vira_direita@a:	; 2 bytes @ 0x18
  2171                           	global	homem_vira_esquerda@a
  2172  0038                     homem_vira_esquerda@a:	; 2 bytes @ 0x18
  2173  0038                     	ds	1
  2174                           	global	homem_corre_esquerda@e
  2175  0039                     homem_corre_esquerda@e:	; 1 bytes @ 0x19
  2176                           	global	homem_corre_direita@e
  2177  0039                     homem_corre_direita@e:	; 1 bytes @ 0x19
  2178                           	global	printf@c
  2179  0039                     printf@c:	; 1 bytes @ 0x19
  2180  0039                     	ds	1
  2181                           	global	??_protocolo_lcd
  2182  003A                     ??_protocolo_lcd:	; 0 bytes @ 0x1A
  2183                           	global	homem_corre_esquerda@a
  2184  003A                     homem_corre_esquerda@a:	; 1 bytes @ 0x1A
  2185                           	global	homem_corre_direita@a
  2186  003A                     homem_corre_direita@a:	; 1 bytes @ 0x1A
  2187  003A                     	ds	1
  2188                           	global	??_homem_animacao
  2189  003B                     ??_homem_animacao:	; 0 bytes @ 0x1B
  2190  003B                     	ds	1
  2191                           	global	protocolo_lcd@linha
  2192  003C                     protocolo_lcd@linha:	; 1 bytes @ 0x1C
  2193  003C                     	ds	1
  2194                           	global	??_protocolo_ver_cmd
  2195  003D                     ??_protocolo_ver_cmd:	; 0 bytes @ 0x1D
  2196  003D                     	ds	4
  2197                           	global	??_protocolo_cmd
  2198  0041                     ??_protocolo_cmd:	; 0 bytes @ 0x21
  2199  0041                     	ds	4
  2200                           	global	??_main
  2201  0045                     ??_main:	; 0 bytes @ 0x25
  2202  0045                     	ds	3
  2203 ;;Data sizes: Strings 276, constant 642, data 8, bss 53, persistent 0 stack 0
  2204 ;;Auto spaces:   Size  Autos    Used
  2205 ;; COMMON          14      9      14
  2206 ;; BANK0           80     40      78
  2207 ;; BANK1           80      0      18
  2208 ;; BANK3           96      0       0
  2209 ;; BANK2           96      0       0
  2210                           
  2211 ;;
  2212 ;; Pointer list with targets:
  2213                           
  2214 ;; ?___lwdiv	unsigned int  size(1) Largest target is 0
  2215 ;;
  2216 ;; ?___wmul	unsigned int  size(1) Largest target is 0
  2217 ;;
  2218 ;; printf@_val._cp	PTR const unsigned char  size(1) Largest target is 1
  2219 ;;		 -> printf@c(BANK0[1]), 
  2220 ;;
  2221 ;; printf@f	PTR const unsigned char  size(2) Largest target is 35
  2222 ;;		 -> STR_21(CODE[23]), STR_19(CODE[17]), STR_17(CODE[35]), STR_11(CODE[16]), 
  2223 ;;		 -> STR_10(CODE[14]), STR_9(CODE[7]), STR_8(CODE[12]), STR_7(CODE[7]), 
  2224 ;;
  2225 ;; ?_printf	int  size(1) Largest target is 0
  2226 ;;
  2227 ;; printf@ap	PTR void [1] size(1) Largest target is 2
  2228 ;;		 -> ?_printf(BANK0[2]), 
  2229 ;;
  2230 ;; S6069$_cp	PTR const unsigned char  size(1) Largest target is 1
  2231 ;;		 -> printf@c(BANK0[1]), 
  2232 ;;
  2233 ;; _val._str._cp	PTR const unsigned char  size(1) Largest target is 1
  2234 ;;		 -> printf@c(BANK0[1]), 
  2235 ;;
  2236 ;; debug_lcd@s	PTR unsigned char  size(2) Largest target is 17
  2237 ;;		 -> STR_18(CODE[12]), STR_16(CODE[17]), STR_3(CODE[9]), 
  2238 ;;
  2239 ;; lcd_novo_char@bloco	PTR const unsigned char  size(2) Largest target is 8
  2240 ;;		 -> slipF6(CODE[8]), slipF5(CODE[8]), slipF4(CODE[8]), slipF3(CODE[8]), 
  2241 ;;		 -> slipF2(CODE[8]), slipF1(CODE[8]), slipE6(CODE[8]), slipE5(CODE[8]), 
  2242 ;;		 -> slipE4(CODE[8]), slipE3(CODE[8]), slipE2(CODE[8]), slipE1(CODE[8]), 
  2243 ;;		 -> slipD6(CODE[8]), slipD5(CODE[8]), slipD4(CODE[8]), slipD3(CODE[8]), 
  2244 ;;		 -> slipD2(CODE[8]), slipD1(CODE[8]), stepG6(CODE[8]), stepG5(CODE[8]), 
  2245 ;;		 -> stepG4(CODE[8]), stepG3(CODE[8]), stepG2(CODE[8]), stepG1(CODE[8]), 
  2246 ;;		 -> stepF6(CODE[8]), stepF5(CODE[8]), stepF4(CODE[8]), stepF3(CODE[8]), 
  2247 ;;		 -> stepF2(CODE[8]), stepF1(CODE[8]), stepE6(CODE[8]), stepE5(CODE[8]), 
  2248 ;;		 -> stepE4(CODE[8]), stepE3(CODE[8]), stepE2(CODE[8]), stepE1(CODE[8]), 
  2249 ;;		 -> slipC6(CODE[8]), slipC5(CODE[8]), slipC4(CODE[8]), slipC3(CODE[8]), 
  2250 ;;		 -> slipC2(CODE[8]), slipC1(CODE[8]), slipB6(CODE[8]), slipB5(CODE[8]), 
  2251 ;;		 -> slipB4(CODE[8]), slipB3(CODE[8]), slipB2(CODE[8]), slipB1(CODE[8]), 
  2252 ;;		 -> slipA6(CODE[8]), slipA5(CODE[8]), slipA4(CODE[8]), slipA3(CODE[8]), 
  2253 ;;		 -> slipA2(CODE[8]), slipA1(CODE[8]), stepD6(CODE[8]), stepD5(CODE[8]), 
  2254 ;;		 -> stepD4(CODE[8]), stepD3(CODE[8]), stepD2(CODE[8]), stepD1(CODE[8]), 
  2255 ;;		 -> stepC6(CODE[8]), stepC5(CODE[8]), stepC4(CODE[8]), stepC3(CODE[8]), 
  2256 ;;		 -> stepC2(CODE[8]), stepC1(CODE[8]), stepB6(CODE[8]), stepB5(CODE[8]), 
  2257 ;;		 -> stepB4(CODE[8]), stepB3(CODE[8]), stepB2(CODE[8]), stepB1(CODE[8]), 
  2258 ;;		 -> stepA6(CODE[8]), stepA5(CODE[8]), stepA4(CODE[8]), stepA3(CODE[8]), 
  2259 ;;		 -> stepA2(CODE[8]), stepA1(CODE[8]), rosto(CODE[8]), 
  2260 ;;
  2261 ;; lcd_string@s	PTR unsigned char  size(2) Largest target is 19
  2262 ;;		 -> STR_36(CODE[8]), STR_35(CODE[17]), STR_34(CODE[17]), STR_33(CODE[17]), 
  2263 ;;		 -> STR_32(CODE[17]), STR_31(CODE[17]), STR_30(CODE[17]), STR_29(CODE[17]), 
  2264 ;;		 -> STR_28(CODE[17]), STR_27(CODE[17]), STR_26(CODE[17]), STR_25(CODE[17]), 
  2265 ;;		 -> STR_24(CODE[17]), STR_23(CODE[17]), STR_22(CODE[14]), STR_20(CODE[17]), 
  2266 ;;		 -> STR_18(CODE[12]), STR_16(CODE[17]), STR_15(CODE[17]), STR_14(CODE[17]), 
  2267 ;;		 -> STR_13(CODE[17]), STR_12(CODE[17]), buffer(BANK0[19]), STR_6(CODE[17]), 
  2268 ;;		 -> STR_5(CODE[17]), STR_4(CODE[17]), STR_3(CODE[9]), STR_2(CODE[17]), 
  2269 ;;		 -> STR_1(CODE[17]), 
  2270 ;;
  2271                           
  2272                           
  2273 ;;
  2274 ;; Critical Paths under _main in COMMON
  2275 ;;
  2276 ;;   None.
  2277 ;;
  2278 ;; Critical Paths under __isr in COMMON
  2279 ;;
  2280 ;;   __isr->_uart_rx_soft
  2281 ;;
  2282 ;; Critical Paths under _main in BANK0
  2283 ;;
  2284 ;;   _main->_protocolo_cmd
  2285 ;;   _protocolo_cmd->_protocolo_ver_cmd
  2286 ;;   _protocolo_ver_cmd->_protocolo_lcd
  2287 ;;   _uart_hard_fim->_debug_lcd
  2288 ;;   _homem_animacao->_homem_corre_esquerda
  2289 ;;   _homem_animacao->_homem_corre_direita
  2290 ;;   _homem_vira_esquerda->_lcd_cursor_ddram
  2291 ;;   _homem_corre_direita->_lcd_cursor_ddram
  2292 ;;   _homem_vira_direita->_lcd_cursor_ddram
  2293 ;;   _homem_corre_esquerda->_lcd_cursor_ddram
  2294 ;;   _homem_inicio->_lcd_cursor_ddram
  2295 ;;   _protocolo_lcd->_printf
  2296 ;;   _debug_lcd->_lcd_string
  2297 ;;   _p1503_loop->_lcd_string
  2298 ;;   _main_msg_inicial->_cria_rosto
  2299 ;;   _lcd_string->_lcd_goto
  2300 ;;   _lcd_string->_lcd_putch
  2301 ;;   _cria_rosto->_lcd_cursor_ddram
  2302 ;;   _lcd_init->_lcd_clear
  2303 ;;   _lcd_goto->_lcd_write
  2304 ;;   _lcd_clear->_lcd_write
  2305 ;;   _lcd_putch->_lcd_write
  2306 ;;   _lcd_cursor_ddram->_lcd_write
  2307 ;;   _lcd_novo_char->_lcd_write
  2308 ;;   _p1503_init->_uart_tx_soft
  2309 ;;   _p1503_init->_p1503_cmd_arg
  2310 ;;   _p1503_analogico->_p1503_cmd_arg
  2311 ;;   _printf->___lwdiv
  2312 ;;
  2313 ;; Critical Paths under __isr in BANK0
  2314 ;;
  2315 ;;   None.
  2316 ;;
  2317 ;; Critical Paths under _main in BANK1
  2318 ;;
  2319 ;;   None.
  2320 ;;
  2321 ;; Critical Paths under __isr in BANK1
  2322 ;;
  2323 ;;   None.
  2324 ;;
  2325 ;; Critical Paths under _main in BANK3
  2326 ;;
  2327 ;;   None.
  2328 ;;
  2329 ;; Critical Paths under __isr in BANK3
  2330 ;;
  2331 ;;   None.
  2332 ;;
  2333 ;; Critical Paths under _main in BANK2
  2334 ;;
  2335 ;;   None.
  2336 ;;
  2337 ;; Critical Paths under __isr in BANK2
  2338 ;;
  2339 ;;   None.
  2340                           
  2341 ;;
  2342 ;;Main: autosize = 0, tempsize = 3, incstack = 0, save=0
  2343 ;;
  2344                           
  2345 ;;
  2346 ;;Call Graph Tables:
  2347 ;;
  2348 ;; ---------------------------------------------------------------------------------
  2349 ;; (Depth) Function   	        Calls       Base Space   Used Autos Params    Refs
  2350 ;; ---------------------------------------------------------------------------------
  2351 ;; (0) _main                                                 3     3      0   11653
  2352 ;;                                             37 BANK0      3     3      0
  2353 ;;                         _debug_init
  2354 ;;                         _reles_init
  2355 ;;                          _uart_init
  2356 ;;                           _lcd_init
  2357 ;;                   _main_msg_inicial
  2358 ;;                         _p1503_init
  2359 ;;                     _homem_animacao
  2360 ;;                         _p1503_loop
  2361 ;;                      _protocolo_cmd
  2362 ;;                      _uart_hard_fim
  2363 ;; ---------------------------------------------------------------------------------
  2364 ;; (1) _protocolo_cmd                                        4     4      0    4340
  2365 ;;                                             33 BANK0      4     4      0
  2366 ;;                             _printf
  2367 ;;                  _protocolo_ver_cmd
  2368 ;; ---------------------------------------------------------------------------------
  2369 ;; (2) _protocolo_ver_cmd                                    4     4      0    3173
  2370 ;;                                             29 BANK0      4     4      0
  2371 ;;                      _protocolo_lcd
  2372 ;;                         _lcd_string
  2373 ;;                   _p1503_barramento
  2374 ;;                    _p1503_analogico
  2375 ;;                      _reles_cmd_arg
  2376 ;;                          _debug_lcd
  2377 ;;                             _printf
  2378 ;; ---------------------------------------------------------------------------------
  2379 ;; (1) _uart_hard_fim                                        3     3      0     508
  2380 ;;                                             13 BANK0      3     3      0
  2381 ;;                          _debug_lcd
  2382 ;;                         _lcd_string
  2383 ;;                              _putch
  2384 ;; ---------------------------------------------------------------------------------
  2385 ;; (1) _homem_animacao                                       1     1      0    5693
  2386 ;;                                             27 BANK0      1     1      0
  2387 ;;                          _lcd_clear
  2388 ;;                       _homem_inicio
  2389 ;;               _homem_corre_esquerda
  2390 ;;                 _homem_vira_direita
  2391 ;;                _homem_corre_direita
  2392 ;;                _homem_vira_esquerda
  2393 ;;                         _lcd_string
  2394 ;; ---------------------------------------------------------------------------------
  2395 ;; (2) _homem_vira_esquerda                                  9     9      0    1044
  2396 ;;                                             17 BANK0      9     9      0
  2397 ;;                          _lcd_clear
  2398 ;;                         _lcd_string
  2399 ;;                      _lcd_novo_char
  2400 ;;                   _lcd_cursor_ddram
  2401 ;;                          _lcd_putch
  2402 ;; ---------------------------------------------------------------------------------
  2403 ;; (2) _homem_corre_direita                                 10    10      0    1313
  2404 ;;                                             17 BANK0     10    10      0
  2405 ;;                          _lcd_clear
  2406 ;;                         _lcd_string
  2407 ;;                      _lcd_novo_char
  2408 ;;                   _lcd_cursor_ddram
  2409 ;;                          _lcd_putch
  2410 ;; ---------------------------------------------------------------------------------
  2411 ;; (2) _homem_vira_direita                                   9     9      0    1044
  2412 ;;                                             17 BANK0      9     9      0
  2413 ;;                          _lcd_clear
  2414 ;;                         _lcd_string
  2415 ;;                      _lcd_novo_char
  2416 ;;                   _lcd_cursor_ddram
  2417 ;;                          _lcd_putch
  2418 ;; ---------------------------------------------------------------------------------
  2419 ;; (2) _homem_corre_esquerda                                10    10      0    1313
  2420 ;;                                             17 BANK0     10    10      0
  2421 ;;                          _lcd_clear
  2422 ;;                         _lcd_string
  2423 ;;                      _lcd_novo_char
  2424 ;;                   _lcd_cursor_ddram
  2425 ;;                          _lcd_putch
  2426 ;; ---------------------------------------------------------------------------------
  2427 ;; (2) _homem_inicio                                         7     7      0     736
  2428 ;;                                             17 BANK0      7     7      0
  2429 ;;                         _lcd_string
  2430 ;;                      _lcd_novo_char
  2431 ;;                   _lcd_cursor_ddram
  2432 ;;                          _lcd_putch
  2433 ;; ---------------------------------------------------------------------------------
  2434 ;; (3) _protocolo_lcd                                        3     3      0    1410
  2435 ;;                                             26 BANK0      3     3      0
  2436 ;;                             _printf
  2437 ;;                         _lcd_string
  2438 ;; ---------------------------------------------------------------------------------
  2439 ;; (2) _debug_lcd                                            6     1      5     287
  2440 ;;                                              7 BANK0      6     1      5
  2441 ;;                         _lcd_string
  2442 ;; ---------------------------------------------------------------------------------
  2443 ;; (1) _p1503_loop                                           3     3      0     289
  2444 ;;                                              7 BANK0      3     3      0
  2445 ;;                       _uart_tx_soft
  2446 ;;                         _lcd_string
  2447 ;; ---------------------------------------------------------------------------------
  2448 ;; (1) _main_msg_inicial                                     1     1      0     601
  2449 ;;                                             20 BANK0      1     1      0
  2450 ;;                         _cria_rosto
  2451 ;;                         _lcd_string
  2452 ;; ---------------------------------------------------------------------------------
  2453 ;; (2) _lcd_string                                           3     0      3     199
  2454 ;;                                              4 BANK0      3     0      3
  2455 ;;                           _lcd_goto
  2456 ;;                          _lcd_putch
  2457 ;; ---------------------------------------------------------------------------------
  2458 ;; (2) _cria_rosto                                           3     2      1     402
  2459 ;;                                             17 BANK0      3     2      1
  2460 ;;                      _lcd_novo_char
  2461 ;;                   _lcd_cursor_ddram
  2462 ;;                          _lcd_putch
  2463 ;; ---------------------------------------------------------------------------------
  2464 ;; (1) _lcd_init                                             2     2      0      88
  2465 ;;                                              5 BANK0      2     2      0
  2466 ;;                          _lcd_write
  2467 ;;                          _lcd_clear
  2468 ;; ---------------------------------------------------------------------------------
  2469 ;; (3) _lcd_goto                                             1     1      0      66
  2470 ;;                                              3 BANK0      1     1      0
  2471 ;;                          _lcd_write
  2472 ;; ---------------------------------------------------------------------------------
  2473 ;; (3) _lcd_clear                                            2     2      0      44
  2474 ;;                                              3 BANK0      2     2      0
  2475 ;;                          _lcd_write
  2476 ;; ---------------------------------------------------------------------------------
  2477 ;; (3) _lcd_putch                                            1     1      0      66
  2478 ;;                                              3 BANK0      1     1      0
  2479 ;;                          _lcd_write
  2480 ;; ---------------------------------------------------------------------------------
  2481 ;; (3) _lcd_cursor_ddram                                    14    13      1     135
  2482 ;;                                              3 BANK0     14    13      1
  2483 ;;                          _lcd_write
  2484 ;; ---------------------------------------------------------------------------------
  2485 ;; (3) _lcd_novo_char                                        5     3      2     157
  2486 ;;                                              3 BANK0      5     3      2
  2487 ;;                          _lcd_write
  2488 ;; ---------------------------------------------------------------------------------
  2489 ;; (1) _p1503_init                                           3     3      0     134
  2490 ;;                                              3 BANK0      3     3      0
  2491 ;;                       _uart_tx_soft
  2492 ;;                      _p1503_cmd_arg
  2493 ;;                 _p1503_envia_pacote
  2494 ;; ---------------------------------------------------------------------------------
  2495 ;; (3) _p1503_analogico                                      2     2      0      66
  2496 ;;                                              3 BANK0      2     2      0
  2497 ;;                      _p1503_cmd_arg
  2498 ;; ---------------------------------------------------------------------------------
  2499 ;; (3) _printf                                              18    12      6    1167
  2500 ;;                                              8 BANK0     18    12      6
  2501 ;;                              _putch
  2502 ;;                            _isdigit
  2503 ;;                             ___wmul
  2504 ;;                            ___lwdiv
  2505 ;; ---------------------------------------------------------------------------------
  2506 ;; (2) _uart_tx_soft                                         3     3      0      90
  2507 ;;                                              0 BANK0      3     3      0
  2508 ;; ---------------------------------------------------------------------------------
  2509 ;; (4) _lcd_write                                            3     3      0      44
  2510 ;;                                              0 BANK0      3     3      0
  2511 ;; ---------------------------------------------------------------------------------
  2512 ;; (1) _uart_init                                            0     0      0       0
  2513 ;;                 _uart_init_hardware
  2514 ;;                 _uart_init_software
  2515 ;; ---------------------------------------------------------------------------------
  2516 ;; (4) ___lwdiv                                              8     4      4     162
  2517 ;;                                              0 BANK0      8     4      4
  2518 ;; ---------------------------------------------------------------------------------
  2519 ;; (4) ___wmul                                               6     2      4      92
  2520 ;;                                              0 BANK0      6     2      4
  2521 ;; ---------------------------------------------------------------------------------
  2522 ;; (4) _isdigit                                              2     2      0      68
  2523 ;;                                              0 BANK0      2     2      0
  2524 ;; ---------------------------------------------------------------------------------
  2525 ;; (2) _p1503_envia_pacote                                   1     1      0       0
  2526 ;;                                              0 BANK0      1     1      0
  2527 ;; ---------------------------------------------------------------------------------
  2528 ;; (4) _p1503_cmd_arg                                        3     2      1      44
  2529 ;;                                              0 BANK0      3     2      1
  2530 ;; ---------------------------------------------------------------------------------
  2531 ;; (3) _reles_cmd_arg                                        2     1      1      44
  2532 ;;                                              0 BANK0      2     1      1
  2533 ;; ---------------------------------------------------------------------------------
  2534 ;; (3) _p1503_barramento                                     0     0      0       0
  2535 ;; ---------------------------------------------------------------------------------
  2536 ;; (2) _putch                                                1     1      0      22
  2537 ;;                                              0 BANK0      1     1      0
  2538 ;; ---------------------------------------------------------------------------------
  2539 ;; (2) _uart_init_software                                   0     0      0       0
  2540 ;; ---------------------------------------------------------------------------------
  2541 ;; (2) _uart_init_hardware                                   0     0      0       0
  2542 ;; ---------------------------------------------------------------------------------
  2543 ;; (1) _reles_init                                           0     0      0       0
  2544 ;; ---------------------------------------------------------------------------------
  2545 ;; (1) _debug_init                                           0     0      0       0
  2546 ;; ---------------------------------------------------------------------------------
  2547 ;; Estimated maximum stack depth 4
  2548 ;; ---------------------------------------------------------------------------------
  2549 ;; (Depth) Function   	        Calls       Base Space   Used Autos Params    Refs
  2550 ;; ---------------------------------------------------------------------------------
  2551 ;; (7) __isr                                                 5     5      0      60
  2552 ;;                                              4 COMMON     5     5      0
  2553 ;;                       _uart_rx_soft
  2554 ;; ---------------------------------------------------------------------------------
  2555 ;; (8) _uart_rx_soft                                         4     4      0      60
  2556 ;;                                              0 COMMON     4     4      0
  2557 ;; ---------------------------------------------------------------------------------
  2558 ;; Estimated maximum stack depth 8
  2559 ;; ---------------------------------------------------------------------------------
  2560                           
  2561 ;; Call Graph Graphs:
  2562                           
  2563 ;; _main (ROOT)
  2564 ;;   _debug_init
  2565 ;;   _reles_init
  2566 ;;   _uart_init
  2567 ;;     _uart_init_hardware
  2568 ;;     _uart_init_software
  2569 ;;   _lcd_init
  2570 ;;     _lcd_write
  2571 ;;     _lcd_clear
  2572 ;;       _lcd_write
  2573 ;;   _main_msg_inicial
  2574 ;;     _cria_rosto
  2575 ;;       _lcd_novo_char
  2576 ;;         _lcd_write
  2577 ;;       _lcd_cursor_ddram
  2578 ;;         _lcd_write
  2579 ;;       _lcd_putch
  2580 ;;         _lcd_write
  2581 ;;     _lcd_string
  2582 ;;       _lcd_goto
  2583 ;;         _lcd_write
  2584 ;;       _lcd_putch
  2585 ;;         _lcd_write
  2586 ;;   _p1503_init
  2587 ;;     _uart_tx_soft
  2588 ;;     _p1503_cmd_arg
  2589 ;;     _p1503_envia_pacote
  2590 ;;   _homem_animacao
  2591 ;;     _lcd_clear
  2592 ;;       _lcd_write
  2593 ;;     _homem_inicio
  2594 ;;       _lcd_string
  2595 ;;         _lcd_goto
  2596 ;;           _lcd_write
  2597 ;;         _lcd_putch
  2598 ;;           _lcd_write
  2599 ;;       _lcd_novo_char
  2600 ;;         _lcd_write
  2601 ;;       _lcd_cursor_ddram
  2602 ;;         _lcd_write
  2603 ;;       _lcd_putch
  2604 ;;         _lcd_write
  2605 ;;     _homem_corre_esquerda
  2606 ;;       _lcd_clear
  2607 ;;         _lcd_write
  2608 ;;       _lcd_string
  2609 ;;         _lcd_goto
  2610 ;;           _lcd_write
  2611 ;;         _lcd_putch
  2612 ;;           _lcd_write
  2613 ;;       _lcd_novo_char
  2614 ;;         _lcd_write
  2615 ;;       _lcd_cursor_ddram
  2616 ;;         _lcd_write
  2617 ;;       _lcd_putch
  2618 ;;         _lcd_write
  2619 ;;     _homem_vira_direita
  2620 ;;       _lcd_clear
  2621 ;;         _lcd_write
  2622 ;;       _lcd_string
  2623 ;;         _lcd_goto
  2624 ;;           _lcd_write
  2625 ;;         _lcd_putch
  2626 ;;           _lcd_write
  2627 ;;       _lcd_novo_char
  2628 ;;         _lcd_write
  2629 ;;       _lcd_cursor_ddram
  2630 ;;         _lcd_write
  2631 ;;       _lcd_putch
  2632 ;;         _lcd_write
  2633 ;;     _homem_corre_direita
  2634 ;;       _lcd_clear
  2635 ;;         _lcd_write
  2636 ;;       _lcd_string
  2637 ;;         _lcd_goto
  2638 ;;           _lcd_write
  2639 ;;         _lcd_putch
  2640 ;;           _lcd_write
  2641 ;;       _lcd_novo_char
  2642 ;;         _lcd_write
  2643 ;;       _lcd_cursor_ddram
  2644 ;;         _lcd_write
  2645 ;;       _lcd_putch
  2646 ;;         _lcd_write
  2647 ;;     _homem_vira_esquerda
  2648 ;;       _lcd_clear
  2649 ;;         _lcd_write
  2650 ;;       _lcd_string
  2651 ;;         _lcd_goto
  2652 ;;           _lcd_write
  2653 ;;         _lcd_putch
  2654 ;;           _lcd_write
  2655 ;;       _lcd_novo_char
  2656 ;;         _lcd_write
  2657 ;;       _lcd_cursor_ddram
  2658 ;;         _lcd_write
  2659 ;;       _lcd_putch
  2660 ;;         _lcd_write
  2661 ;;     _lcd_string
  2662 ;;       _lcd_goto
  2663 ;;         _lcd_write
  2664 ;;       _lcd_putch
  2665 ;;         _lcd_write
  2666 ;;   _p1503_loop
  2667 ;;     _uart_tx_soft
  2668 ;;     _lcd_string
  2669 ;;       _lcd_goto
  2670 ;;         _lcd_write
  2671 ;;       _lcd_putch
  2672 ;;         _lcd_write
  2673 ;;   _protocolo_cmd
  2674 ;;     _printf
  2675 ;;       _putch
  2676 ;;       _isdigit
  2677 ;;       ___wmul
  2678 ;;       ___lwdiv
  2679 ;;     _protocolo_ver_cmd
  2680 ;;       _protocolo_lcd
  2681 ;;         _printf
  2682 ;;           _putch
  2683 ;;           _isdigit
  2684 ;;           ___wmul
  2685 ;;           ___lwdiv
  2686 ;;         _lcd_string
  2687 ;;           _lcd_goto
  2688 ;;             _lcd_write
  2689 ;;           _lcd_putch
  2690 ;;             _lcd_write
  2691 ;;       _lcd_string
  2692 ;;         _lcd_goto
  2693 ;;           _lcd_write
  2694 ;;         _lcd_putch
  2695 ;;           _lcd_write
  2696 ;;       _p1503_barramento
  2697 ;;       _p1503_analogico
  2698 ;;         _p1503_cmd_arg
  2699 ;;       _reles_cmd_arg
  2700 ;;       _debug_lcd
  2701 ;;         _lcd_string
  2702 ;;           _lcd_goto
  2703 ;;             _lcd_write
  2704 ;;           _lcd_putch
  2705 ;;             _lcd_write
  2706 ;;       _printf
  2707 ;;         _putch
  2708 ;;         _isdigit
  2709 ;;         ___wmul
  2710 ;;         ___lwdiv
  2711 ;;   _uart_hard_fim
  2712 ;;     _debug_lcd
  2713 ;;       _lcd_string
  2714 ;;         _lcd_goto
  2715 ;;           _lcd_write
  2716 ;;         _lcd_putch
  2717 ;;           _lcd_write
  2718 ;;     _lcd_string
  2719 ;;       _lcd_goto
  2720 ;;         _lcd_write
  2721 ;;       _lcd_putch
  2722 ;;         _lcd_write
  2723 ;;     _putch
  2724 ;;
  2725 ;; __isr (ROOT)
  2726 ;;   _uart_rx_soft
  2727 ;;
  2728                           
  2729 ;; Address spaces:
  2730                           
  2731 ;;Name               Size   Autos  Total    Cost      Usage
  2732 ;;BANK3               60      0       0      10        0.0%
  2733 ;;BITBANK3            60      0       0       9        0.0%
  2734 ;;SFR3                 0      0       0       4        0.0%
  2735 ;;BITSFR3              0      0       0       4        0.0%
  2736 ;;BANK2               60      0       0      12        0.0%
  2737 ;;BITBANK2            60      0       0      11        0.0%
  2738 ;;SFR2                 0      0       0       5        0.0%
  2739 ;;BITSFR2              0      0       0       5        0.0%
  2740 ;;SFR1                 0      0       0       2        0.0%
  2741 ;;BITSFR1              0      0       0       2        0.0%
  2742 ;;BANK1               50      0      12       8       22.5%
  2743 ;;BITBANK1            50      0       0       7        0.0%
  2744 ;;CODE                 0      0       0       0        0.0%
  2745 ;;DATA                 0      0      78       6        0.0%
  2746 ;;ABS                  0      0      6E       3        0.0%
  2747 ;;NULL                 0      0       0       0        0.0%
  2748 ;;STACK                0      0       A       2        0.0%
  2749 ;;BANK0               50     28      4E       5       97.5%
  2750 ;;BITBANK0            50      0       0       4        0.0%
  2751 ;;SFR0                 0      0       0       1        0.0%
  2752 ;;BITSFR0              0      0       0       1        0.0%
  2753 ;;COMMON               E      9       E       1      100.0%
  2754 ;;BITCOMMON            E      0       0       0        0.0%
  2755                           
  2756                           	global	_main
  2757                           psect	maintext,global,class=CODE,delta=2
  2758                           global __pmaintext
  2759  117E                     __pmaintext:
  2760                           
  2761 ;; *************** function _main *****************
  2762 ;; Defined at:
  2763 ;;		line 70 in file "main.c"
  2764 ;; Parameters:    Size  Location     Type
  2765 ;;		None
  2766 ;; Auto vars:     Size  Location     Type
  2767 ;;		None
  2768 ;; Return value:  Size  Location     Type
  2769 ;;		None               void
  2770 ;; Registers used:
  2771 ;;		wreg, fsr0l, fsr0h, status,2, status,0, btemp+1, pclath, cstack
  2772 ;; Tracked objects:
  2773 ;;		On entry : 17F/0
  2774 ;;		On exit  : 0/0
  2775 ;;		Unchanged: 0/0
  2776 ;; Data sizes:     COMMON   BANK0   BANK1   BANK3   BANK2
  2777 ;;      Params:         0       0       0       0       0
  2778 ;;      Locals:         0       0       0       0       0
  2779 ;;      Temps:          0       3       0       0       0
  2780 ;;      Totals:         0       3       0       0       0
  2781 ;;Total ram usage:        3 bytes
  2782 ;; Hardware stack levels required when called:    8
  2783 ;; This function calls:
  2784 ;;		_debug_init
  2785 ;;		_reles_init
  2786 ;;		_uart_init
  2787 ;;		_lcd_init
  2788 ;;		_main_msg_inicial
  2789 ;;		_p1503_init
  2790 ;;		_homem_animacao
  2791 ;;		_p1503_loop
  2792 ;;		_protocolo_cmd
  2793 ;;		_uart_hard_fim
  2794 ;; This function is called by:
  2795 ;;		Startup code after reset
  2796 ;; This function uses a non-reentrant model
  2797 ;;
  2798                           psect	maintext
  2799                           	file	"main.c"
  2800                           	line	70
  2801                           	global	__size_of_main
  2802  006A                     	__size_of_main	equ	__end_of_main-_main
  2803                           	
  2804  117E                     _main:	
  2805                           	opt	stack 0
  2806                           ; Regs used in _main: [wreg-fsr0h+status,2+status,0+btemp+1+pclath+cstack]
  2807                           	line	71
  2808                           	
  2809  117E                     l8670:	
  2810                           ;main.c: 71: _delay((unsigned long)((50)*(20000000/4000.0)));
  2811                           	opt asmopt_off
  2812  117E  3002               movlw  2
  2813  117F  1283               	bcf	status, 5	;RP0=0, select bank0
  2814  1180  1303               	bcf	status, 6	;RP1=0, select bank0
  2815  1181  00C7               movwf	((??_main+0)+0+2),f
  2816  1182  3045               movlw	69
  2817  1183  00C6               movwf	((??_main+0)+0+1),f
  2818  1184  30A9               	movlw	169
  2819  1185  00C5               movwf	((??_main+0)+0),f
  2820  1186                     u3607:
  2821  1186  0BC5               	decfsz	((??_main+0)+0),f
  2822  1187  2986               	goto	u3607
  2823  1188  0BC6               	decfsz	((??_main+0)+0+1),f
  2824  1189  2986               	goto	u3607
  2825  118A  0BC7               	decfsz	((??_main+0)+0+2),f
  2826  118B  2986               	goto	u3607
  2827  118C  298D               	nop2
  2828                           opt asmopt_on
  2829                           
  2830                           	line	74
  2831                           	
  2832  118D                     l8672:	
  2833                           ;main.c: 74: (TRISC0 = 0);
  2834  118D  1683               	bsf	status, 5	;RP0=1, select bank1
  2835  118E  1303               	bcf	status, 6	;RP1=0, select bank1
  2836  118F  1007               	bcf	(1080/8)^080h,(1080)&7
  2837                           	line	76
  2838                           	
  2839  1190                     l8674:	
  2840                           ;main.c: 76: (RC0 = 0);
  2841  1190  1283               	bcf	status, 5	;RP0=0, select bank0
  2842  1191  1303               	bcf	status, 6	;RP1=0, select bank0
  2843  1192  1007               	bcf	(56/8),(56)&7
  2844                           	line	80
  2845                           	
  2846  1193                     l8676:	
  2847                           ;main.c: 80: debug_init();
  2848  1193  160A  158A  2549   	fcall	_debug_init
              160A  118A         
  2849                           	line	84
  2850                           	
  2851  1198                     l8678:	
  2852                           ;main.c: 84: (protocolo.contexto = 0);
  2853  1198  30FC               	movlw	((0 & ((1<<2)-1))<<0)|not (((1<<2)-1)<<0)
  2854  1199  1283               	bcf	status, 5	;RP0=0, select bank0
  2855  119A  1303               	bcf	status, 6	;RP1=0, select bank0
  2856  119B  05CD               	andwf	(_protocolo),f	;volatile
  2857                           	line	89
  2858                           	
  2859  119C                     l8680:	
  2860                           ;main.c: 89: reles_init();
  2861  119C  160A  158A  259A   	fcall	_reles_init
              160A  118A         
  2862                           	line	92
  2863                           	
  2864  11A1                     l8682:	
  2865                           ;main.c: 92: uart_init();
  2866  11A1  160A  158A  25B4   	fcall	_uart_init
              160A  118A         
  2867                           	line	95
  2868                           	
  2869  11A6                     l8684:	
  2870                           ;main.c: 95: lcd_init();
  2871  11A6  160A  118A  21E8   	fcall	_lcd_init
              160A  118A         
  2872                           	line	98
  2873                           	
  2874  11AB                     l8686:	
  2875                           ;main.c: 98: { PEIE = 1; GIE = 1; };
  2876  11AB  170B               	bsf	(94/8),(94)&7
  2877                           	
  2878  11AC                     l8688:	
  2879  11AC  178B               	bsf	(95/8),(95)&7
  2880                           	line	101
  2881                           	
  2882  11AD                     l8690:	
  2883                           ;main.c: 101: main_msg_inicial();
  2884  11AD  120A  118A  20D7   	fcall	_main_msg_inicial
              160A  118A         
  2885                           	line	104
  2886                           	
  2887  11B2                     l8692:	
  2888                           ;main.c: 104: p1503_init();
  2889  11B2  160A  158A  27BA   	fcall	_p1503_init
              160A  118A         
  2890                           	line	106
  2891                           	
  2892  11B7                     l8694:	
  2893                           ;main.c: 106: (RC0 = 1);
  2894  11B7  1283               	bcf	status, 5	;RP0=0, select bank0
  2895  11B8  1303               	bcf	status, 6	;RP1=0, select bank0
  2896  11B9  1407               	bsf	(56/8),(56)&7
  2897                           	line	108
  2898                           	
  2899  11BA                     l8696:	
  2900                           ;main.c: 108: _delay((unsigned long)((500)*(20000000/4000.0)));
  2901                           	opt asmopt_off
  2902  11BA  300D               movlw  13
  2903  11BB  00C7               movwf	((??_main+0)+0+2),f
  2904  11BC  30AF               movlw	175
  2905  11BD  00C6               movwf	((??_main+0)+0+1),f
  2906  11BE  30C1               	movlw	193
  2907  11BF  00C5               movwf	((??_main+0)+0),f
  2908  11C0                     u3617:
  2909  11C0  0BC5               	decfsz	((??_main+0)+0),f
  2910  11C1  29C0               	goto	u3617
  2911  11C2  0BC6               	decfsz	((??_main+0)+0+1),f
  2912  11C3  29C0               	goto	u3617
  2913  11C4  0BC7               	decfsz	((??_main+0)+0+2),f
  2914  11C5  29C0               	goto	u3617
  2915  11C6  0064               	clrwdt
  2916                           opt asmopt_on
  2917                           
  2918  11C7  29C8               	goto	l8698
  2919                           	line	111
  2920                           ;main.c: 111: while(1){
  2921                           	
  2922  11C8                     l803:	
  2923                           	line	112
  2924                           	
  2925  11C8                     l8698:	
  2926                           ;main.c: 112: if(RC1 == 0){
  2927  11C8  1283               	bcf	status, 5	;RP0=0, select bank0
  2928  11C9  1303               	bcf	status, 6	;RP1=0, select bank0
  2929  11CA  1887               	btfsc	(57/8),(57)&7
  2930  11CB  29CD               	goto	u3591
  2931  11CC  29CE               	goto	u3590
  2932  11CD                     u3591:
  2933  11CD  29D4               	goto	l804
  2934  11CE                     u3590:
  2935                           	line	113
  2936                           	
  2937  11CE                     l8700:	
  2938                           ;main.c: 113: (RC0 = 1);
  2939  11CE  1407               	bsf	(56/8),(56)&7
  2940                           	line	114
  2941                           	
  2942  11CF                     l8702:	
  2943                           ;main.c: 114: homem_animacao();
  2944  11CF  160A  118A  2002   	fcall	_homem_animacao
              160A  118A         
  2945                           	line	115
  2946                           	
  2947  11D4                     l804:	
  2948                           	line	117
  2949                           ;main.c: 115: }
  2950                           ;main.c: 117: p1503_loop();
  2951  11D4  160A  118A  22CD   	fcall	_p1503_loop
              160A  118A         
  2952                           	line	119
  2953                           ;main.c: 119: protocolo_cmd();
  2954  11D9  120A  118A  2015   	fcall	_protocolo_cmd
              160A  118A         
  2955                           	line	121
  2956                           ;main.c: 121: uart_hard_fim();
  2957  11DE  160A  118A  211D   	fcall	_uart_hard_fim
              160A  118A         
  2958  11E3  29C8               	goto	l8698
  2959                           	line	122
  2960                           	
  2961  11E4                     l805:	
  2962                           	line	111
  2963  11E4  29C8               	goto	l8698
  2964                           	
  2965  11E5                     l806:	
  2966                           	line	123
  2967                           	
  2968  11E5                     l807:	
  2969                           	global	start
  2970  11E5  120A  118A  2812   	ljmp	start
  2971                           	opt stack 0
  2972                           GLOBAL	__end_of_main
  2973  11E8                     	__end_of_main:
  2974 ;; =============== function _main ends ============
  2975                           
  2976                           	signat	_main,88
  2977                           	global	_protocolo_cmd
  2978                           psect	text947,local,class=CODE,delta=2
  2979                           global __ptext947
  2980  0015                     __ptext947:
  2981                           
  2982 ;; *************** function _protocolo_cmd *****************
  2983 ;; Defined at:
  2984 ;;		line 52 in file "protocolo.c"
  2985 ;; Parameters:    Size  Location     Type
  2986 ;;		None
  2987 ;; Auto vars:     Size  Location     Type
  2988 ;;		None
  2989 ;; Return value:  Size  Location     Type
  2990 ;;		None               void
  2991 ;; Registers used:
  2992 ;;		wreg, fsr0l, fsr0h, status,2, status,0, btemp+1, pclath, cstack
  2993 ;; Tracked objects:
  2994 ;;		On entry : 0/0
  2995 ;;		On exit  : 0/0
  2996 ;;		Unchanged: 0/0
  2997 ;; Data sizes:     COMMON   BANK0   BANK1   BANK3   BANK2
  2998 ;;      Params:         0       0       0       0       0
  2999 ;;      Locals:         0       0       0       0       0
  3000 ;;      Temps:          0       4       0       0       0
  3001 ;;      Totals:         0       4       0       0       0
  3002 ;;Total ram usage:        4 bytes
  3003 ;; Hardware stack levels used:    1
  3004 ;; Hardware stack levels required when called:    7
  3005 ;; This function calls:
  3006 ;;		_printf
  3007 ;;		_protocolo_ver_cmd
  3008 ;; This function is called by:
  3009 ;;		_main
  3010 ;; This function uses a non-reentrant model
  3011 ;;
  3012                           psect	text947
  3013                           	file	"protocolo.c"
  3014                           	line	52
  3015                           	global	__size_of_protocolo_cmd
  3016  00C2                     	__size_of_protocolo_cmd	equ	__end_of_protocolo_cmd-_protocolo_cmd
  3017                           	
  3018  0015                     _protocolo_cmd:	
  3019                           	opt	stack 0
  3020                           ; Regs used in _protocolo_cmd: [wreg-fsr0h+status,2+status,0+btemp+1+pclath+cstack]
  3021                           	line	55
  3022                           	
  3023  0015                     l8624:	
  3024                           ;protocolo.c: 53: static unsigned char a = 0;
  3025                           ;protocolo.c: 55: switch((protocolo.contexto)){
  3026  0015  28C8               	goto	l8668
  3027                           	line	57
  3028                           ;protocolo.c: 57: case 0:
  3029                           	
  3030  0016                     l2891:	
  3031                           	line	59
  3032                           ;protocolo.c: 59: if(!(uart.novo)) return;
  3033  0016  1979               	btfsc	(_uart),2	;volatile
  3034  0017  2819               	goto	u3521
  3035  0018  281A               	goto	u3520
  3036  0019                     u3521:
  3037  0019  281C               	goto	l2892
  3038  001A                     u3520:
  3039  001A  28D6               	goto	l2893
  3040                           	
  3041  001B                     l8626:	
  3042  001B  28D6               	goto	l2893
  3043                           	
  3044  001C                     l2892:	
  3045                           	line	61
  3046                           ;protocolo.c: 61: (RC0 = 0);
  3047  001C  1007               	bcf	(56/8),(56)&7
  3048                           	line	64
  3049                           	
  3050  001D                     l8628:	
  3051                           ;protocolo.c: 64: (protocolo.cmd) = (uart.buffer);
  3052  001D  087A               	movf	0+(_uart)+01h,w	;volatile
  3053  001E  00C1               	movwf	(??_protocolo_cmd+0)+0
  3054  001F  0841               	movf	(??_protocolo_cmd+0)+0,w
  3055  0020  00CE               	movwf	0+(_protocolo)+01h	;volatile
  3056                           	line	65
  3057                           	
  3058  0021                     l8630:	
  3059                           ;protocolo.c: 65: (uart.proc = 1);
  3060  0021  15F9               	bsf	(_uart),3	;volatile
  3061                           	line	67
  3062                           ;protocolo.c: 67: if((protocolo.cmd) == 0xFF){
  3063  0022  084E               	movf	0+(_protocolo)+01h,w	;volatile
  3064  0023  3AFF               	xorlw	0FFh
  3065  0024  1D03               	skipz
  3066  0025  2827               	goto	u3531
  3067  0026  2828               	goto	u3530
  3068  0027                     u3531:
  3069  0027  282C               	goto	l8636
  3070  0028                     u3530:
  3071                           	line	68
  3072                           	
  3073  0028                     l8632:	
  3074                           ;protocolo.c: 68: (protocolo.contexto) = 0;
  3075  0028  30FC               	movlw	((0 & ((1<<2)-1))<<0)|not (((1<<2)-1)<<0)
  3076  0029  05CD               	andwf	(_protocolo),f	;volatile
  3077  002A  28D6               	goto	l2893
  3078                           	line	69
  3079                           	
  3080  002B                     l8634:	
  3081                           ;protocolo.c: 69: return;
  3082  002B  28D6               	goto	l2893
  3083                           	line	70
  3084                           	
  3085  002C                     l2894:	
  3086                           	line	72
  3087                           	
  3088  002C                     l8636:	
  3089                           ;protocolo.c: 70: }
  3090                           ;protocolo.c: 72: (protocolo.contexto)++;
  3091  002C  084D               	movf	(_protocolo),w	;volatile
  3092  002D  3903               	andlw	(1<<2)-1
  3093  002E  00C1               	movwf	((??_protocolo_cmd+0)+0)
  3094  002F  0AC1               	incf	(??_protocolo_cmd+0)+0
  3095  0030  084D               	movf	(_protocolo),w	;volatile
  3096  0031  0641               	xorwf	((??_protocolo_cmd+0)+0),w
  3097  0032  39FC               	andlw	not ((1<<2)-1)
  3098  0033  0641               	xorwf	((??_protocolo_cmd+0)+0),w
  3099  0034  00CD               	movwf	(_protocolo)	;volatile
  3100                           	line	75
  3101                           	
  3102  0035                     l8638:	
  3103                           ;protocolo.c: 75: if((debug.print)){
  3104  0035  1683               	bsf	status, 5	;RP0=1, select bank1
  3105  0036  1303               	bcf	status, 6	;RP1=0, select bank1
  3106  0037  1E20               	btfss	(_debug)^080h,4	;volatile
  3107  0038  283A               	goto	u3541
  3108  0039  283B               	goto	u3540
  3109  003A                     u3541:
  3110  003A  28D6               	goto	l2893
  3111  003B                     u3540:
  3112                           	line	76
  3113                           	
  3114  003B                     l8640:	
  3115                           ;protocolo.c: 76: printf("\r\ncmd:");
  3116  003B  309A               	movlw	low(STR_7|8000h)
  3117  003C  1283               	bcf	status, 5	;RP0=0, select bank0
  3118  003D  1303               	bcf	status, 6	;RP1=0, select bank0
  3119  003E  00A8               	movwf	(?_printf)
  3120  003F  3084               	movlw	high(STR_7|8000h)
  3121  0040  00A9               	movwf	((?_printf))+1
  3122  0041  160A  118A  236D   	fcall	_printf
              120A  118A         
  3123                           	line	77
  3124                           ;protocolo.c: 77: printf("\r\n%c = 0x%x", (protocolo.cmd), (protocolo.cmd));
  3125  0046  307D               	movlw	low(STR_8|8000h)
  3126  0047  1283               	bcf	status, 5	;RP0=0, select bank0
  3127  0048  1303               	bcf	status, 6	;RP1=0, select bank0
  3128  0049  00A8               	movwf	(?_printf)
  3129  004A  3084               	movlw	high(STR_8|8000h)
  3130  004B  00A9               	movwf	((?_printf))+1
  3131  004C  084E               	movf	0+(_protocolo)+01h,w	;volatile
  3132  004D  00C1               	movwf	(??_protocolo_cmd+0)+0
  3133  004E  01C2               	clrf	(??_protocolo_cmd+0)+0+1
  3134  004F  0841               	movf	0+(??_protocolo_cmd+0)+0,w
  3135  0050  00AA               	movwf	0+(?_printf)+02h
  3136  0051  0842               	movf	1+(??_protocolo_cmd+0)+0,w
  3137  0052  00AB               	movwf	1+(?_printf)+02h
  3138  0053  084E               	movf	0+(_protocolo)+01h,w	;volatile
  3139  0054  00C3               	movwf	(??_protocolo_cmd+2)+0
  3140  0055  01C4               	clrf	(??_protocolo_cmd+2)+0+1
  3141  0056  0843               	movf	0+(??_protocolo_cmd+2)+0,w
  3142  0057  00AC               	movwf	0+(?_printf)+04h
  3143  0058  0844               	movf	1+(??_protocolo_cmd+2)+0,w
  3144  0059  00AD               	movwf	1+(?_printf)+04h
  3145  005A  160A  118A  236D   	fcall	_printf
              120A  118A         
  3146  005F  28D6               	goto	l2893
  3147                           	line	78
  3148                           	
  3149  0060                     l2895:	
  3150                           	line	81
  3151                           ;protocolo.c: 78: }
  3152                           ;protocolo.c: 81: break;
  3153  0060  28D6               	goto	l2893
  3154                           	line	84
  3155                           ;protocolo.c: 84: case 1:
  3156                           	
  3157  0061                     l2897:	
  3158                           	line	85
  3159                           ;protocolo.c: 85: if(!(uart.novo)) return;
  3160  0061  1979               	btfsc	(_uart),2	;volatile
  3161  0062  2864               	goto	u3551
  3162  0063  2865               	goto	u3550
  3163  0064                     u3551:
  3164  0064  2867               	goto	l8644
  3165  0065                     u3550:
  3166  0065  28D6               	goto	l2893
  3167                           	
  3168  0066                     l8642:	
  3169  0066  28D6               	goto	l2893
  3170                           	
  3171  0067                     l2898:	
  3172                           	line	87
  3173                           	
  3174  0067                     l8644:	
  3175                           ;protocolo.c: 87: (protocolo.arg) = (uart.buffer);
  3176  0067  087A               	movf	0+(_uart)+01h,w	;volatile
  3177  0068  00C1               	movwf	(??_protocolo_cmd+0)+0
  3178  0069  0841               	movf	(??_protocolo_cmd+0)+0,w
  3179  006A  00CF               	movwf	0+(_protocolo)+02h	;volatile
  3180                           	line	88
  3181                           	
  3182  006B                     l8646:	
  3183                           ;protocolo.c: 88: (uart.proc = 1);
  3184  006B  15F9               	bsf	(_uart),3	;volatile
  3185                           	line	90
  3186                           ;protocolo.c: 90: if((protocolo.arg) == 0xFF){
  3187  006C  084F               	movf	0+(_protocolo)+02h,w	;volatile
  3188  006D  3AFF               	xorlw	0FFh
  3189  006E  1D03               	skipz
  3190  006F  2871               	goto	u3561
  3191  0070  2872               	goto	u3560
  3192  0071                     u3561:
  3193  0071  2876               	goto	l8652
  3194  0072                     u3560:
  3195                           	line	91
  3196                           	
  3197  0072                     l8648:	
  3198                           ;protocolo.c: 91: (protocolo.contexto) = 0;
  3199  0072  30FC               	movlw	((0 & ((1<<2)-1))<<0)|not (((1<<2)-1)<<0)
  3200  0073  05CD               	andwf	(_protocolo),f	;volatile
  3201  0074  28D6               	goto	l2893
  3202                           	line	92
  3203                           	
  3204  0075                     l8650:	
  3205                           ;protocolo.c: 92: return;
  3206  0075  28D6               	goto	l2893
  3207                           	line	93
  3208                           	
  3209  0076                     l2899:	
  3210                           	line	95
  3211                           	
  3212  0076                     l8652:	
  3213                           ;protocolo.c: 93: }
  3214                           ;protocolo.c: 95: (protocolo.contexto)++;
  3215  0076  084D               	movf	(_protocolo),w	;volatile
  3216  0077  3903               	andlw	(1<<2)-1
  3217  0078  00C1               	movwf	((??_protocolo_cmd+0)+0)
  3218  0079  0AC1               	incf	(??_protocolo_cmd+0)+0
  3219  007A  084D               	movf	(_protocolo),w	;volatile
  3220  007B  0641               	xorwf	((??_protocolo_cmd+0)+0),w
  3221  007C  39FC               	andlw	not ((1<<2)-1)
  3222  007D  0641               	xorwf	((??_protocolo_cmd+0)+0),w
  3223  007E  00CD               	movwf	(_protocolo)	;volatile
  3224                           	line	98
  3225                           	
  3226  007F                     l8654:	
  3227                           ;protocolo.c: 98: if((debug.print)){
  3228  007F  1683               	bsf	status, 5	;RP0=1, select bank1
  3229  0080  1303               	bcf	status, 6	;RP1=0, select bank1
  3230  0081  1E20               	btfss	(_debug)^080h,4	;volatile
  3231  0082  2884               	goto	u3571
  3232  0083  2885               	goto	u3570
  3233  0084                     u3571:
  3234  0084  28AB               	goto	l8658
  3235  0085                     u3570:
  3236                           	line	99
  3237                           	
  3238  0085                     l8656:	
  3239                           ;protocolo.c: 99: printf("\r\narg:");
  3240  0085  30A1               	movlw	low(STR_9|8000h)
  3241  0086  1283               	bcf	status, 5	;RP0=0, select bank0
  3242  0087  1303               	bcf	status, 6	;RP1=0, select bank0
  3243  0088  00A8               	movwf	(?_printf)
  3244  0089  3084               	movlw	high(STR_9|8000h)
  3245  008A  00A9               	movwf	((?_printf))+1
  3246  008B  160A  118A  236D   	fcall	_printf
              120A  118A         
  3247                           	line	100
  3248                           ;protocolo.c: 100: printf("\r\n%c = 0x%02x", (protocolo.arg), (protocolo.arg));
  3249  0090  3063               	movlw	low(STR_10|8000h)
  3250  0091  1283               	bcf	status, 5	;RP0=0, select bank0
  3251  0092  1303               	bcf	status, 6	;RP1=0, select bank0
  3252  0093  00A8               	movwf	(?_printf)
  3253  0094  3084               	movlw	high(STR_10|8000h)
  3254  0095  00A9               	movwf	((?_printf))+1
  3255  0096  084F               	movf	0+(_protocolo)+02h,w	;volatile
  3256  0097  00C1               	movwf	(??_protocolo_cmd+0)+0
  3257  0098  01C2               	clrf	(??_protocolo_cmd+0)+0+1
  3258  0099  0841               	movf	0+(??_protocolo_cmd+0)+0,w
  3259  009A  00AA               	movwf	0+(?_printf)+02h
  3260  009B  0842               	movf	1+(??_protocolo_cmd+0)+0,w
  3261  009C  00AB               	movwf	1+(?_printf)+02h
  3262  009D  084F               	movf	0+(_protocolo)+02h,w	;volatile
  3263  009E  00C3               	movwf	(??_protocolo_cmd+2)+0
  3264  009F  01C4               	clrf	(??_protocolo_cmd+2)+0+1
  3265  00A0  0843               	movf	0+(??_protocolo_cmd+2)+0,w
  3266  00A1  00AC               	movwf	0+(?_printf)+04h
  3267  00A2  0844               	movf	1+(??_protocolo_cmd+2)+0,w
  3268  00A3  00AD               	movwf	1+(?_printf)+04h
  3269  00A4  160A  118A  236D   	fcall	_printf
              120A  118A         
  3270  00A9  28AB               	goto	l8658
  3271                           	line	101
  3272                           	
  3273  00AA                     l2900:	
  3274  00AA  28AB               	goto	l8658
  3275                           	line	107
  3276                           ;protocolo.c: 101: }
  3277                           ;protocolo.c: 107: case 2:
  3278                           	
  3279  00AB                     l2901:	
  3280                           	line	110
  3281                           	
  3282  00AB                     l8658:	
  3283                           ;protocolo.c: 110: if((debug.print)){
  3284  00AB  1683               	bsf	status, 5	;RP0=1, select bank1
  3285  00AC  1303               	bcf	status, 6	;RP1=0, select bank1
  3286  00AD  1E20               	btfss	(_debug)^080h,4	;volatile
  3287  00AE  28B0               	goto	u3581
  3288  00AF  28B1               	goto	u3580
  3289  00B0                     u3581:
  3290  00B0  28BC               	goto	l2902
  3291  00B1                     u3580:
  3292                           	line	111
  3293                           	
  3294  00B1                     l8660:	
  3295                           ;protocolo.c: 111: printf("\r\nvendo comando");
  3296  00B1  3045               	movlw	low(STR_11|8000h)
  3297  00B2  1283               	bcf	status, 5	;RP0=0, select bank0
  3298  00B3  1303               	bcf	status, 6	;RP1=0, select bank0
  3299  00B4  00A8               	movwf	(?_printf)
  3300  00B5  3084               	movlw	high(STR_11|8000h)
  3301  00B6  00A9               	movwf	((?_printf))+1
  3302  00B7  160A  118A  236D   	fcall	_printf
              120A  118A         
  3303                           	line	112
  3304                           	
  3305  00BC                     l2902:	
  3306                           	line	116
  3307                           ;protocolo.c: 112: }
  3308                           ;protocolo.c: 116: protocolo_ver_cmd();
  3309  00BC  120A  158A  2010   	fcall	_protocolo_ver_cmd
              120A  118A         
  3310                           	line	118
  3311                           	
  3312  00C1                     l8662:	
  3313                           ;protocolo.c: 118: (protocolo.contexto) = 0;
  3314  00C1  30FC               	movlw	((0 & ((1<<2)-1))<<0)|not (((1<<2)-1)<<0)
  3315  00C2  1283               	bcf	status, 5	;RP0=0, select bank0
  3316  00C3  1303               	bcf	status, 6	;RP1=0, select bank0
  3317  00C4  05CD               	andwf	(_protocolo),f	;volatile
  3318                           	line	120
  3319                           	
  3320  00C5                     l8664:	
  3321                           ;protocolo.c: 120: (RC0 = 1);
  3322  00C5  1407               	bsf	(56/8),(56)&7
  3323                           	line	122
  3324                           ;protocolo.c: 122: break;
  3325  00C6  28D6               	goto	l2893
  3326                           	line	123
  3327                           	
  3328  00C7                     l8666:	
  3329                           ;protocolo.c: 123: }
  3330  00C7  28D6               	goto	l2893
  3331                           	line	55
  3332                           	
  3333  00C8                     l2890:	
  3334                           	
  3335  00C8                     l8668:	
  3336  00C8  1283               	bcf	status, 5	;RP0=0, select bank0
  3337  00C9  1303               	bcf	status, 6	;RP1=0, select bank0
  3338  00CA  084D               	movf	(_protocolo),w	;volatile
  3339  00CB  3903               	andlw	(1<<2)-1
  3340                           	; Switch size 1, requested type "space"
  3341                           ; Number of cases is 3, Range of values is 0 to 2
  3342                           ; switch strategies available:
  3343                           ; Name         Instructions Cycles
  3344                           ; simple_byte           10     6 (average)
  3345                           ; direct_byte           17     8 (fixed)
  3346                           ; jumptable            260     6 (fixed)
  3347                           ; rangetable             7     6 (fixed)
  3348                           ; spacedrange           12     9 (fixed)
  3349                           ; locatedrange           3     3 (fixed)
  3350                           ;	Chosen strategy is simple_byte
  3351                           
  3352                           	opt asmopt_off
  3353  00CC  3A00               	xorlw	0^0	; case 0
  3354  00CD  1903               	skipnz
  3355  00CE  2816               	goto	l2891
  3356  00CF  3A01               	xorlw	1^0	; case 1
  3357  00D0  1903               	skipnz
  3358  00D1  2861               	goto	l2897
  3359  00D2  3A03               	xorlw	2^1	; case 2
  3360  00D3  1903               	skipnz
  3361  00D4  28AB               	goto	l8658
  3362  00D5  28D6               	goto	l2893
  3363                           	opt asmopt_on
  3364                           
  3365                           	line	123
  3366                           	
  3367  00D6                     l2896:	
  3368                           	line	124
  3369                           	
  3370  00D6                     l2893:	
  3371  00D6  0008               	return
  3372                           	opt stack 0
  3373                           GLOBAL	__end_of_protocolo_cmd
  3374  00D7                     	__end_of_protocolo_cmd:
  3375 ;; =============== function _protocolo_cmd ends ============
  3376                           
  3377                           	signat	_protocolo_cmd,88
  3378                           	global	_protocolo_ver_cmd
  3379                           psect	text948,local,class=CODE,delta=2
  3380                           global __ptext948
  3381  0810                     __ptext948:
  3382                           
  3383 ;; *************** function _protocolo_ver_cmd *****************
  3384 ;; Defined at:
  3385 ;;		line 130 in file "protocolo.c"
  3386 ;; Parameters:    Size  Location     Type
  3387 ;;		None
  3388 ;; Auto vars:     Size  Location     Type
  3389 ;;		None
  3390 ;; Return value:  Size  Location     Type
  3391 ;;		None               void
  3392 ;; Registers used:
  3393 ;;		wreg, fsr0l, fsr0h, status,2, status,0, btemp+1, pclath, cstack
  3394 ;; Tracked objects:
  3395 ;;		On entry : 0/0
  3396 ;;		On exit  : 0/0
  3397 ;;		Unchanged: 0/0
  3398 ;; Data sizes:     COMMON   BANK0   BANK1   BANK3   BANK2
  3399 ;;      Params:         0       0       0       0       0
  3400 ;;      Locals:         0       0       0       0       0
  3401 ;;      Temps:          0       4       0       0       0
  3402 ;;      Totals:         0       4       0       0       0
  3403 ;;Total ram usage:        4 bytes
  3404 ;; Hardware stack levels used:    1
  3405 ;; Hardware stack levels required when called:    6
  3406 ;; This function calls:
  3407 ;;		_protocolo_lcd
  3408 ;;		_lcd_string
  3409 ;;		_p1503_barramento
  3410 ;;		_p1503_analogico
  3411 ;;		_reles_cmd_arg
  3412 ;;		_debug_lcd
  3413 ;;		_printf
  3414 ;; This function is called by:
  3415 ;;		_protocolo_cmd
  3416 ;; This function uses a non-reentrant model
  3417 ;;
  3418                           psect	text948
  3419                           	file	"protocolo.c"
  3420                           	line	130
  3421                           	global	__size_of_protocolo_ver_cmd
  3422  0129                     	__size_of_protocolo_ver_cmd	equ	__end_of_protocolo_ver_cmd-_protocolo_ver_cmd
  3423                           	
  3424  0810                     _protocolo_ver_cmd:	
  3425                           	opt	stack 0
  3426                           ; Regs used in _protocolo_ver_cmd: [wreg-fsr0h+status,2+status,0+btemp+1+pclath+cstack]
  3427                           	line	131
  3428                           	
  3429  0810                     l8584:	
  3430                           ;protocolo.c: 131: switch((protocolo.cmd)){
  3431  0810  290D               	goto	l8622
  3432                           	line	136
  3433                           ;protocolo.c: 136: case 'a':
  3434                           	
  3435  0811                     l2906:	
  3436                           	line	137
  3437                           ;protocolo.c: 137: buffer.ulinha = 0x00;
  3438  0811  01E5               	clrf	0+(_buffer)+012h	;volatile
  3439                           	line	138
  3440                           	
  3441  0812                     l8586:	
  3442                           ;protocolo.c: 138: protocolo_lcd(0x00);
  3443  0812  3000               	movlw	(0)
  3444  0813  160A  118A  2255   	fcall	_protocolo_lcd
              120A  158A         
  3445                           	line	139
  3446                           ;protocolo.c: 139: break;
  3447  0818  2938               	goto	l2922
  3448                           	line	142
  3449                           ;protocolo.c: 142: case 'b':
  3450                           	
  3451  0819                     l2908:	
  3452                           	line	143
  3453                           	
  3454  0819                     l8588:	
  3455                           ;protocolo.c: 143: buffer.ulinha = 0x40;
  3456  0819  3040               	movlw	(040h)
  3457  081A  1283               	bcf	status, 5	;RP0=0, select bank0
  3458  081B  1303               	bcf	status, 6	;RP1=0, select bank0
  3459  081C  00BD               	movwf	(??_protocolo_ver_cmd+0)+0
  3460  081D  083D               	movf	(??_protocolo_ver_cmd+0)+0,w
  3461  081E  00E5               	movwf	0+(_buffer)+012h	;volatile
  3462                           	line	144
  3463                           	
  3464  081F                     l8590:	
  3465                           ;protocolo.c: 144: protocolo_lcd(0x40);
  3466  081F  3040               	movlw	(040h)
  3467  0820  160A  118A  2255   	fcall	_protocolo_lcd
              120A  158A         
  3468                           	line	145
  3469                           ;protocolo.c: 145: break;
  3470  0825  2938               	goto	l2922
  3471                           	line	148
  3472                           ;protocolo.c: 148: case 'c':
  3473                           	
  3474  0826                     l2909:	
  3475                           	line	149
  3476                           	
  3477  0826                     l8592:	
  3478                           ;protocolo.c: 149: buffer.ulinha = 0x10;
  3479  0826  3010               	movlw	(010h)
  3480  0827  1283               	bcf	status, 5	;RP0=0, select bank0
  3481  0828  1303               	bcf	status, 6	;RP1=0, select bank0
  3482  0829  00BD               	movwf	(??_protocolo_ver_cmd+0)+0
  3483  082A  083D               	movf	(??_protocolo_ver_cmd+0)+0,w
  3484  082B  00E5               	movwf	0+(_buffer)+012h	;volatile
  3485                           	line	150
  3486                           	
  3487  082C                     l8594:	
  3488                           ;protocolo.c: 150: protocolo_lcd(0x10);
  3489  082C  3010               	movlw	(010h)
  3490  082D  160A  118A  2255   	fcall	_protocolo_lcd
              120A  158A         
  3491                           	line	151
  3492                           ;protocolo.c: 151: break;
  3493  0832  2938               	goto	l2922
  3494                           	line	154
  3495                           ;protocolo.c: 154: case 'd':
  3496                           	
  3497  0833                     l2910:	
  3498                           	line	155
  3499                           	
  3500  0833                     l8596:	
  3501                           ;protocolo.c: 155: buffer.ulinha = 0x50;
  3502  0833  3050               	movlw	(050h)
  3503  0834  1283               	bcf	status, 5	;RP0=0, select bank0
  3504  0835  1303               	bcf	status, 6	;RP1=0, select bank0
  3505  0836  00BD               	movwf	(??_protocolo_ver_cmd+0)+0
  3506  0837  083D               	movf	(??_protocolo_ver_cmd+0)+0,w
  3507  0838  00E5               	movwf	0+(_buffer)+012h	;volatile
  3508                           	line	156
  3509                           	
  3510  0839                     l8598:	
  3511                           ;protocolo.c: 156: protocolo_lcd(0x50);
  3512  0839  3050               	movlw	(050h)
  3513  083A  160A  118A  2255   	fcall	_protocolo_lcd
              120A  158A         
  3514                           	line	157
  3515                           ;protocolo.c: 157: break;
  3516  083F  2938               	goto	l2922
  3517                           	line	159
  3518                           ;protocolo.c: 159: case 'e':
  3519                           	
  3520  0840                     l2911:	
  3521                           	line	160
  3522                           	
  3523  0840                     l8600:	
  3524                           ;protocolo.c: 160: { lcd_string((char *)"                ", 0x00); lcd_string((char *)" 
                                                ", 0x40); lcd_string((char *)"                ", 0x10); lcd_string((char 
                                 *)"                ", 0x50); };
  3525  0840  3012               	movlw	low(STR_12|8000h)
  3526  0841  1283               	bcf	status, 5	;RP0=0, select bank0
  3527  0842  1303               	bcf	status, 6	;RP1=0, select bank0
  3528  0843  00A4               	movwf	(?_lcd_string)
  3529  0844  3084               	movlw	high(STR_12|8000h)
  3530  0845  00A5               	movwf	((?_lcd_string))+1
  3531  0846  01A6               	clrf	0+(?_lcd_string)+02h
  3532  0847  160A  158A  2699   	fcall	_lcd_string
              120A  158A         
  3533  084C  3012               	movlw	low(STR_13|8000h)
  3534  084D  1283               	bcf	status, 5	;RP0=0, select bank0
  3535  084E  1303               	bcf	status, 6	;RP1=0, select bank0
  3536  084F  00A4               	movwf	(?_lcd_string)
  3537  0850  3084               	movlw	high(STR_13|8000h)
  3538  0851  00A5               	movwf	((?_lcd_string))+1
  3539  0852  3040               	movlw	(040h)
  3540  0853  00BD               	movwf	(??_protocolo_ver_cmd+0)+0
  3541  0854  083D               	movf	(??_protocolo_ver_cmd+0)+0,w
  3542  0855  00A6               	movwf	0+(?_lcd_string)+02h
  3543  0856  160A  158A  2699   	fcall	_lcd_string
              120A  158A         
  3544  085B  3012               	movlw	low(STR_14|8000h)
  3545  085C  1283               	bcf	status, 5	;RP0=0, select bank0
  3546  085D  1303               	bcf	status, 6	;RP1=0, select bank0
  3547  085E  00A4               	movwf	(?_lcd_string)
  3548  085F  3084               	movlw	high(STR_14|8000h)
  3549  0860  00A5               	movwf	((?_lcd_string))+1
  3550  0861  3010               	movlw	(010h)
  3551  0862  00BD               	movwf	(??_protocolo_ver_cmd+0)+0
  3552  0863  083D               	movf	(??_protocolo_ver_cmd+0)+0,w
  3553  0864  00A6               	movwf	0+(?_lcd_string)+02h
  3554  0865  160A  158A  2699   	fcall	_lcd_string
              120A  158A         
  3555  086A  3012               	movlw	low(STR_15|8000h)
  3556  086B  1283               	bcf	status, 5	;RP0=0, select bank0
  3557  086C  1303               	bcf	status, 6	;RP1=0, select bank0
  3558  086D  00A4               	movwf	(?_lcd_string)
  3559  086E  3084               	movlw	high(STR_15|8000h)
  3560  086F  00A5               	movwf	((?_lcd_string))+1
  3561  0870  3050               	movlw	(050h)
  3562  0871  00BD               	movwf	(??_protocolo_ver_cmd+0)+0
  3563  0872  083D               	movf	(??_protocolo_ver_cmd+0)+0,w
  3564  0873  00A6               	movwf	0+(?_lcd_string)+02h
  3565  0874  160A  158A  2699   	fcall	_lcd_string
              120A  158A         
  3566                           	line	161
  3567                           ;protocolo.c: 161: break;
  3568  0879  2938               	goto	l2922
  3569                           	line	163
  3570                           ;protocolo.c: 163: case 'f':
  3571                           	
  3572  087A                     l2912:	
  3573                           	line	165
  3574                           	
  3575  087A                     l8602:	
  3576                           ;protocolo.c: 165: buffer.i = sizeof(buffer.texto) + 1;
  3577  087A  3012               	movlw	(012h)
  3578  087B  1283               	bcf	status, 5	;RP0=0, select bank0
  3579  087C  1303               	bcf	status, 6	;RP1=0, select bank0
  3580  087D  00BD               	movwf	(??_protocolo_ver_cmd+0)+0
  3581  087E  083D               	movf	(??_protocolo_ver_cmd+0)+0,w
  3582  087F  00E4               	movwf	0+(_buffer)+011h	;volatile
  3583                           	line	166
  3584                           	
  3585  0880                     l8604:	
  3586                           ;protocolo.c: 166: protocolo_lcd(buffer.ulinha);
  3587  0880  0865               	movf	0+(_buffer)+012h,w	;volatile
  3588  0881  160A  118A  2255   	fcall	_protocolo_lcd
              120A  158A         
  3589                           	line	167
  3590                           ;protocolo.c: 167: break;
  3591  0886  2938               	goto	l2922
  3592                           	line	171
  3593                           ;protocolo.c: 171: case 0x01:
  3594                           	
  3595  0887                     l2913:	
  3596                           	line	181
  3597                           	
  3598  0887                     l8606:	
  3599                           ;protocolo.c: 181: (uart.buffer) = p1503_barramento();
  3600  0887  160A  158A  253C   	fcall	_p1503_barramento
              120A  158A         
  3601  088C  1283               	bcf	status, 5	;RP0=0, select bank0
  3602  088D  1303               	bcf	status, 6	;RP1=0, select bank0
  3603  088E  00BD               	movwf	(??_protocolo_ver_cmd+0)+0
  3604  088F  083D               	movf	(??_protocolo_ver_cmd+0)+0,w
  3605  0890  00FA               	movwf	0+(_uart)+01h	;volatile
  3606                           	line	182
  3607                           ;protocolo.c: 182: break;
  3608  0891  2938               	goto	l2922
  3609                           	line	184
  3610                           ;protocolo.c: 184: case 30:
  3611                           	
  3612  0892                     l2914:	
  3613                           	line	185
  3614                           	
  3615  0892                     l8608:	
  3616                           ;protocolo.c: 185: p1503_analogico((unsigned char)(protocolo.arg));
  3617  0892  084F               	movf	0+(_protocolo)+02h,w	;volatile
  3618  0893  160A  158A  2622   	fcall	_p1503_analogico
              120A  158A         
  3619                           	line	186
  3620                           ;protocolo.c: 186: break;
  3621  0898  2938               	goto	l2922
  3622                           	line	188
  3623                           ;protocolo.c: 188: case 10:
  3624                           	
  3625  0899                     l2915:	
  3626  0899  289A               	goto	l8610
  3627                           	line	189
  3628                           	
  3629  089A                     l2916:	
  3630                           	line	190
  3631                           	
  3632  089A                     l8610:	
  3633                           ;protocolo.c: 189: case 11:
  3634                           ;protocolo.c: 190: reles_cmd_arg((unsigned char)(protocolo.cmd), (unsigned char)(protoco
                                 lo.arg));
  3635  089A  1283               	bcf	status, 5	;RP0=0, select bank0
  3636  089B  1303               	bcf	status, 6	;RP1=0, select bank0
  3637  089C  084F               	movf	0+(_protocolo)+02h,w	;volatile
  3638  089D  00BD               	movwf	(??_protocolo_ver_cmd+0)+0
  3639  089E  083D               	movf	(??_protocolo_ver_cmd+0)+0,w
  3640  089F  00A0               	movwf	(?_reles_cmd_arg)
  3641  08A0  084E               	movf	0+(_protocolo)+01h,w	;volatile
  3642  08A1  160A  158A  25A7   	fcall	_reles_cmd_arg
              120A  158A         
  3643                           	line	191
  3644                           ;protocolo.c: 191: break;
  3645  08A6  2938               	goto	l2922
  3646                           	line	195
  3647                           ;protocolo.c: 195: case 'h':
  3648                           	
  3649  08A7                     l2917:	
  3650                           	line	196
  3651                           ;protocolo.c: 196: {(debug.uart = 1); (debug.lcd = 1); (debug.main = 1); (debug.protocol
                                 o = 1); (debug.print = 1); (debug.rele = 1); };
  3652  08A7  1683               	bsf	status, 5	;RP0=1, select bank1
  3653  08A8  1303               	bcf	status, 6	;RP1=0, select bank1
  3654  08A9  1420               	bsf	(_debug)^080h,0	;volatile
  3655  08AA  14A0               	bsf	(_debug)^080h,1	;volatile
  3656  08AB  1520               	bsf	(_debug)^080h,2	;volatile
  3657  08AC  15A0               	bsf	(_debug)^080h,3	;volatile
  3658  08AD  1620               	bsf	(_debug)^080h,4	;volatile
  3659  08AE  16A0               	bsf	(_debug)^080h,5	;volatile
  3660                           	line	197
  3661                           ;protocolo.c: 197: break;
  3662  08AF  2938               	goto	l2922
  3663                           	line	199
  3664                           ;protocolo.c: 199: case 'i':
  3665                           	
  3666  08B0                     l2918:	
  3667                           	line	200
  3668                           ;protocolo.c: 200: {(debug.uart = 0); (debug.lcd = 0); (debug.main = 0); (debug.protocol
                                 o = 0); (debug.rele = 0); };
  3669  08B0  1683               	bsf	status, 5	;RP0=1, select bank1
  3670  08B1  1303               	bcf	status, 6	;RP1=0, select bank1
  3671  08B2  1020               	bcf	(_debug)^080h,0	;volatile
  3672  08B3  10A0               	bcf	(_debug)^080h,1	;volatile
  3673  08B4  1120               	bcf	(_debug)^080h,2	;volatile
  3674  08B5  11A0               	bcf	(_debug)^080h,3	;volatile
  3675  08B6  12A0               	bcf	(_debug)^080h,5	;volatile
  3676                           	line	201
  3677                           ;protocolo.c: 201: break;
  3678  08B7  2938               	goto	l2922
  3679                           	line	203
  3680                           ;protocolo.c: 203: case 'j':
  3681                           	
  3682  08B8                     l2919:	
  3683                           	line	204
  3684                           	
  3685  08B8                     l8612:	
  3686                           ;protocolo.c: 204: debug_lcd((char *)"printf desligado", 0x10, (debug.protocolo));
  3687  08B8  3001               	movlw	low(STR_16|8000h)
  3688  08B9  1283               	bcf	status, 5	;RP0=0, select bank0
  3689  08BA  00A7               	movwf	(?_debug_lcd)
  3690  08BB  3084               	movlw	high(STR_16|8000h)
  3691  08BC  00A8               	movwf	((?_debug_lcd))+1
  3692  08BD  3010               	movlw	(010h)
  3693  08BE  00BD               	movwf	(??_protocolo_ver_cmd+0)+0
  3694  08BF  083D               	movf	(??_protocolo_ver_cmd+0)+0,w
  3695  08C0  00A9               	movwf	0+(?_debug_lcd)+02h
  3696  08C1  1683               	bsf	status, 5	;RP0=1, select bank1
  3697  08C2  1303               	bcf	status, 6	;RP1=0, select bank1
  3698  08C3  0C20               	rrf	(_debug)^080h,w	;volatile
  3699  08C4  1283               	bcf	status, 5	;RP0=0, select bank0
  3700  08C5  1303               	bcf	status, 6	;RP1=0, select bank0
  3701  08C6  00BE               	movwf	(??_protocolo_ver_cmd+1)+0
  3702  08C7  0CBE               	rrf	(??_protocolo_ver_cmd+1)+0,f
  3703  08C8  0C3E               	rrf	(??_protocolo_ver_cmd+1)+0,w
  3704  08C9  3901               	andlw	(1<<1)-1
  3705  08CA  00BF               	movwf	(??_protocolo_ver_cmd+2)+0
  3706  08CB  01C0               	clrf	(??_protocolo_ver_cmd+2)+0+1
  3707  08CC  083F               	movf	0+(??_protocolo_ver_cmd+2)+0,w
  3708  08CD  00AA               	movwf	0+(?_debug_lcd)+03h
  3709  08CE  0840               	movf	1+(??_protocolo_ver_cmd+2)+0,w
  3710  08CF  00AB               	movwf	1+(?_debug_lcd)+03h
  3711  08D0  120A  118A  27D6   	fcall	_debug_lcd
              120A  158A         
  3712                           	line	205
  3713                           	
  3714  08D5                     l8614:	
  3715                           ;protocolo.c: 205: (debug.print = 0);
  3716  08D5  1683               	bsf	status, 5	;RP0=1, select bank1
  3717  08D6  1303               	bcf	status, 6	;RP1=0, select bank1
  3718  08D7  1220               	bcf	(_debug)^080h,4	;volatile
  3719                           	line	206
  3720                           ;protocolo.c: 206: break;
  3721  08D8  2938               	goto	l2922
  3722                           	line	209
  3723                           ;protocolo.c: 209: default:
  3724                           	
  3725  08D9                     l2920:	
  3726                           	line	213
  3727                           ;protocolo.c: 213: if((debug.print)){
  3728  08D9  1683               	bsf	status, 5	;RP0=1, select bank1
  3729  08DA  1303               	bcf	status, 6	;RP1=0, select bank1
  3730  08DB  1E20               	btfss	(_debug)^080h,4	;volatile
  3731  08DC  28DE               	goto	u3511
  3732  08DD  28DF               	goto	u3510
  3733  08DE                     u3511:
  3734  08DE  28EA               	goto	l2921
  3735  08DF                     u3510:
  3736                           	line	214
  3737                           	
  3738  08DF                     l8616:	
  3739                           ;protocolo.c: 214: printf("\r\nnenhum comando valido encontrado");
  3740  08DF  3094               	movlw	low(STR_17|8000h)
  3741  08E0  1283               	bcf	status, 5	;RP0=0, select bank0
  3742  08E1  1303               	bcf	status, 6	;RP1=0, select bank0
  3743  08E2  00A8               	movwf	(?_printf)
  3744  08E3  3083               	movlw	high(STR_17|8000h)
  3745  08E4  00A9               	movwf	((?_printf))+1
  3746  08E5  160A  118A  236D   	fcall	_printf
              120A  158A         
  3747                           	line	215
  3748                           	
  3749  08EA                     l2921:	
  3750                           	line	217
  3751                           ;protocolo.c: 215: }
  3752                           ;protocolo.c: 217: debug_lcd((char *)"erro no cmd", 0x10, (debug.protocolo));
  3753  08EA  3071               	movlw	low(STR_18|8000h)
  3754  08EB  1283               	bcf	status, 5	;RP0=0, select bank0
  3755  08EC  1303               	bcf	status, 6	;RP1=0, select bank0
  3756  08ED  00A7               	movwf	(?_debug_lcd)
  3757  08EE  3084               	movlw	high(STR_18|8000h)
  3758  08EF  00A8               	movwf	((?_debug_lcd))+1
  3759  08F0  3010               	movlw	(010h)
  3760  08F1  00BD               	movwf	(??_protocolo_ver_cmd+0)+0
  3761  08F2  083D               	movf	(??_protocolo_ver_cmd+0)+0,w
  3762  08F3  00A9               	movwf	0+(?_debug_lcd)+02h
  3763  08F4  1683               	bsf	status, 5	;RP0=1, select bank1
  3764  08F5  1303               	bcf	status, 6	;RP1=0, select bank1
  3765  08F6  0C20               	rrf	(_debug)^080h,w	;volatile
  3766  08F7  1283               	bcf	status, 5	;RP0=0, select bank0
  3767  08F8  1303               	bcf	status, 6	;RP1=0, select bank0
  3768  08F9  00BE               	movwf	(??_protocolo_ver_cmd+1)+0
  3769  08FA  0CBE               	rrf	(??_protocolo_ver_cmd+1)+0,f
  3770  08FB  0C3E               	rrf	(??_protocolo_ver_cmd+1)+0,w
  3771  08FC  3901               	andlw	(1<<1)-1
  3772  08FD  00BF               	movwf	(??_protocolo_ver_cmd+2)+0
  3773  08FE  01C0               	clrf	(??_protocolo_ver_cmd+2)+0+1
  3774  08FF  083F               	movf	0+(??_protocolo_ver_cmd+2)+0,w
  3775  0900  00AA               	movwf	0+(?_debug_lcd)+03h
  3776  0901  0840               	movf	1+(??_protocolo_ver_cmd+2)+0,w
  3777  0902  00AB               	movwf	1+(?_debug_lcd)+03h
  3778  0903  120A  118A  27D6   	fcall	_debug_lcd
              120A  158A         
  3779                           	line	220
  3780                           	
  3781  0908                     l8618:	
  3782                           ;protocolo.c: 220: buffer.i = 0;
  3783  0908  1283               	bcf	status, 5	;RP0=0, select bank0
  3784  0909  1303               	bcf	status, 6	;RP1=0, select bank0
  3785  090A  01E4               	clrf	0+(_buffer)+011h	;volatile
  3786                           	line	221
  3787                           ;protocolo.c: 221: break;
  3788  090B  2938               	goto	l2922
  3789                           	line	222
  3790                           	
  3791  090C                     l8620:	
  3792                           ;protocolo.c: 222: }
  3793  090C  2938               	goto	l2922
  3794                           	line	131
  3795                           	
  3796  090D                     l2905:	
  3797                           	
  3798  090D                     l8622:	
  3799  090D  1283               	bcf	status, 5	;RP0=0, select bank0
  3800  090E  1303               	bcf	status, 6	;RP1=0, select bank0
  3801  090F  084E               	movf	0+(_protocolo)+01h,w	;volatile
  3802                           	; Switch size 1, requested type "space"
  3803                           ; Number of cases is 13, Range of values is 1 to 106
  3804                           ; switch strategies available:
  3805                           ; Name         Instructions Cycles
  3806                           ; simple_byte           40    21 (average)
  3807                           ; jumptable            263     9 (fixed)
  3808                           ;	Chosen strategy is simple_byte
  3809                           
  3810                           	opt asmopt_off
  3811  0910  3A01               	xorlw	1^0	; case 1
  3812  0911  1903               	skipnz
  3813  0912  2887               	goto	l8606
  3814  0913  3A0B               	xorlw	10^1	; case 10
  3815  0914  1903               	skipnz
  3816  0915  289A               	goto	l8610
  3817  0916  3A01               	xorlw	11^10	; case 11
  3818  0917  1903               	skipnz
  3819  0918  289A               	goto	l8610
  3820  0919  3A15               	xorlw	30^11	; case 30
  3821  091A  1903               	skipnz
  3822  091B  2892               	goto	l8608
  3823  091C  3A7F               	xorlw	97^30	; case 97
  3824  091D  1903               	skipnz
  3825  091E  2811               	goto	l2906
  3826  091F  3A03               	xorlw	98^97	; case 98
  3827  0920  1903               	skipnz
  3828  0921  2819               	goto	l8588
  3829  0922  3A01               	xorlw	99^98	; case 99
  3830  0923  1903               	skipnz
  3831  0924  2826               	goto	l8592
  3832  0925  3A07               	xorlw	100^99	; case 100
  3833  0926  1903               	skipnz
  3834  0927  2833               	goto	l8596
  3835  0928  3A01               	xorlw	101^100	; case 101
  3836  0929  1903               	skipnz
  3837  092A  2840               	goto	l8600
  3838  092B  3A03               	xorlw	102^101	; case 102
  3839  092C  1903               	skipnz
  3840  092D  287A               	goto	l8602
  3841  092E  3A0E               	xorlw	104^102	; case 104
  3842  092F  1903               	skipnz
  3843  0930  28A7               	goto	l2917
  3844  0931  3A01               	xorlw	105^104	; case 105
  3845  0932  1903               	skipnz
  3846  0933  28B0               	goto	l2918
  3847  0934  3A03               	xorlw	106^105	; case 106
  3848  0935  1903               	skipnz
  3849  0936  28B8               	goto	l8612
  3850  0937  28D9               	goto	l2920
  3851                           	opt asmopt_on
  3852                           
  3853                           	line	222
  3854                           	
  3855  0938                     l2907:	
  3856                           	line	223
  3857                           	
  3858  0938                     l2922:	
  3859  0938  0008               	return
  3860                           	opt stack 0
  3861                           GLOBAL	__end_of_protocolo_ver_cmd
  3862  0939                     	__end_of_protocolo_ver_cmd:
  3863 ;; =============== function _protocolo_ver_cmd ends ============
  3864                           
  3865                           	signat	_protocolo_ver_cmd,88
  3866                           	global	_uart_hard_fim
  3867                           psect	text949,local,class=CODE,delta=2
  3868                           global __ptext949
  3869  111D                     __ptext949:
  3870                           
  3871 ;; *************** function _uart_hard_fim *****************
  3872 ;; Defined at:
  3873 ;;		line 72 in file "uart.c"
  3874 ;; Parameters:    Size  Location     Type
  3875 ;;		None
  3876 ;; Auto vars:     Size  Location     Type
  3877 ;;		None
  3878 ;; Return value:  Size  Location     Type
  3879 ;;		None               void
  3880 ;; Registers used:
  3881 ;;		wreg, fsr0l, fsr0h, status,2, status,0, btemp+1, pclath, cstack
  3882 ;; Tracked objects:
  3883 ;;		On entry : 0/0
  3884 ;;		On exit  : 0/0
  3885 ;;		Unchanged: 0/0
  3886 ;; Data sizes:     COMMON   BANK0   BANK1   BANK3   BANK2
  3887 ;;      Params:         0       0       0       0       0
  3888 ;;      Locals:         0       0       0       0       0
  3889 ;;      Temps:          0       3       0       0       0
  3890 ;;      Totals:         0       3       0       0       0
  3891 ;;Total ram usage:        3 bytes
  3892 ;; Hardware stack levels used:    1
  3893 ;; Hardware stack levels required when called:    6
  3894 ;; This function calls:
  3895 ;;		_debug_lcd
  3896 ;;		_lcd_string
  3897 ;;		_putch
  3898 ;; This function is called by:
  3899 ;;		_main
  3900 ;; This function uses a non-reentrant model
  3901 ;;
  3902                           psect	text949
  3903                           	file	"uart.c"
  3904                           	line	72
  3905                           	global	__size_of_uart_hard_fim
  3906  0061                     	__size_of_uart_hard_fim	equ	__end_of_uart_hard_fim-_uart_hard_fim
  3907                           	
  3908  111D                     _uart_hard_fim:	
  3909                           	opt	stack 1
  3910                           ; Regs used in _uart_hard_fim: [wreg-fsr0h+status,2+status,0+btemp+1+pclath+cstack]
  3911                           	line	73
  3912                           	
  3913  111D                     l8556:	
  3914                           ;uart.c: 73: if((uart.overflow) == 1){
  3915  111D  1C79               	btfss	(_uart),0	;volatile
  3916  111E  2920               	goto	u3471
  3917  111F  2921               	goto	u3470
  3918  1120                     u3471:
  3919  1120  2964               	goto	l2234
  3920  1121                     u3470:
  3921                           	line	76
  3922                           	
  3923  1121                     l8558:	
  3924                           ;uart.c: 76: debug_lcd((char *)"overflow", 0x50, (debug.uart));
  3925  1121  3089               	movlw	low(STR_3|8000h)
  3926  1122  1283               	bcf	status, 5	;RP0=0, select bank0
  3927  1123  1303               	bcf	status, 6	;RP1=0, select bank0
  3928  1124  00A7               	movwf	(?_debug_lcd)
  3929  1125  3084               	movlw	high(STR_3|8000h)
  3930  1126  00A8               	movwf	((?_debug_lcd))+1
  3931  1127  3050               	movlw	(050h)
  3932  1128  00AD               	movwf	(??_uart_hard_fim+0)+0
  3933  1129  082D               	movf	(??_uart_hard_fim+0)+0,w
  3934  112A  00A9               	movwf	0+(?_debug_lcd)+02h
  3935  112B  1683               	bsf	status, 5	;RP0=1, select bank1
  3936  112C  1303               	bcf	status, 6	;RP1=0, select bank1
  3937  112D  0820               	movf	(_debug)^080h,w	;volatile
  3938  112E  3901               	andlw	(1<<1)-1
  3939  112F  1283               	bcf	status, 5	;RP0=0, select bank0
  3940  1130  1303               	bcf	status, 6	;RP1=0, select bank0
  3941  1131  00AE               	movwf	(??_uart_hard_fim+1)+0
  3942  1132  01AF               	clrf	(??_uart_hard_fim+1)+0+1
  3943  1133  082E               	movf	0+(??_uart_hard_fim+1)+0,w
  3944  1134  00AA               	movwf	0+(?_debug_lcd)+03h
  3945  1135  082F               	movf	1+(??_uart_hard_fim+1)+0,w
  3946  1136  00AB               	movwf	1+(?_debug_lcd)+03h
  3947  1137  120A  118A  27D6   	fcall	_debug_lcd
              160A  118A         
  3948                           	line	80
  3949                           	
  3950  113C                     l8560:	
  3951                           ;uart.c: 80: (uart.overflow = 0);
  3952  113C  1079               	bcf	(_uart),0	;volatile
  3953                           	line	81
  3954                           	
  3955  113D                     l8562:	
  3956                           ;uart.c: 81: (uart.novo = 0);
  3957  113D  1179               	bcf	(_uart),2	;volatile
  3958                           	line	82
  3959                           	
  3960  113E                     l8564:	
  3961                           ;uart.c: 82: (uart.proc = 0);
  3962  113E  11F9               	bcf	(_uart),3	;volatile
  3963                           	line	84
  3964                           	
  3965  113F                     l8566:	
  3966                           ;uart.c: 84: PIE1bits.RCIE = 0;
  3967  113F  1683               	bsf	status, 5	;RP0=1, select bank1
  3968  1140  1303               	bcf	status, 6	;RP1=0, select bank1
  3969  1141  128C               	bcf	(140)^080h,5	;volatile
  3970                           	line	86
  3971                           	
  3972  1142                     l8568:	
  3973                           ;uart.c: 86: _delay((unsigned long)((500)*(20000000/4000.0)));
  3974                           	opt asmopt_off
  3975  1142  300D               movlw  13
  3976  1143  1283               	bcf	status, 5	;RP0=0, select bank0
  3977  1144  1303               	bcf	status, 6	;RP1=0, select bank0
  3978  1145  00AF               movwf	((??_uart_hard_fim+0)+0+2),f
  3979  1146  30AF               movlw	175
  3980  1147  00AE               movwf	((??_uart_hard_fim+0)+0+1),f
  3981  1148  30C1               	movlw	193
  3982  1149  00AD               movwf	((??_uart_hard_fim+0)+0),f
  3983  114A                     u3627:
  3984  114A  0BAD               	decfsz	((??_uart_hard_fim+0)+0),f
  3985  114B  294A               	goto	u3627
  3986  114C  0BAE               	decfsz	((??_uart_hard_fim+0)+0+1),f
  3987  114D  294A               	goto	u3627
  3988  114E  0BAF               	decfsz	((??_uart_hard_fim+0)+0+2),f
  3989  114F  294A               	goto	u3627
  3990  1150  0064               	clrwdt
  3991                           opt asmopt_on
  3992                           
  3993                           	line	88
  3994                           	
  3995  1151                     l8570:	
  3996                           ;uart.c: 88: lcd_string((char *)"                ", 0x50);
  3997  1151  3012               	movlw	low(STR_4|8000h)
  3998  1152  1283               	bcf	status, 5	;RP0=0, select bank0
  3999  1153  1303               	bcf	status, 6	;RP1=0, select bank0
  4000  1154  00A4               	movwf	(?_lcd_string)
  4001  1155  3084               	movlw	high(STR_4|8000h)
  4002  1156  00A5               	movwf	((?_lcd_string))+1
  4003  1157  3050               	movlw	(050h)
  4004  1158  00AD               	movwf	(??_uart_hard_fim+0)+0
  4005  1159  082D               	movf	(??_uart_hard_fim+0)+0,w
  4006  115A  00A6               	movwf	0+(?_lcd_string)+02h
  4007  115B  160A  158A  2699   	fcall	_lcd_string
              160A  118A         
  4008                           	line	90
  4009                           	
  4010  1160                     l8572:	
  4011                           ;uart.c: 90: PIE1bits.RCIE = 1;
  4012  1160  1683               	bsf	status, 5	;RP0=1, select bank1
  4013  1161  1303               	bcf	status, 6	;RP1=0, select bank1
  4014  1162  168C               	bsf	(140)^080h,5	;volatile
  4015                           	line	91
  4016                           ;uart.c: 91: } else if((uart.novo) && (uart.proc)){
  4017  1163  297D               	goto	l2238
  4018                           	
  4019  1164                     l2234:	
  4020  1164  1D79               	btfss	(_uart),2	;volatile
  4021  1165  2967               	goto	u3481
  4022  1166  2968               	goto	u3480
  4023  1167                     u3481:
  4024  1167  297D               	goto	l2238
  4025  1168                     u3480:
  4026                           	
  4027  1168                     l8574:	
  4028  1168  1DF9               	btfss	(_uart),3	;volatile
  4029  1169  296B               	goto	u3491
  4030  116A  296C               	goto	u3490
  4031  116B                     u3491:
  4032  116B  297D               	goto	l2238
  4033  116C                     u3490:
  4034                           	line	97
  4035                           	
  4036  116C                     l8576:	
  4037                           ;uart.c: 97: if((debug.print) == 0){ putch((uart.buffer)); }
  4038  116C  1683               	bsf	status, 5	;RP0=1, select bank1
  4039  116D  1303               	bcf	status, 6	;RP1=0, select bank1
  4040  116E  1A20               	btfsc	(_debug)^080h,4	;volatile
  4041  116F  2971               	goto	u3501
  4042  1170  2972               	goto	u3500
  4043  1171                     u3501:
  4044  1171  2979               	goto	l8580
  4045  1172                     u3500:
  4046                           	
  4047  1172                     l8578:	
  4048  1172  087A               	movf	0+(_uart)+01h,w	;volatile
  4049  1173  160A  158A  2576   	fcall	_putch
              160A  118A         
  4050  1178  2979               	goto	l8580
  4051                           	
  4052  1179                     l2237:	
  4053                           	line	104
  4054                           	
  4055  1179                     l8580:	
  4056                           ;uart.c: 104: (uart.novo = 0);
  4057  1179  1179               	bcf	(_uart),2	;volatile
  4058                           	line	106
  4059                           	
  4060  117A                     l8582:	
  4061                           ;uart.c: 106: (uart.proc = 0);
  4062  117A  11F9               	bcf	(_uart),3	;volatile
  4063  117B  297D               	goto	l2238
  4064                           	line	107
  4065                           	
  4066  117C                     l2236:	
  4067  117C  297D               	goto	l2238
  4068                           	line	108
  4069                           	
  4070  117D                     l2235:	
  4071                           	
  4072  117D                     l2238:	
  4073  117D  0008               	return
  4074                           	opt stack 0
  4075                           GLOBAL	__end_of_uart_hard_fim
  4076  117E                     	__end_of_uart_hard_fim:
  4077 ;; =============== function _uart_hard_fim ends ============
  4078                           
  4079                           	signat	_uart_hard_fim,88
  4080                           	global	_homem_animacao
  4081                           psect	text950,local,class=CODE,delta=2
  4082                           global __ptext950
  4083  1002                     __ptext950:
  4084                           
  4085 ;; *************** function _homem_animacao *****************
  4086 ;; Defined at:
  4087 ;;		line 367 in file "homem.c"
  4088 ;; Parameters:    Size  Location     Type
  4089 ;;		None
  4090 ;; Auto vars:     Size  Location     Type
  4091 ;;		None
  4092 ;; Return value:  Size  Location     Type
  4093 ;;		None               void
  4094 ;; Registers used:
  4095 ;;		wreg, fsr0l, fsr0h, status,2, status,0, btemp+1, pclath, cstack
  4096 ;; Tracked objects:
  4097 ;;		On entry : 0/0
  4098 ;;		On exit  : 0/0
  4099 ;;		Unchanged: 0/0
  4100 ;; Data sizes:     COMMON   BANK0   BANK1   BANK3   BANK2
  4101 ;;      Params:         0       0       0       0       0
  4102 ;;      Locals:         0       0       0       0       0
  4103 ;;      Temps:          0       1       0       0       0
  4104 ;;      Totals:         0       1       0       0       0
  4105 ;;Total ram usage:        1 bytes
  4106 ;; Hardware stack levels used:    1
  4107 ;; Hardware stack levels required when called:    6
  4108 ;; This function calls:
  4109 ;;		_lcd_clear
  4110 ;;		_homem_inicio
  4111 ;;		_homem_corre_esquerda
  4112 ;;		_homem_vira_direita
  4113 ;;		_homem_corre_direita
  4114 ;;		_homem_vira_esquerda
  4115 ;;		_lcd_string
  4116 ;; This function is called by:
  4117 ;;		_main
  4118 ;; This function uses a non-reentrant model
  4119 ;;
  4120                           psect	text950
  4121                           	file	"homem.c"
  4122                           	line	367
  4123                           	global	__size_of_homem_animacao
  4124  002E                     	__size_of_homem_animacao	equ	__end_of_homem_animacao-_homem_animacao
  4125                           	
  4126  1002                     _homem_animacao:	
  4127                           	opt	stack 1
  4128                           ; Regs used in _homem_animacao: [wreg-fsr0h+status,2+status,0+btemp+1+pclath+cstack]
  4129                           	line	368
  4130                           	
  4131  1002                     l8542:	
  4132                           ;homem.c: 368: lcd_clear();
  4133  1002  160A  158A  25D6   	fcall	_lcd_clear
              160A  118A         
  4134                           	line	369
  4135                           	
  4136  1007                     l8544:	
  4137                           ;homem.c: 369: homem_inicio();
  4138  1007  120A  118A  270C   	fcall	_homem_inicio
              160A  118A         
  4139                           	line	370
  4140                           	
  4141  100C                     l8546:	
  4142                           ;homem.c: 370: homem_corre_esquerda();
  4143  100C  120A  158A  2139   	fcall	_homem_corre_esquerda
              160A  118A         
  4144                           	line	371
  4145                           	
  4146  1011                     l8548:	
  4147                           ;homem.c: 371: homem_vira_direita();
  4148  1011  160A  118A  259C   	fcall	_homem_vira_direita
              160A  118A         
  4149                           	line	372
  4150                           	
  4151  1016                     l8550:	
  4152                           ;homem.c: 372: homem_corre_direita();
  4153  1016  120A  158A  249C   	fcall	_homem_corre_direita
              160A  118A         
  4154                           	line	373
  4155                           	
  4156  101B                     l8552:	
  4157                           ;homem.c: 373: homem_vira_esquerda();
  4158  101B  120A  118A  24A8   	fcall	_homem_vira_esquerda
              160A  118A         
  4159                           	line	374
  4160                           	
  4161  1020                     l8554:	
  4162                           ;homem.c: 374: lcd_string((char *) "FIM....", 0x50);
  4163  1020  3092               	movlw	low(STR_36|8000h)
  4164  1021  1283               	bcf	status, 5	;RP0=0, select bank0
  4165  1022  1303               	bcf	status, 6	;RP1=0, select bank0
  4166  1023  00A4               	movwf	(?_lcd_string)
  4167  1024  3084               	movlw	high(STR_36|8000h)
  4168  1025  00A5               	movwf	((?_lcd_string))+1
  4169  1026  3050               	movlw	(050h)
  4170  1027  00BB               	movwf	(??_homem_animacao+0)+0
  4171  1028  083B               	movf	(??_homem_animacao+0)+0,w
  4172  1029  00A6               	movwf	0+(?_lcd_string)+02h
  4173  102A  160A  158A  2699   	fcall	_lcd_string
              160A  118A         
  4174                           	line	375
  4175                           	
  4176  102F                     l4964:	
  4177  102F  0008               	return
  4178                           	opt stack 0
  4179                           GLOBAL	__end_of_homem_animacao
  4180  1030                     	__end_of_homem_animacao:
  4181 ;; =============== function _homem_animacao ends ============
  4182                           
  4183                           	signat	_homem_animacao,88
  4184                           	global	_homem_vira_esquerda
  4185                           psect	text951,local,class=CODE,delta=2
  4186                           global __ptext951
  4187  04A8                     __ptext951:
  4188                           
  4189 ;; *************** function _homem_vira_esquerda *****************
  4190 ;; Defined at:
  4191 ;;		line 299 in file "homem.c"
  4192 ;; Parameters:    Size  Location     Type
  4193 ;;		None
  4194 ;; Auto vars:     Size  Location     Type
  4195 ;;  a               2   24[BANK0 ] int 
  4196 ;;  c               2   22[BANK0 ] int 
  4197 ;;  b               2   20[BANK0 ] int 
  4198 ;; Return value:  Size  Location     Type
  4199 ;;		None               void
  4200 ;; Registers used:
  4201 ;;		wreg, fsr0l, fsr0h, status,2, status,0, btemp+1, pclath, cstack
  4202 ;; Tracked objects:
  4203 ;;		On entry : 0/0
  4204 ;;		On exit  : 0/0
  4205 ;;		Unchanged: 0/0
  4206 ;; Data sizes:     COMMON   BANK0   BANK1   BANK3   BANK2
  4207 ;;      Params:         0       0       0       0       0
  4208 ;;      Locals:         0       6       0       0       0
  4209 ;;      Temps:          0       3       0       0       0
  4210 ;;      Totals:         0       9       0       0       0
  4211 ;;Total ram usage:        9 bytes
  4212 ;; Hardware stack levels used:    1
  4213 ;; Hardware stack levels required when called:    5
  4214 ;; This function calls:
  4215 ;;		_lcd_clear
  4216 ;;		_lcd_string
  4217 ;;		_lcd_novo_char
  4218 ;;		_lcd_cursor_ddram
  4219 ;;		_lcd_putch
  4220 ;; This function is called by:
  4221 ;;		_homem_animacao
  4222 ;; This function uses a non-reentrant model
  4223 ;;
  4224                           psect	text951
  4225                           	file	"homem.c"
  4226                           	line	299
  4227                           	global	__size_of_homem_vira_esquerda
  4228  0264                     	__size_of_homem_vira_esquerda	equ	__end_of_homem_vira_esquerda-_homem_vira_esquerda
  4229                           	
  4230  04A8                     _homem_vira_esquerda:	
  4231                           	opt	stack 1
  4232                           ; Regs used in _homem_vira_esquerda: [wreg-fsr0h+status,2+status,0+btemp+1+pclath+cstack
                                 ]
  4233                           	line	301
  4234                           	
  4235  04A8                     l8436:	
  4236                           ;homem.c: 300: int a, b, c;
  4237                           ;homem.c: 301: a = 1;
  4238  04A8  3001               	movlw	low(01h)
  4239  04A9  1283               	bcf	status, 5	;RP0=0, select bank0
  4240  04AA  1303               	bcf	status, 6	;RP1=0, select bank0
  4241  04AB  00B8               	movwf	(homem_vira_esquerda@a)
  4242  04AC  3000               	movlw	high(01h)
  4243  04AD  00B9               	movwf	((homem_vira_esquerda@a))+1
  4244                           	line	302
  4245                           	
  4246  04AE                     l8438:	
  4247                           ;homem.c: 302: b = a + 1;
  4248  04AE  0838               	movf	(homem_vira_esquerda@a),w
  4249  04AF  3E01               	addlw	low(01h)
  4250  04B0  00B4               	movwf	(homem_vira_esquerda@b)
  4251  04B1  0839               	movf	(homem_vira_esquerda@a+1),w
  4252  04B2  1803               	skipnc
  4253  04B3  3E01               	addlw	1
  4254  04B4  3E00               	addlw	high(01h)
  4255  04B5  00B5               	movwf	1+(homem_vira_esquerda@b)
  4256                           	line	303
  4257                           	
  4258  04B6                     l8440:	
  4259                           ;homem.c: 303: c = a + 2;
  4260  04B6  0838               	movf	(homem_vira_esquerda@a),w
  4261  04B7  3E02               	addlw	low(02h)
  4262  04B8  00B6               	movwf	(homem_vira_esquerda@c)
  4263  04B9  0839               	movf	(homem_vira_esquerda@a+1),w
  4264  04BA  1803               	skipnc
  4265  04BB  3E01               	addlw	1
  4266  04BC  3E00               	addlw	high(02h)
  4267  04BD  00B7               	movwf	1+(homem_vira_esquerda@c)
  4268                           	line	304
  4269                           	
  4270  04BE                     l8442:	
  4271                           ;homem.c: 304: lcd_clear();
  4272  04BE  160A  158A  25D6   	fcall	_lcd_clear
              120A  118A         
  4273                           	line	305
  4274                           	
  4275  04C3                     l8444:	
  4276                           ;homem.c: 305: lcd_string((char *) "----------------", 0x10);
  4277  04C3  30DF               	movlw	low(STR_34|8000h)
  4278  04C4  1283               	bcf	status, 5	;RP0=0, select bank0
  4279  04C5  1303               	bcf	status, 6	;RP1=0, select bank0
  4280  04C6  00A4               	movwf	(?_lcd_string)
  4281  04C7  3083               	movlw	high(STR_34|8000h)
  4282  04C8  00A5               	movwf	((?_lcd_string))+1
  4283  04C9  3010               	movlw	(010h)
  4284  04CA  00B1               	movwf	(??_homem_vira_esquerda+0)+0
  4285  04CB  0831               	movf	(??_homem_vira_esquerda+0)+0,w
  4286  04CC  00A6               	movwf	0+(?_lcd_string)+02h
  4287  04CD  160A  158A  2699   	fcall	_lcd_string
              120A  118A         
  4288                           	line	306
  4289                           	
  4290  04D2                     l8446:	
  4291                           ;homem.c: 306: lcd_novo_char(0, slipD1);
  4292  04D2  30B4               	movlw	low(_slipD1|8000h)
  4293  04D3  1283               	bcf	status, 5	;RP0=0, select bank0
  4294  04D4  1303               	bcf	status, 6	;RP1=0, select bank0
  4295  04D5  00A3               	movwf	(?_lcd_novo_char)
  4296  04D6  3081               	movlw	high(_slipD1|8000h)
  4297  04D7  00A4               	movwf	((?_lcd_novo_char))+1
  4298  04D8  3000               	movlw	(0)
  4299  04D9  160A  158A  2777   	fcall	_lcd_novo_char
              120A  118A         
  4300                           	line	307
  4301                           	
  4302  04DE                     l8448:	
  4303                           ;homem.c: 307: lcd_novo_char(1, slipD2);
  4304  04DE  30BC               	movlw	low(_slipD2|8000h)
  4305  04DF  1283               	bcf	status, 5	;RP0=0, select bank0
  4306  04E0  1303               	bcf	status, 6	;RP1=0, select bank0
  4307  04E1  00A3               	movwf	(?_lcd_novo_char)
  4308  04E2  3081               	movlw	high(_slipD2|8000h)
  4309  04E3  00A4               	movwf	((?_lcd_novo_char))+1
  4310  04E4  3001               	movlw	(01h)
  4311  04E5  160A  158A  2777   	fcall	_lcd_novo_char
              120A  118A         
  4312                           	line	308
  4313                           	
  4314  04EA                     l8450:	
  4315                           ;homem.c: 308: lcd_novo_char(2, slipD3);
  4316  04EA  30C4               	movlw	low(_slipD3|8000h)
  4317  04EB  1283               	bcf	status, 5	;RP0=0, select bank0
  4318  04EC  1303               	bcf	status, 6	;RP1=0, select bank0
  4319  04ED  00A3               	movwf	(?_lcd_novo_char)
  4320  04EE  3081               	movlw	high(_slipD3|8000h)
  4321  04EF  00A4               	movwf	((?_lcd_novo_char))+1
  4322  04F0  3002               	movlw	(02h)
  4323  04F1  160A  158A  2777   	fcall	_lcd_novo_char
              120A  118A         
  4324                           	line	309
  4325                           	
  4326  04F6                     l8452:	
  4327                           ;homem.c: 309: lcd_novo_char(3, slipD4);
  4328  04F6  30CC               	movlw	low(_slipD4|8000h)
  4329  04F7  1283               	bcf	status, 5	;RP0=0, select bank0
  4330  04F8  1303               	bcf	status, 6	;RP1=0, select bank0
  4331  04F9  00A3               	movwf	(?_lcd_novo_char)
  4332  04FA  3081               	movlw	high(_slipD4|8000h)
  4333  04FB  00A4               	movwf	((?_lcd_novo_char))+1
  4334  04FC  3003               	movlw	(03h)
  4335  04FD  160A  158A  2777   	fcall	_lcd_novo_char
              120A  118A         
  4336                           	line	310
  4337                           	
  4338  0502                     l8454:	
  4339                           ;homem.c: 310: lcd_novo_char(4, slipD5);
  4340  0502  30D4               	movlw	low(_slipD5|8000h)
  4341  0503  1283               	bcf	status, 5	;RP0=0, select bank0
  4342  0504  1303               	bcf	status, 6	;RP1=0, select bank0
  4343  0505  00A3               	movwf	(?_lcd_novo_char)
  4344  0506  3081               	movlw	high(_slipD5|8000h)
  4345  0507  00A4               	movwf	((?_lcd_novo_char))+1
  4346  0508  3004               	movlw	(04h)
  4347  0509  160A  158A  2777   	fcall	_lcd_novo_char
              120A  118A         
  4348                           	line	311
  4349                           	
  4350  050E                     l8456:	
  4351                           ;homem.c: 311: lcd_novo_char(5, slipD6);
  4352  050E  30DC               	movlw	low(_slipD6|8000h)
  4353  050F  1283               	bcf	status, 5	;RP0=0, select bank0
  4354  0510  1303               	bcf	status, 6	;RP1=0, select bank0
  4355  0511  00A3               	movwf	(?_lcd_novo_char)
  4356  0512  3081               	movlw	high(_slipD6|8000h)
  4357  0513  00A4               	movwf	((?_lcd_novo_char))+1
  4358  0514  3005               	movlw	(05h)
  4359  0515  160A  158A  2777   	fcall	_lcd_novo_char
              120A  118A         
  4360                           	line	312
  4361                           	
  4362  051A                     l8458:	
  4363                           ;homem.c: 312: lcd_cursor_ddram(a, 1);
  4364  051A  1283               	bcf	status, 5	;RP0=0, select bank0
  4365  051B  1303               	bcf	status, 6	;RP1=0, select bank0
  4366  051C  01A3               	clrf	(?_lcd_cursor_ddram)
  4367  051D  1403               	bsf	status,0
  4368  051E  0DA3               	rlf	(?_lcd_cursor_ddram),f
  4369  051F  0838               	movf	(homem_vira_esquerda@a),w
  4370  0520  160A  118A  20C8   	fcall	_lcd_cursor_ddram
              120A  118A         
  4371                           	line	313
  4372                           	
  4373  0525                     l8460:	
  4374                           ;homem.c: 313: lcd_putch(0);
  4375  0525  3000               	movlw	(0)
  4376  0526  160A  158A  256B   	fcall	_lcd_putch
              120A  118A         
  4377                           	line	314
  4378                           	
  4379  052B                     l8462:	
  4380                           ;homem.c: 314: lcd_cursor_ddram(a, 0);
  4381  052B  1283               	bcf	status, 5	;RP0=0, select bank0
  4382  052C  1303               	bcf	status, 6	;RP1=0, select bank0
  4383  052D  01A3               	clrf	(?_lcd_cursor_ddram)
  4384  052E  0838               	movf	(homem_vira_esquerda@a),w
  4385  052F  160A  118A  20C8   	fcall	_lcd_cursor_ddram
              120A  118A         
  4386                           	line	315
  4387                           	
  4388  0534                     l8464:	
  4389                           ;homem.c: 315: lcd_putch(1);
  4390  0534  3001               	movlw	(01h)
  4391  0535  160A  158A  256B   	fcall	_lcd_putch
              120A  118A         
  4392                           	line	316
  4393                           	
  4394  053A                     l8466:	
  4395                           ;homem.c: 316: lcd_cursor_ddram(b, 1);
  4396  053A  1283               	bcf	status, 5	;RP0=0, select bank0
  4397  053B  1303               	bcf	status, 6	;RP1=0, select bank0
  4398  053C  01A3               	clrf	(?_lcd_cursor_ddram)
  4399  053D  1403               	bsf	status,0
  4400  053E  0DA3               	rlf	(?_lcd_cursor_ddram),f
  4401  053F  0834               	movf	(homem_vira_esquerda@b),w
  4402  0540  160A  118A  20C8   	fcall	_lcd_cursor_ddram
              120A  118A         
  4403                           	line	317
  4404                           	
  4405  0545                     l8468:	
  4406                           ;homem.c: 317: lcd_putch(2);
  4407  0545  3002               	movlw	(02h)
  4408  0546  160A  158A  256B   	fcall	_lcd_putch
              120A  118A         
  4409                           	line	318
  4410                           	
  4411  054B                     l8470:	
  4412                           ;homem.c: 318: lcd_cursor_ddram(b, 0);
  4413  054B  1283               	bcf	status, 5	;RP0=0, select bank0
  4414  054C  1303               	bcf	status, 6	;RP1=0, select bank0
  4415  054D  01A3               	clrf	(?_lcd_cursor_ddram)
  4416  054E  0834               	movf	(homem_vira_esquerda@b),w
  4417  054F  160A  118A  20C8   	fcall	_lcd_cursor_ddram
              120A  118A         
  4418                           	line	319
  4419                           	
  4420  0554                     l8472:	
  4421                           ;homem.c: 319: lcd_putch(3);
  4422  0554  3003               	movlw	(03h)
  4423  0555  160A  158A  256B   	fcall	_lcd_putch
              120A  118A         
  4424                           	line	320
  4425                           	
  4426  055A                     l8474:	
  4427                           ;homem.c: 320: lcd_cursor_ddram(c, 1);
  4428  055A  1283               	bcf	status, 5	;RP0=0, select bank0
  4429  055B  1303               	bcf	status, 6	;RP1=0, select bank0
  4430  055C  01A3               	clrf	(?_lcd_cursor_ddram)
  4431  055D  1403               	bsf	status,0
  4432  055E  0DA3               	rlf	(?_lcd_cursor_ddram),f
  4433  055F  0836               	movf	(homem_vira_esquerda@c),w
  4434  0560  160A  118A  20C8   	fcall	_lcd_cursor_ddram
              120A  118A         
  4435                           	line	321
  4436                           	
  4437  0565                     l8476:	
  4438                           ;homem.c: 321: lcd_putch(4);
  4439  0565  3004               	movlw	(04h)
  4440  0566  160A  158A  256B   	fcall	_lcd_putch
              120A  118A         
  4441                           	line	322
  4442                           	
  4443  056B                     l8478:	
  4444                           ;homem.c: 322: lcd_cursor_ddram(c, 0);
  4445  056B  1283               	bcf	status, 5	;RP0=0, select bank0
  4446  056C  1303               	bcf	status, 6	;RP1=0, select bank0
  4447  056D  01A3               	clrf	(?_lcd_cursor_ddram)
  4448  056E  0836               	movf	(homem_vira_esquerda@c),w
  4449  056F  160A  118A  20C8   	fcall	_lcd_cursor_ddram
              120A  118A         
  4450                           	line	323
  4451                           	
  4452  0574                     l8480:	
  4453                           ;homem.c: 323: lcd_putch(5);
  4454  0574  3005               	movlw	(05h)
  4455  0575  160A  158A  256B   	fcall	_lcd_putch
              120A  118A         
  4456                           	line	324
  4457                           	
  4458  057A                     l8482:	
  4459                           ;homem.c: 324: _delay((unsigned long)((150)*(20000000/4000.0)));
  4460                           	opt asmopt_off
  4461  057A  3004               movlw  4
  4462  057B  1283               	bcf	status, 5	;RP0=0, select bank0
  4463  057C  1303               	bcf	status, 6	;RP1=0, select bank0
  4464  057D  00B3               movwf	((??_homem_vira_esquerda+0)+0+2),f
  4465  057E  30CF               movlw	207
  4466  057F  00B2               movwf	((??_homem_vira_esquerda+0)+0+1),f
  4467  0580  3003               	movlw	3
  4468  0581  00B1               movwf	((??_homem_vira_esquerda+0)+0),f
  4469  0582                     u3637:
  4470  0582  0BB1               	decfsz	((??_homem_vira_esquerda+0)+0),f
  4471  0583  2D82               	goto	u3637
  4472  0584  0BB2               	decfsz	((??_homem_vira_esquerda+0)+0+1),f
  4473  0585  2D82               	goto	u3637
  4474  0586  0BB3               	decfsz	((??_homem_vira_esquerda+0)+0+2),f
  4475  0587  2D82               	goto	u3637
  4476  0588  2D89               	nop2
  4477                           opt asmopt_on
  4478                           
  4479                           	line	325
  4480                           	
  4481  0589                     l8484:	
  4482                           ;homem.c: 325: lcd_clear();
  4483  0589  160A  158A  25D6   	fcall	_lcd_clear
              120A  118A         
  4484                           	line	326
  4485                           ;homem.c: 326: lcd_string((char *) "----------------", 0x10);
  4486  058E  30DF               	movlw	low(STR_35|8000h)
  4487  058F  1283               	bcf	status, 5	;RP0=0, select bank0
  4488  0590  1303               	bcf	status, 6	;RP1=0, select bank0
  4489  0591  00A4               	movwf	(?_lcd_string)
  4490  0592  3083               	movlw	high(STR_35|8000h)
  4491  0593  00A5               	movwf	((?_lcd_string))+1
  4492  0594  3010               	movlw	(010h)
  4493  0595  00B1               	movwf	(??_homem_vira_esquerda+0)+0
  4494  0596  0831               	movf	(??_homem_vira_esquerda+0)+0,w
  4495  0597  00A6               	movwf	0+(?_lcd_string)+02h
  4496  0598  160A  158A  2699   	fcall	_lcd_string
              120A  118A         
  4497                           	line	327
  4498                           ;homem.c: 327: lcd_novo_char(0, slipE1);
  4499  059D  30E4               	movlw	low(_slipE1|8000h)
  4500  059E  1283               	bcf	status, 5	;RP0=0, select bank0
  4501  059F  1303               	bcf	status, 6	;RP1=0, select bank0
  4502  05A0  00A3               	movwf	(?_lcd_novo_char)
  4503  05A1  3081               	movlw	high(_slipE1|8000h)
  4504  05A2  00A4               	movwf	((?_lcd_novo_char))+1
  4505  05A3  3000               	movlw	(0)
  4506  05A4  160A  158A  2777   	fcall	_lcd_novo_char
              120A  118A         
  4507                           	line	328
  4508                           ;homem.c: 328: lcd_novo_char(1, slipE2);
  4509  05A9  30EC               	movlw	low(_slipE2|8000h)
  4510  05AA  1283               	bcf	status, 5	;RP0=0, select bank0
  4511  05AB  1303               	bcf	status, 6	;RP1=0, select bank0
  4512  05AC  00A3               	movwf	(?_lcd_novo_char)
  4513  05AD  3081               	movlw	high(_slipE2|8000h)
  4514  05AE  00A4               	movwf	((?_lcd_novo_char))+1
  4515  05AF  3001               	movlw	(01h)
  4516  05B0  160A  158A  2777   	fcall	_lcd_novo_char
              120A  118A         
  4517                           	line	329
  4518                           ;homem.c: 329: lcd_novo_char(2, slipE3);
  4519  05B5  30F4               	movlw	low(_slipE3|8000h)
  4520  05B6  1283               	bcf	status, 5	;RP0=0, select bank0
  4521  05B7  1303               	bcf	status, 6	;RP1=0, select bank0
  4522  05B8  00A3               	movwf	(?_lcd_novo_char)
  4523  05B9  3081               	movlw	high(_slipE3|8000h)
  4524  05BA  00A4               	movwf	((?_lcd_novo_char))+1
  4525  05BB  3002               	movlw	(02h)
  4526  05BC  160A  158A  2777   	fcall	_lcd_novo_char
              120A  118A         
  4527                           	line	330
  4528                           ;homem.c: 330: lcd_novo_char(3, slipE4);
  4529  05C1  30FC               	movlw	low(_slipE4|8000h)
  4530  05C2  1283               	bcf	status, 5	;RP0=0, select bank0
  4531  05C3  1303               	bcf	status, 6	;RP1=0, select bank0
  4532  05C4  00A3               	movwf	(?_lcd_novo_char)
  4533  05C5  3081               	movlw	high(_slipE4|8000h)
  4534  05C6  00A4               	movwf	((?_lcd_novo_char))+1
  4535  05C7  3003               	movlw	(03h)
  4536  05C8  160A  158A  2777   	fcall	_lcd_novo_char
              120A  118A         
  4537                           	line	331
  4538                           ;homem.c: 331: lcd_novo_char(4, slipE5);
  4539  05CD  3004               	movlw	low(_slipE5|8000h)
  4540  05CE  1283               	bcf	status, 5	;RP0=0, select bank0
  4541  05CF  1303               	bcf	status, 6	;RP1=0, select bank0
  4542  05D0  00A3               	movwf	(?_lcd_novo_char)
  4543  05D1  3082               	movlw	high(_slipE5|8000h)
  4544  05D2  00A4               	movwf	((?_lcd_novo_char))+1
  4545  05D3  3004               	movlw	(04h)
  4546  05D4  160A  158A  2777   	fcall	_lcd_novo_char
              120A  118A         
  4547                           	line	332
  4548                           ;homem.c: 332: lcd_novo_char(5, slipE6);
  4549  05D9  300C               	movlw	low(_slipE6|8000h)
  4550  05DA  1283               	bcf	status, 5	;RP0=0, select bank0
  4551  05DB  1303               	bcf	status, 6	;RP1=0, select bank0
  4552  05DC  00A3               	movwf	(?_lcd_novo_char)
  4553  05DD  3082               	movlw	high(_slipE6|8000h)
  4554  05DE  00A4               	movwf	((?_lcd_novo_char))+1
  4555  05DF  3005               	movlw	(05h)
  4556  05E0  160A  158A  2777   	fcall	_lcd_novo_char
              120A  118A         
  4557                           	line	333
  4558                           ;homem.c: 333: lcd_cursor_ddram(a, 1);
  4559  05E5  1283               	bcf	status, 5	;RP0=0, select bank0
  4560  05E6  1303               	bcf	status, 6	;RP1=0, select bank0
  4561  05E7  01A3               	clrf	(?_lcd_cursor_ddram)
  4562  05E8  1403               	bsf	status,0
  4563  05E9  0DA3               	rlf	(?_lcd_cursor_ddram),f
  4564  05EA  0838               	movf	(homem_vira_esquerda@a),w
  4565  05EB  160A  118A  20C8   	fcall	_lcd_cursor_ddram
              120A  118A         
  4566                           	line	334
  4567                           	
  4568  05F0                     l8486:	
  4569                           ;homem.c: 334: lcd_putch(0);
  4570  05F0  3000               	movlw	(0)
  4571  05F1  160A  158A  256B   	fcall	_lcd_putch
              120A  118A         
  4572                           	line	335
  4573                           	
  4574  05F6                     l8488:	
  4575                           ;homem.c: 335: lcd_cursor_ddram(a, 0);
  4576  05F6  1283               	bcf	status, 5	;RP0=0, select bank0
  4577  05F7  1303               	bcf	status, 6	;RP1=0, select bank0
  4578  05F8  01A3               	clrf	(?_lcd_cursor_ddram)
  4579  05F9  0838               	movf	(homem_vira_esquerda@a),w
  4580  05FA  160A  118A  20C8   	fcall	_lcd_cursor_ddram
              120A  118A         
  4581                           	line	336
  4582                           ;homem.c: 336: lcd_putch(1);
  4583  05FF  3001               	movlw	(01h)
  4584  0600  160A  158A  256B   	fcall	_lcd_putch
              120A  118A         
  4585                           	line	337
  4586                           	
  4587  0605                     l8490:	
  4588                           ;homem.c: 337: lcd_cursor_ddram(b, 1);
  4589  0605  1283               	bcf	status, 5	;RP0=0, select bank0
  4590  0606  1303               	bcf	status, 6	;RP1=0, select bank0
  4591  0607  01A3               	clrf	(?_lcd_cursor_ddram)
  4592  0608  1403               	bsf	status,0
  4593  0609  0DA3               	rlf	(?_lcd_cursor_ddram),f
  4594  060A  0834               	movf	(homem_vira_esquerda@b),w
  4595  060B  160A  118A  20C8   	fcall	_lcd_cursor_ddram
              120A  118A         
  4596                           	line	338
  4597                           	
  4598  0610                     l8492:	
  4599                           ;homem.c: 338: lcd_putch(2);
  4600  0610  3002               	movlw	(02h)
  4601  0611  160A  158A  256B   	fcall	_lcd_putch
              120A  118A         
  4602                           	line	339
  4603                           ;homem.c: 339: lcd_cursor_ddram(b, 0);
  4604  0616  1283               	bcf	status, 5	;RP0=0, select bank0
  4605  0617  1303               	bcf	status, 6	;RP1=0, select bank0
  4606  0618  01A3               	clrf	(?_lcd_cursor_ddram)
  4607  0619  0834               	movf	(homem_vira_esquerda@b),w
  4608  061A  160A  118A  20C8   	fcall	_lcd_cursor_ddram
              120A  118A         
  4609                           	line	340
  4610                           	
  4611  061F                     l8494:	
  4612                           ;homem.c: 340: lcd_putch(3);
  4613  061F  3003               	movlw	(03h)
  4614  0620  160A  158A  256B   	fcall	_lcd_putch
              120A  118A         
  4615                           	line	341
  4616                           	
  4617  0625                     l8496:	
  4618                           ;homem.c: 341: lcd_cursor_ddram(c, 1);
  4619  0625  1283               	bcf	status, 5	;RP0=0, select bank0
  4620  0626  1303               	bcf	status, 6	;RP1=0, select bank0
  4621  0627  01A3               	clrf	(?_lcd_cursor_ddram)
  4622  0628  1403               	bsf	status,0
  4623  0629  0DA3               	rlf	(?_lcd_cursor_ddram),f
  4624  062A  0836               	movf	(homem_vira_esquerda@c),w
  4625  062B  160A  118A  20C8   	fcall	_lcd_cursor_ddram
              120A  118A         
  4626                           	line	342
  4627                           ;homem.c: 342: lcd_putch(4);
  4628  0630  3004               	movlw	(04h)
  4629  0631  160A  158A  256B   	fcall	_lcd_putch
              120A  118A         
  4630                           	line	343
  4631                           	
  4632  0636                     l8498:	
  4633                           ;homem.c: 343: lcd_cursor_ddram(c, 0);
  4634  0636  1283               	bcf	status, 5	;RP0=0, select bank0
  4635  0637  1303               	bcf	status, 6	;RP1=0, select bank0
  4636  0638  01A3               	clrf	(?_lcd_cursor_ddram)
  4637  0639  0836               	movf	(homem_vira_esquerda@c),w
  4638  063A  160A  118A  20C8   	fcall	_lcd_cursor_ddram
              120A  118A         
  4639                           	line	344
  4640                           	
  4641  063F                     l8500:	
  4642                           ;homem.c: 344: lcd_putch(5);
  4643  063F  3005               	movlw	(05h)
  4644  0640  160A  158A  256B   	fcall	_lcd_putch
              120A  118A         
  4645                           	line	345
  4646                           	
  4647  0645                     l8502:	
  4648                           ;homem.c: 345: _delay((unsigned long)((150)*(20000000/4000.0)));
  4649                           	opt asmopt_off
  4650  0645  3004               movlw  4
  4651  0646  1283               	bcf	status, 5	;RP0=0, select bank0
  4652  0647  1303               	bcf	status, 6	;RP1=0, select bank0
  4653  0648  00B3               movwf	((??_homem_vira_esquerda+0)+0+2),f
  4654  0649  30CF               movlw	207
  4655  064A  00B2               movwf	((??_homem_vira_esquerda+0)+0+1),f
  4656  064B  3003               	movlw	3
  4657  064C  00B1               movwf	((??_homem_vira_esquerda+0)+0),f
  4658  064D                     u3647:
  4659  064D  0BB1               	decfsz	((??_homem_vira_esquerda+0)+0),f
  4660  064E  2E4D               	goto	u3647
  4661  064F  0BB2               	decfsz	((??_homem_vira_esquerda+0)+0+1),f
  4662  0650  2E4D               	goto	u3647
  4663  0651  0BB3               	decfsz	((??_homem_vira_esquerda+0)+0+2),f
  4664  0652  2E4D               	goto	u3647
  4665  0653  2E54               	nop2
  4666                           opt asmopt_on
  4667                           
  4668                           	line	346
  4669                           	
  4670  0654                     l8504:	
  4671                           ;homem.c: 346: lcd_novo_char(0, slipF1);
  4672  0654  3014               	movlw	low(_slipF1|8000h)
  4673  0655  1283               	bcf	status, 5	;RP0=0, select bank0
  4674  0656  1303               	bcf	status, 6	;RP1=0, select bank0
  4675  0657  00A3               	movwf	(?_lcd_novo_char)
  4676  0658  3082               	movlw	high(_slipF1|8000h)
  4677  0659  00A4               	movwf	((?_lcd_novo_char))+1
  4678  065A  3000               	movlw	(0)
  4679  065B  160A  158A  2777   	fcall	_lcd_novo_char
              120A  118A         
  4680                           	line	347
  4681                           	
  4682  0660                     l8506:	
  4683                           ;homem.c: 347: lcd_novo_char(1, slipF2);
  4684  0660  301C               	movlw	low(_slipF2|8000h)
  4685  0661  1283               	bcf	status, 5	;RP0=0, select bank0
  4686  0662  1303               	bcf	status, 6	;RP1=0, select bank0
  4687  0663  00A3               	movwf	(?_lcd_novo_char)
  4688  0664  3082               	movlw	high(_slipF2|8000h)
  4689  0665  00A4               	movwf	((?_lcd_novo_char))+1
  4690  0666  3001               	movlw	(01h)
  4691  0667  160A  158A  2777   	fcall	_lcd_novo_char
              120A  118A         
  4692                           	line	348
  4693                           	
  4694  066C                     l8508:	
  4695                           ;homem.c: 348: lcd_novo_char(2, slipF3);
  4696  066C  3024               	movlw	low(_slipF3|8000h)
  4697  066D  1283               	bcf	status, 5	;RP0=0, select bank0
  4698  066E  1303               	bcf	status, 6	;RP1=0, select bank0
  4699  066F  00A3               	movwf	(?_lcd_novo_char)
  4700  0670  3082               	movlw	high(_slipF3|8000h)
  4701  0671  00A4               	movwf	((?_lcd_novo_char))+1
  4702  0672  3002               	movlw	(02h)
  4703  0673  160A  158A  2777   	fcall	_lcd_novo_char
              120A  118A         
  4704                           	line	349
  4705                           	
  4706  0678                     l8510:	
  4707                           ;homem.c: 349: lcd_novo_char(3, slipF4);
  4708  0678  302C               	movlw	low(_slipF4|8000h)
  4709  0679  1283               	bcf	status, 5	;RP0=0, select bank0
  4710  067A  1303               	bcf	status, 6	;RP1=0, select bank0
  4711  067B  00A3               	movwf	(?_lcd_novo_char)
  4712  067C  3082               	movlw	high(_slipF4|8000h)
  4713  067D  00A4               	movwf	((?_lcd_novo_char))+1
  4714  067E  3003               	movlw	(03h)
  4715  067F  160A  158A  2777   	fcall	_lcd_novo_char
              120A  118A         
  4716                           	line	350
  4717                           	
  4718  0684                     l8512:	
  4719                           ;homem.c: 350: lcd_novo_char(4, slipF5);
  4720  0684  3034               	movlw	low(_slipF5|8000h)
  4721  0685  1283               	bcf	status, 5	;RP0=0, select bank0
  4722  0686  1303               	bcf	status, 6	;RP1=0, select bank0
  4723  0687  00A3               	movwf	(?_lcd_novo_char)
  4724  0688  3082               	movlw	high(_slipF5|8000h)
  4725  0689  00A4               	movwf	((?_lcd_novo_char))+1
  4726  068A  3004               	movlw	(04h)
  4727  068B  160A  158A  2777   	fcall	_lcd_novo_char
              120A  118A         
  4728                           	line	351
  4729                           	
  4730  0690                     l8514:	
  4731                           ;homem.c: 351: lcd_novo_char(5, slipF6);
  4732  0690  303C               	movlw	low(_slipF6|8000h)
  4733  0691  1283               	bcf	status, 5	;RP0=0, select bank0
  4734  0692  1303               	bcf	status, 6	;RP1=0, select bank0
  4735  0693  00A3               	movwf	(?_lcd_novo_char)
  4736  0694  3082               	movlw	high(_slipF6|8000h)
  4737  0695  00A4               	movwf	((?_lcd_novo_char))+1
  4738  0696  3005               	movlw	(05h)
  4739  0697  160A  158A  2777   	fcall	_lcd_novo_char
              120A  118A         
  4740                           	line	352
  4741                           	
  4742  069C                     l8516:	
  4743                           ;homem.c: 352: lcd_cursor_ddram(a, 1);
  4744  069C  1283               	bcf	status, 5	;RP0=0, select bank0
  4745  069D  1303               	bcf	status, 6	;RP1=0, select bank0
  4746  069E  01A3               	clrf	(?_lcd_cursor_ddram)
  4747  069F  1403               	bsf	status,0
  4748  06A0  0DA3               	rlf	(?_lcd_cursor_ddram),f
  4749  06A1  0838               	movf	(homem_vira_esquerda@a),w
  4750  06A2  160A  118A  20C8   	fcall	_lcd_cursor_ddram
              120A  118A         
  4751                           	line	353
  4752                           	
  4753  06A7                     l8518:	
  4754                           ;homem.c: 353: lcd_putch(0);
  4755  06A7  3000               	movlw	(0)
  4756  06A8  160A  158A  256B   	fcall	_lcd_putch
              120A  118A         
  4757                           	line	354
  4758                           	
  4759  06AD                     l8520:	
  4760                           ;homem.c: 354: lcd_cursor_ddram(a, 0);
  4761  06AD  1283               	bcf	status, 5	;RP0=0, select bank0
  4762  06AE  1303               	bcf	status, 6	;RP1=0, select bank0
  4763  06AF  01A3               	clrf	(?_lcd_cursor_ddram)
  4764  06B0  0838               	movf	(homem_vira_esquerda@a),w
  4765  06B1  160A  118A  20C8   	fcall	_lcd_cursor_ddram
              120A  118A         
  4766                           	line	355
  4767                           	
  4768  06B6                     l8522:	
  4769                           ;homem.c: 355: lcd_putch(1);
  4770  06B6  3001               	movlw	(01h)
  4771  06B7  160A  158A  256B   	fcall	_lcd_putch
              120A  118A         
  4772                           	line	356
  4773                           	
  4774  06BC                     l8524:	
  4775                           ;homem.c: 356: lcd_cursor_ddram(b, 1);
  4776  06BC  1283               	bcf	status, 5	;RP0=0, select bank0
  4777  06BD  1303               	bcf	status, 6	;RP1=0, select bank0
  4778  06BE  01A3               	clrf	(?_lcd_cursor_ddram)
  4779  06BF  1403               	bsf	status,0
  4780  06C0  0DA3               	rlf	(?_lcd_cursor_ddram),f
  4781  06C1  0834               	movf	(homem_vira_esquerda@b),w
  4782  06C2  160A  118A  20C8   	fcall	_lcd_cursor_ddram
              120A  118A         
  4783                           	line	357
  4784                           	
  4785  06C7                     l8526:	
  4786                           ;homem.c: 357: lcd_putch(2);
  4787  06C7  3002               	movlw	(02h)
  4788  06C8  160A  158A  256B   	fcall	_lcd_putch
              120A  118A         
  4789                           	line	358
  4790                           	
  4791  06CD                     l8528:	
  4792                           ;homem.c: 358: lcd_cursor_ddram(b, 0);
  4793  06CD  1283               	bcf	status, 5	;RP0=0, select bank0
  4794  06CE  1303               	bcf	status, 6	;RP1=0, select bank0
  4795  06CF  01A3               	clrf	(?_lcd_cursor_ddram)
  4796  06D0  0834               	movf	(homem_vira_esquerda@b),w
  4797  06D1  160A  118A  20C8   	fcall	_lcd_cursor_ddram
              120A  118A         
  4798                           	line	359
  4799                           	
  4800  06D6                     l8530:	
  4801                           ;homem.c: 359: lcd_putch(3);
  4802  06D6  3003               	movlw	(03h)
  4803  06D7  160A  158A  256B   	fcall	_lcd_putch
              120A  118A         
  4804                           	line	360
  4805                           	
  4806  06DC                     l8532:	
  4807                           ;homem.c: 360: lcd_cursor_ddram(c, 1);
  4808  06DC  1283               	bcf	status, 5	;RP0=0, select bank0
  4809  06DD  1303               	bcf	status, 6	;RP1=0, select bank0
  4810  06DE  01A3               	clrf	(?_lcd_cursor_ddram)
  4811  06DF  1403               	bsf	status,0
  4812  06E0  0DA3               	rlf	(?_lcd_cursor_ddram),f
  4813  06E1  0836               	movf	(homem_vira_esquerda@c),w
  4814  06E2  160A  118A  20C8   	fcall	_lcd_cursor_ddram
              120A  118A         
  4815                           	line	361
  4816                           	
  4817  06E7                     l8534:	
  4818                           ;homem.c: 361: lcd_putch(4);
  4819  06E7  3004               	movlw	(04h)
  4820  06E8  160A  158A  256B   	fcall	_lcd_putch
              120A  118A         
  4821                           	line	362
  4822                           	
  4823  06ED                     l8536:	
  4824                           ;homem.c: 362: lcd_cursor_ddram(c, 0);
  4825  06ED  1283               	bcf	status, 5	;RP0=0, select bank0
  4826  06EE  1303               	bcf	status, 6	;RP1=0, select bank0
  4827  06EF  01A3               	clrf	(?_lcd_cursor_ddram)
  4828  06F0  0836               	movf	(homem_vira_esquerda@c),w
  4829  06F1  160A  118A  20C8   	fcall	_lcd_cursor_ddram
              120A  118A         
  4830                           	line	363
  4831                           	
  4832  06F6                     l8538:	
  4833                           ;homem.c: 363: lcd_putch(5);
  4834  06F6  3005               	movlw	(05h)
  4835  06F7  160A  158A  256B   	fcall	_lcd_putch
              120A  118A         
  4836                           	line	364
  4837                           	
  4838  06FC                     l8540:	
  4839                           ;homem.c: 364: _delay((unsigned long)((150)*(20000000/4000.0)));
  4840                           	opt asmopt_off
  4841  06FC  3004               movlw  4
  4842  06FD  1283               	bcf	status, 5	;RP0=0, select bank0
  4843  06FE  1303               	bcf	status, 6	;RP1=0, select bank0
  4844  06FF  00B3               movwf	((??_homem_vira_esquerda+0)+0+2),f
  4845  0700  30CF               movlw	207
  4846  0701  00B2               movwf	((??_homem_vira_esquerda+0)+0+1),f
  4847  0702  3003               	movlw	3
  4848  0703  00B1               movwf	((??_homem_vira_esquerda+0)+0),f
  4849  0704                     u3657:
  4850  0704  0BB1               	decfsz	((??_homem_vira_esquerda+0)+0),f
  4851  0705  2F04               	goto	u3657
  4852  0706  0BB2               	decfsz	((??_homem_vira_esquerda+0)+0+1),f
  4853  0707  2F04               	goto	u3657
  4854  0708  0BB3               	decfsz	((??_homem_vira_esquerda+0)+0+2),f
  4855  0709  2F04               	goto	u3657
  4856  070A  2F0B               	nop2
  4857                           opt asmopt_on
  4858                           
  4859                           	line	365
  4860                           	
  4861  070B                     l4961:	
  4862  070B  0008               	return
  4863                           	opt stack 0
  4864                           GLOBAL	__end_of_homem_vira_esquerda
  4865  070C                     	__end_of_homem_vira_esquerda:
  4866 ;; =============== function _homem_vira_esquerda ends ============
  4867                           
  4868                           	signat	_homem_vira_esquerda,88
  4869                           	global	_homem_corre_direita
  4870                           psect	text952,local,class=CODE,delta=2
  4871                           global __ptext952
  4872  0C9C                     __ptext952:
  4873                           
  4874 ;; *************** function _homem_corre_direita *****************
  4875 ;; Defined at:
  4876 ;;		line 201 in file "homem.c"
  4877 ;; Parameters:    Size  Location     Type
  4878 ;;		None
  4879 ;; Auto vars:     Size  Location     Type
  4880 ;;  a               1   26[BANK0 ] unsigned char 
  4881 ;;  e               1   25[BANK0 ] unsigned char 
  4882 ;;  d               1   24[BANK0 ] unsigned char 
  4883 ;;  f               1   23[BANK0 ] unsigned char 
  4884 ;;  c               1   22[BANK0 ] unsigned char 
  4885 ;;  g               1   21[BANK0 ] unsigned char 
  4886 ;;  b               1   20[BANK0 ] unsigned char 
  4887 ;; Return value:  Size  Location     Type
  4888 ;;		None               void
  4889 ;; Registers used:
  4890 ;;		wreg, fsr0l, fsr0h, status,2, status,0, btemp+1, pclath, cstack
  4891 ;; Tracked objects:
  4892 ;;		On entry : 0/0
  4893 ;;		On exit  : 0/0
  4894 ;;		Unchanged: 0/0
  4895 ;; Data sizes:     COMMON   BANK0   BANK1   BANK3   BANK2
  4896 ;;      Params:         0       0       0       0       0
  4897 ;;      Locals:         0       7       0       0       0
  4898 ;;      Temps:          0       3       0       0       0
  4899 ;;      Totals:         0      10       0       0       0
  4900 ;;Total ram usage:       10 bytes
  4901 ;; Hardware stack levels used:    1
  4902 ;; Hardware stack levels required when called:    5
  4903 ;; This function calls:
  4904 ;;		_lcd_clear
  4905 ;;		_lcd_string
  4906 ;;		_lcd_novo_char
  4907 ;;		_lcd_cursor_ddram
  4908 ;;		_lcd_putch
  4909 ;; This function is called by:
  4910 ;;		_homem_animacao
  4911 ;; This function uses a non-reentrant model
  4912 ;;
  4913                           psect	text952
  4914                           	file	"homem.c"
  4915                           	line	201
  4916                           	global	__size_of_homem_corre_direita
  4917  0364                     	__size_of_homem_corre_direita	equ	__end_of_homem_corre_direita-_homem_corre_direita
  4918                           	
  4919  0C9C                     _homem_corre_direita:	
  4920                           	opt	stack 1
  4921                           ; Regs used in _homem_corre_direita: [wreg-fsr0h+status,2+status,0+btemp+1+pclath+cstack
                                 ]
  4922                           	line	204
  4923                           	
  4924  0C9C                     l8260:	
  4925                           ;homem.c: 202: unsigned char a, b, c, d, e, f, g;
  4926                           ;homem.c: 204: for (a = 16; a > 4; a -= 4) {
  4927  0C9C  3010               	movlw	(010h)
  4928  0C9D  1283               	bcf	status, 5	;RP0=0, select bank0
  4929  0C9E  1303               	bcf	status, 6	;RP1=0, select bank0
  4930  0C9F  00B1               	movwf	(??_homem_corre_direita+0)+0
  4931  0CA0  0831               	movf	(??_homem_corre_direita+0)+0,w
  4932  0CA1  00BA               	movwf	(homem_corre_direita@a)
  4933  0CA2  3005               	movlw	(05h)
  4934  0CA3  023A               	subwf	(homem_corre_direita@a),w
  4935  0CA4  1803               	skipnc
  4936  0CA5  2CA7               	goto	u3451
  4937  0CA6  2CA8               	goto	u3450
  4938  0CA7                     u3451:
  4939  0CA7  2CAA               	goto	l8264
  4940  0CA8                     u3450:
  4941  0CA8  2FFF               	goto	l4958
  4942                           	
  4943  0CA9                     l8262:	
  4944  0CA9  2FFF               	goto	l4958
  4945                           	
  4946  0CAA                     l4956:	
  4947                           	line	205
  4948                           	
  4949  0CAA                     l8264:	
  4950                           ;homem.c: 205: b = a - 1;
  4951  0CAA  083A               	movf	(homem_corre_direita@a),w
  4952  0CAB  3EFF               	addlw	0FFh
  4953  0CAC  00B1               	movwf	(??_homem_corre_direita+0)+0
  4954  0CAD  0831               	movf	(??_homem_corre_direita+0)+0,w
  4955  0CAE  00B4               	movwf	(homem_corre_direita@b)
  4956                           	line	206
  4957                           ;homem.c: 206: c = a - 2;
  4958  0CAF  083A               	movf	(homem_corre_direita@a),w
  4959  0CB0  3EFE               	addlw	0FEh
  4960  0CB1  00B1               	movwf	(??_homem_corre_direita+0)+0
  4961  0CB2  0831               	movf	(??_homem_corre_direita+0)+0,w
  4962  0CB3  00B6               	movwf	(homem_corre_direita@c)
  4963                           	line	207
  4964                           ;homem.c: 207: d = a - 3;
  4965  0CB4  083A               	movf	(homem_corre_direita@a),w
  4966  0CB5  3EFD               	addlw	0FDh
  4967  0CB6  00B1               	movwf	(??_homem_corre_direita+0)+0
  4968  0CB7  0831               	movf	(??_homem_corre_direita+0)+0,w
  4969  0CB8  00B8               	movwf	(homem_corre_direita@d)
  4970                           	line	208
  4971                           ;homem.c: 208: e = a - 4;
  4972  0CB9  083A               	movf	(homem_corre_direita@a),w
  4973  0CBA  3EFC               	addlw	0FCh
  4974  0CBB  00B1               	movwf	(??_homem_corre_direita+0)+0
  4975  0CBC  0831               	movf	(??_homem_corre_direita+0)+0,w
  4976  0CBD  00B9               	movwf	(homem_corre_direita@e)
  4977                           	line	209
  4978                           ;homem.c: 209: f = a - 5;
  4979  0CBE  083A               	movf	(homem_corre_direita@a),w
  4980  0CBF  3EFB               	addlw	0FBh
  4981  0CC0  00B1               	movwf	(??_homem_corre_direita+0)+0
  4982  0CC1  0831               	movf	(??_homem_corre_direita+0)+0,w
  4983  0CC2  00B7               	movwf	(homem_corre_direita@f)
  4984                           	line	210
  4985                           ;homem.c: 210: g = a - 6;
  4986  0CC3  083A               	movf	(homem_corre_direita@a),w
  4987  0CC4  3EFA               	addlw	0FAh
  4988  0CC5  00B1               	movwf	(??_homem_corre_direita+0)+0
  4989  0CC6  0831               	movf	(??_homem_corre_direita+0)+0,w
  4990  0CC7  00B5               	movwf	(homem_corre_direita@g)
  4991                           	line	212
  4992                           	
  4993  0CC8                     l8266:	
  4994                           ;homem.c: 212: lcd_clear();
  4995  0CC8  160A  158A  25D6   	fcall	_lcd_clear
              120A  158A         
  4996                           	line	213
  4997                           	
  4998  0CCD                     l8268:	
  4999                           ;homem.c: 213: lcd_string((char *) "----------------", 0x10);
  5000  0CCD  30DF               	movlw	low(STR_30|8000h)
  5001  0CCE  1283               	bcf	status, 5	;RP0=0, select bank0
  5002  0CCF  1303               	bcf	status, 6	;RP1=0, select bank0
  5003  0CD0  00A4               	movwf	(?_lcd_string)
  5004  0CD1  3083               	movlw	high(STR_30|8000h)
  5005  0CD2  00A5               	movwf	((?_lcd_string))+1
  5006  0CD3  3010               	movlw	(010h)
  5007  0CD4  00B1               	movwf	(??_homem_corre_direita+0)+0
  5008  0CD5  0831               	movf	(??_homem_corre_direita+0)+0,w
  5009  0CD6  00A6               	movwf	0+(?_lcd_string)+02h
  5010  0CD7  160A  158A  2699   	fcall	_lcd_string
              120A  158A         
  5011                           	line	214
  5012                           	
  5013  0CDC                     l8270:	
  5014                           ;homem.c: 214: lcd_novo_char(0, stepE1);
  5015  0CDC  3004               	movlw	low(_stepE1|8000h)
  5016  0CDD  1283               	bcf	status, 5	;RP0=0, select bank0
  5017  0CDE  1303               	bcf	status, 6	;RP1=0, select bank0
  5018  0CDF  00A3               	movwf	(?_lcd_novo_char)
  5019  0CE0  3083               	movlw	high(_stepE1|8000h)
  5020  0CE1  00A4               	movwf	((?_lcd_novo_char))+1
  5021  0CE2  3000               	movlw	(0)
  5022  0CE3  160A  158A  2777   	fcall	_lcd_novo_char
              120A  158A         
  5023                           	line	215
  5024                           	
  5025  0CE8                     l8272:	
  5026                           ;homem.c: 215: lcd_novo_char(1, stepE2);
  5027  0CE8  300C               	movlw	low(_stepE2|8000h)
  5028  0CE9  1283               	bcf	status, 5	;RP0=0, select bank0
  5029  0CEA  1303               	bcf	status, 6	;RP1=0, select bank0
  5030  0CEB  00A3               	movwf	(?_lcd_novo_char)
  5031  0CEC  3083               	movlw	high(_stepE2|8000h)
  5032  0CED  00A4               	movwf	((?_lcd_novo_char))+1
  5033  0CEE  3001               	movlw	(01h)
  5034  0CEF  160A  158A  2777   	fcall	_lcd_novo_char
              120A  158A         
  5035                           	line	216
  5036                           	
  5037  0CF4                     l8274:	
  5038                           ;homem.c: 216: lcd_novo_char(2, stepE3);
  5039  0CF4  3014               	movlw	low(_stepE3|8000h)
  5040  0CF5  1283               	bcf	status, 5	;RP0=0, select bank0
  5041  0CF6  1303               	bcf	status, 6	;RP1=0, select bank0
  5042  0CF7  00A3               	movwf	(?_lcd_novo_char)
  5043  0CF8  3083               	movlw	high(_stepE3|8000h)
  5044  0CF9  00A4               	movwf	((?_lcd_novo_char))+1
  5045  0CFA  3002               	movlw	(02h)
  5046  0CFB  160A  158A  2777   	fcall	_lcd_novo_char
              120A  158A         
  5047                           	line	217
  5048                           	
  5049  0D00                     l8276:	
  5050                           ;homem.c: 217: lcd_novo_char(3, stepE4);
  5051  0D00  301C               	movlw	low(_stepE4|8000h)
  5052  0D01  1283               	bcf	status, 5	;RP0=0, select bank0
  5053  0D02  1303               	bcf	status, 6	;RP1=0, select bank0
  5054  0D03  00A3               	movwf	(?_lcd_novo_char)
  5055  0D04  3083               	movlw	high(_stepE4|8000h)
  5056  0D05  00A4               	movwf	((?_lcd_novo_char))+1
  5057  0D06  3003               	movlw	(03h)
  5058  0D07  160A  158A  2777   	fcall	_lcd_novo_char
              120A  158A         
  5059                           	line	218
  5060                           	
  5061  0D0C                     l8278:	
  5062                           ;homem.c: 218: lcd_novo_char(4, stepE5);
  5063  0D0C  3024               	movlw	low(_stepE5|8000h)
  5064  0D0D  1283               	bcf	status, 5	;RP0=0, select bank0
  5065  0D0E  1303               	bcf	status, 6	;RP1=0, select bank0
  5066  0D0F  00A3               	movwf	(?_lcd_novo_char)
  5067  0D10  3083               	movlw	high(_stepE5|8000h)
  5068  0D11  00A4               	movwf	((?_lcd_novo_char))+1
  5069  0D12  3004               	movlw	(04h)
  5070  0D13  160A  158A  2777   	fcall	_lcd_novo_char
              120A  158A         
  5071                           	line	219
  5072                           	
  5073  0D18                     l8280:	
  5074                           ;homem.c: 219: lcd_novo_char(5, stepE6);
  5075  0D18  302C               	movlw	low(_stepE6|8000h)
  5076  0D19  1283               	bcf	status, 5	;RP0=0, select bank0
  5077  0D1A  1303               	bcf	status, 6	;RP1=0, select bank0
  5078  0D1B  00A3               	movwf	(?_lcd_novo_char)
  5079  0D1C  3083               	movlw	high(_stepE6|8000h)
  5080  0D1D  00A4               	movwf	((?_lcd_novo_char))+1
  5081  0D1E  3005               	movlw	(05h)
  5082  0D1F  160A  158A  2777   	fcall	_lcd_novo_char
              120A  158A         
  5083                           	line	220
  5084                           	
  5085  0D24                     l8282:	
  5086                           ;homem.c: 220: lcd_cursor_ddram(d, 1);
  5087  0D24  1283               	bcf	status, 5	;RP0=0, select bank0
  5088  0D25  1303               	bcf	status, 6	;RP1=0, select bank0
  5089  0D26  01A3               	clrf	(?_lcd_cursor_ddram)
  5090  0D27  1403               	bsf	status,0
  5091  0D28  0DA3               	rlf	(?_lcd_cursor_ddram),f
  5092  0D29  0838               	movf	(homem_corre_direita@d),w
  5093  0D2A  160A  118A  20C8   	fcall	_lcd_cursor_ddram
              120A  158A         
  5094                           	line	221
  5095                           	
  5096  0D2F                     l8284:	
  5097                           ;homem.c: 221: lcd_putch(0);
  5098  0D2F  3000               	movlw	(0)
  5099  0D30  160A  158A  256B   	fcall	_lcd_putch
              120A  158A         
  5100                           	line	222
  5101                           	
  5102  0D35                     l8286:	
  5103                           ;homem.c: 222: lcd_cursor_ddram(d, 0);
  5104  0D35  1283               	bcf	status, 5	;RP0=0, select bank0
  5105  0D36  1303               	bcf	status, 6	;RP1=0, select bank0
  5106  0D37  01A3               	clrf	(?_lcd_cursor_ddram)
  5107  0D38  0838               	movf	(homem_corre_direita@d),w
  5108  0D39  160A  118A  20C8   	fcall	_lcd_cursor_ddram
              120A  158A         
  5109                           	line	223
  5110                           	
  5111  0D3E                     l8288:	
  5112                           ;homem.c: 223: lcd_putch(1);
  5113  0D3E  3001               	movlw	(01h)
  5114  0D3F  160A  158A  256B   	fcall	_lcd_putch
              120A  158A         
  5115                           	line	224
  5116                           	
  5117  0D44                     l8290:	
  5118                           ;homem.c: 224: lcd_cursor_ddram(c, 1);
  5119  0D44  1283               	bcf	status, 5	;RP0=0, select bank0
  5120  0D45  1303               	bcf	status, 6	;RP1=0, select bank0
  5121  0D46  01A3               	clrf	(?_lcd_cursor_ddram)
  5122  0D47  1403               	bsf	status,0
  5123  0D48  0DA3               	rlf	(?_lcd_cursor_ddram),f
  5124  0D49  0836               	movf	(homem_corre_direita@c),w
  5125  0D4A  160A  118A  20C8   	fcall	_lcd_cursor_ddram
              120A  158A         
  5126                           	line	225
  5127                           	
  5128  0D4F                     l8292:	
  5129                           ;homem.c: 225: lcd_putch(2);
  5130  0D4F  3002               	movlw	(02h)
  5131  0D50  160A  158A  256B   	fcall	_lcd_putch
              120A  158A         
  5132                           	line	226
  5133                           	
  5134  0D55                     l8294:	
  5135                           ;homem.c: 226: lcd_cursor_ddram(c, 0);
  5136  0D55  1283               	bcf	status, 5	;RP0=0, select bank0
  5137  0D56  1303               	bcf	status, 6	;RP1=0, select bank0
  5138  0D57  01A3               	clrf	(?_lcd_cursor_ddram)
  5139  0D58  0836               	movf	(homem_corre_direita@c),w
  5140  0D59  160A  118A  20C8   	fcall	_lcd_cursor_ddram
              120A  158A         
  5141                           	line	227
  5142                           	
  5143  0D5E                     l8296:	
  5144                           ;homem.c: 227: lcd_putch(3);
  5145  0D5E  3003               	movlw	(03h)
  5146  0D5F  160A  158A  256B   	fcall	_lcd_putch
              120A  158A         
  5147                           	line	228
  5148                           	
  5149  0D64                     l8298:	
  5150                           ;homem.c: 228: lcd_cursor_ddram(b, 1);
  5151  0D64  1283               	bcf	status, 5	;RP0=0, select bank0
  5152  0D65  1303               	bcf	status, 6	;RP1=0, select bank0
  5153  0D66  01A3               	clrf	(?_lcd_cursor_ddram)
  5154  0D67  1403               	bsf	status,0
  5155  0D68  0DA3               	rlf	(?_lcd_cursor_ddram),f
  5156  0D69  0834               	movf	(homem_corre_direita@b),w
  5157  0D6A  160A  118A  20C8   	fcall	_lcd_cursor_ddram
              120A  158A         
  5158                           	line	229
  5159                           	
  5160  0D6F                     l8300:	
  5161                           ;homem.c: 229: lcd_putch(4);
  5162  0D6F  3004               	movlw	(04h)
  5163  0D70  160A  158A  256B   	fcall	_lcd_putch
              120A  158A         
  5164                           	line	230
  5165                           	
  5166  0D75                     l8302:	
  5167                           ;homem.c: 230: lcd_cursor_ddram(b, 0);
  5168  0D75  1283               	bcf	status, 5	;RP0=0, select bank0
  5169  0D76  1303               	bcf	status, 6	;RP1=0, select bank0
  5170  0D77  01A3               	clrf	(?_lcd_cursor_ddram)
  5171  0D78  0834               	movf	(homem_corre_direita@b),w
  5172  0D79  160A  118A  20C8   	fcall	_lcd_cursor_ddram
              120A  158A         
  5173                           	line	231
  5174                           	
  5175  0D7E                     l8304:	
  5176                           ;homem.c: 231: lcd_putch(5);
  5177  0D7E  3005               	movlw	(05h)
  5178  0D7F  160A  158A  256B   	fcall	_lcd_putch
              120A  158A         
  5179                           	line	232
  5180                           	
  5181  0D84                     l8306:	
  5182                           ;homem.c: 232: _delay((unsigned long)((150)*(20000000/4000.0)));
  5183                           	opt asmopt_off
  5184  0D84  3004               movlw  4
  5185  0D85  1283               	bcf	status, 5	;RP0=0, select bank0
  5186  0D86  1303               	bcf	status, 6	;RP1=0, select bank0
  5187  0D87  00B3               movwf	((??_homem_corre_direita+0)+0+2),f
  5188  0D88  30CF               movlw	207
  5189  0D89  00B2               movwf	((??_homem_corre_direita+0)+0+1),f
  5190  0D8A  3003               	movlw	3
  5191  0D8B  00B1               movwf	((??_homem_corre_direita+0)+0),f
  5192  0D8C                     u3667:
  5193  0D8C  0BB1               	decfsz	((??_homem_corre_direita+0)+0),f
  5194  0D8D  2D8C               	goto	u3667
  5195  0D8E  0BB2               	decfsz	((??_homem_corre_direita+0)+0+1),f
  5196  0D8F  2D8C               	goto	u3667
  5197  0D90  0BB3               	decfsz	((??_homem_corre_direita+0)+0+2),f
  5198  0D91  2D8C               	goto	u3667
  5199  0D92  2D93               	nop2
  5200                           opt asmopt_on
  5201                           
  5202                           	line	233
  5203                           	
  5204  0D93                     l8308:	
  5205                           ;homem.c: 233: lcd_clear();
  5206  0D93  160A  158A  25D6   	fcall	_lcd_clear
              120A  158A         
  5207                           	line	234
  5208                           	
  5209  0D98                     l8310:	
  5210                           ;homem.c: 234: lcd_string((char *) "----------------", 0x10);
  5211  0D98  30DF               	movlw	low(STR_31|8000h)
  5212  0D99  1283               	bcf	status, 5	;RP0=0, select bank0
  5213  0D9A  1303               	bcf	status, 6	;RP1=0, select bank0
  5214  0D9B  00A4               	movwf	(?_lcd_string)
  5215  0D9C  3083               	movlw	high(STR_31|8000h)
  5216  0D9D  00A5               	movwf	((?_lcd_string))+1
  5217  0D9E  3010               	movlw	(010h)
  5218  0D9F  00B1               	movwf	(??_homem_corre_direita+0)+0
  5219  0DA0  0831               	movf	(??_homem_corre_direita+0)+0,w
  5220  0DA1  00A6               	movwf	0+(?_lcd_string)+02h
  5221  0DA2  160A  158A  2699   	fcall	_lcd_string
              120A  158A         
  5222                           	line	235
  5223                           	
  5224  0DA7                     l8312:	
  5225                           ;homem.c: 235: lcd_novo_char(0, stepF1);
  5226  0DA7  3034               	movlw	low(_stepF1|8000h)
  5227  0DA8  1283               	bcf	status, 5	;RP0=0, select bank0
  5228  0DA9  1303               	bcf	status, 6	;RP1=0, select bank0
  5229  0DAA  00A3               	movwf	(?_lcd_novo_char)
  5230  0DAB  3083               	movlw	high(_stepF1|8000h)
  5231  0DAC  00A4               	movwf	((?_lcd_novo_char))+1
  5232  0DAD  3000               	movlw	(0)
  5233  0DAE  160A  158A  2777   	fcall	_lcd_novo_char
              120A  158A         
  5234                           	line	236
  5235                           	
  5236  0DB3                     l8314:	
  5237                           ;homem.c: 236: lcd_novo_char(1, stepF2);
  5238  0DB3  303C               	movlw	low(_stepF2|8000h)
  5239  0DB4  1283               	bcf	status, 5	;RP0=0, select bank0
  5240  0DB5  1303               	bcf	status, 6	;RP1=0, select bank0
  5241  0DB6  00A3               	movwf	(?_lcd_novo_char)
  5242  0DB7  3083               	movlw	high(_stepF2|8000h)
  5243  0DB8  00A4               	movwf	((?_lcd_novo_char))+1
  5244  0DB9  3001               	movlw	(01h)
  5245  0DBA  160A  158A  2777   	fcall	_lcd_novo_char
              120A  158A         
  5246                           	line	237
  5247                           	
  5248  0DBF                     l8316:	
  5249                           ;homem.c: 237: lcd_novo_char(2, stepF3);
  5250  0DBF  3044               	movlw	low(_stepF3|8000h)
  5251  0DC0  1283               	bcf	status, 5	;RP0=0, select bank0
  5252  0DC1  1303               	bcf	status, 6	;RP1=0, select bank0
  5253  0DC2  00A3               	movwf	(?_lcd_novo_char)
  5254  0DC3  3083               	movlw	high(_stepF3|8000h)
  5255  0DC4  00A4               	movwf	((?_lcd_novo_char))+1
  5256  0DC5  3002               	movlw	(02h)
  5257  0DC6  160A  158A  2777   	fcall	_lcd_novo_char
              120A  158A         
  5258                           	line	238
  5259                           	
  5260  0DCB                     l8318:	
  5261                           ;homem.c: 238: lcd_novo_char(3, stepF4);
  5262  0DCB  304C               	movlw	low(_stepF4|8000h)
  5263  0DCC  1283               	bcf	status, 5	;RP0=0, select bank0
  5264  0DCD  1303               	bcf	status, 6	;RP1=0, select bank0
  5265  0DCE  00A3               	movwf	(?_lcd_novo_char)
  5266  0DCF  3083               	movlw	high(_stepF4|8000h)
  5267  0DD0  00A4               	movwf	((?_lcd_novo_char))+1
  5268  0DD1  3003               	movlw	(03h)
  5269  0DD2  160A  158A  2777   	fcall	_lcd_novo_char
              120A  158A         
  5270                           	line	239
  5271                           	
  5272  0DD7                     l8320:	
  5273                           ;homem.c: 239: lcd_novo_char(4, stepF5);
  5274  0DD7  3054               	movlw	low(_stepF5|8000h)
  5275  0DD8  1283               	bcf	status, 5	;RP0=0, select bank0
  5276  0DD9  1303               	bcf	status, 6	;RP1=0, select bank0
  5277  0DDA  00A3               	movwf	(?_lcd_novo_char)
  5278  0DDB  3083               	movlw	high(_stepF5|8000h)
  5279  0DDC  00A4               	movwf	((?_lcd_novo_char))+1
  5280  0DDD  3004               	movlw	(04h)
  5281  0DDE  160A  158A  2777   	fcall	_lcd_novo_char
              120A  158A         
  5282                           	line	240
  5283                           	
  5284  0DE3                     l8322:	
  5285                           ;homem.c: 240: lcd_novo_char(5, stepF6);
  5286  0DE3  305C               	movlw	low(_stepF6|8000h)
  5287  0DE4  1283               	bcf	status, 5	;RP0=0, select bank0
  5288  0DE5  1303               	bcf	status, 6	;RP1=0, select bank0
  5289  0DE6  00A3               	movwf	(?_lcd_novo_char)
  5290  0DE7  3083               	movlw	high(_stepF6|8000h)
  5291  0DE8  00A4               	movwf	((?_lcd_novo_char))+1
  5292  0DE9  3005               	movlw	(05h)
  5293  0DEA  160A  158A  2777   	fcall	_lcd_novo_char
              120A  158A         
  5294                           	line	241
  5295                           	
  5296  0DEF                     l8324:	
  5297                           ;homem.c: 241: lcd_cursor_ddram(e, 1);
  5298  0DEF  1283               	bcf	status, 5	;RP0=0, select bank0
  5299  0DF0  1303               	bcf	status, 6	;RP1=0, select bank0
  5300  0DF1  01A3               	clrf	(?_lcd_cursor_ddram)
  5301  0DF2  1403               	bsf	status,0
  5302  0DF3  0DA3               	rlf	(?_lcd_cursor_ddram),f
  5303  0DF4  0839               	movf	(homem_corre_direita@e),w
  5304  0DF5  160A  118A  20C8   	fcall	_lcd_cursor_ddram
              120A  158A         
  5305                           	line	242
  5306                           	
  5307  0DFA                     l8326:	
  5308                           ;homem.c: 242: lcd_putch(0);
  5309  0DFA  3000               	movlw	(0)
  5310  0DFB  160A  158A  256B   	fcall	_lcd_putch
              120A  158A         
  5311                           	line	243
  5312                           	
  5313  0E00                     l8328:	
  5314                           ;homem.c: 243: lcd_cursor_ddram(e, 0);
  5315  0E00  1283               	bcf	status, 5	;RP0=0, select bank0
  5316  0E01  1303               	bcf	status, 6	;RP1=0, select bank0
  5317  0E02  01A3               	clrf	(?_lcd_cursor_ddram)
  5318  0E03  0839               	movf	(homem_corre_direita@e),w
  5319  0E04  160A  118A  20C8   	fcall	_lcd_cursor_ddram
              120A  158A         
  5320                           	line	244
  5321                           	
  5322  0E09                     l8330:	
  5323                           ;homem.c: 244: lcd_putch(1);
  5324  0E09  3001               	movlw	(01h)
  5325  0E0A  160A  158A  256B   	fcall	_lcd_putch
              120A  158A         
  5326                           	line	245
  5327                           	
  5328  0E0F                     l8332:	
  5329                           ;homem.c: 245: lcd_cursor_ddram(d, 1);
  5330  0E0F  1283               	bcf	status, 5	;RP0=0, select bank0
  5331  0E10  1303               	bcf	status, 6	;RP1=0, select bank0
  5332  0E11  01A3               	clrf	(?_lcd_cursor_ddram)
  5333  0E12  1403               	bsf	status,0
  5334  0E13  0DA3               	rlf	(?_lcd_cursor_ddram),f
  5335  0E14  0838               	movf	(homem_corre_direita@d),w
  5336  0E15  160A  118A  20C8   	fcall	_lcd_cursor_ddram
              120A  158A         
  5337                           	line	246
  5338                           	
  5339  0E1A                     l8334:	
  5340                           ;homem.c: 246: lcd_putch(2);
  5341  0E1A  3002               	movlw	(02h)
  5342  0E1B  160A  158A  256B   	fcall	_lcd_putch
              120A  158A         
  5343                           	line	247
  5344                           	
  5345  0E20                     l8336:	
  5346                           ;homem.c: 247: lcd_cursor_ddram(d, 0);
  5347  0E20  1283               	bcf	status, 5	;RP0=0, select bank0
  5348  0E21  1303               	bcf	status, 6	;RP1=0, select bank0
  5349  0E22  01A3               	clrf	(?_lcd_cursor_ddram)
  5350  0E23  0838               	movf	(homem_corre_direita@d),w
  5351  0E24  160A  118A  20C8   	fcall	_lcd_cursor_ddram
              120A  158A         
  5352                           	line	248
  5353                           	
  5354  0E29                     l8338:	
  5355                           ;homem.c: 248: lcd_putch(3);
  5356  0E29  3003               	movlw	(03h)
  5357  0E2A  160A  158A  256B   	fcall	_lcd_putch
              120A  158A         
  5358                           	line	249
  5359                           	
  5360  0E2F                     l8340:	
  5361                           ;homem.c: 249: lcd_cursor_ddram(c, 1);
  5362  0E2F  1283               	bcf	status, 5	;RP0=0, select bank0
  5363  0E30  1303               	bcf	status, 6	;RP1=0, select bank0
  5364  0E31  01A3               	clrf	(?_lcd_cursor_ddram)
  5365  0E32  1403               	bsf	status,0
  5366  0E33  0DA3               	rlf	(?_lcd_cursor_ddram),f
  5367  0E34  0836               	movf	(homem_corre_direita@c),w
  5368  0E35  160A  118A  20C8   	fcall	_lcd_cursor_ddram
              120A  158A         
  5369                           	line	250
  5370                           	
  5371  0E3A                     l8342:	
  5372                           ;homem.c: 250: lcd_putch(4);
  5373  0E3A  3004               	movlw	(04h)
  5374  0E3B  160A  158A  256B   	fcall	_lcd_putch
              120A  158A         
  5375                           	line	251
  5376                           	
  5377  0E40                     l8344:	
  5378                           ;homem.c: 251: lcd_cursor_ddram(c, 0);
  5379  0E40  1283               	bcf	status, 5	;RP0=0, select bank0
  5380  0E41  1303               	bcf	status, 6	;RP1=0, select bank0
  5381  0E42  01A3               	clrf	(?_lcd_cursor_ddram)
  5382  0E43  0836               	movf	(homem_corre_direita@c),w
  5383  0E44  160A  118A  20C8   	fcall	_lcd_cursor_ddram
              120A  158A         
  5384                           	line	252
  5385                           	
  5386  0E49                     l8346:	
  5387                           ;homem.c: 252: lcd_putch(5);
  5388  0E49  3005               	movlw	(05h)
  5389  0E4A  160A  158A  256B   	fcall	_lcd_putch
              120A  158A         
  5390                           	line	253
  5391                           	
  5392  0E4F                     l8348:	
  5393                           ;homem.c: 253: _delay((unsigned long)((150)*(20000000/4000.0)));
  5394                           	opt asmopt_off
  5395  0E4F  3004               movlw  4
  5396  0E50  1283               	bcf	status, 5	;RP0=0, select bank0
  5397  0E51  1303               	bcf	status, 6	;RP1=0, select bank0
  5398  0E52  00B3               movwf	((??_homem_corre_direita+0)+0+2),f
  5399  0E53  30CF               movlw	207
  5400  0E54  00B2               movwf	((??_homem_corre_direita+0)+0+1),f
  5401  0E55  3003               	movlw	3
  5402  0E56  00B1               movwf	((??_homem_corre_direita+0)+0),f
  5403  0E57                     u3677:
  5404  0E57  0BB1               	decfsz	((??_homem_corre_direita+0)+0),f
  5405  0E58  2E57               	goto	u3677
  5406  0E59  0BB2               	decfsz	((??_homem_corre_direita+0)+0+1),f
  5407  0E5A  2E57               	goto	u3677
  5408  0E5B  0BB3               	decfsz	((??_homem_corre_direita+0)+0+2),f
  5409  0E5C  2E57               	goto	u3677
  5410  0E5D  2E5E               	nop2
  5411                           opt asmopt_on
  5412                           
  5413                           	line	254
  5414                           	
  5415  0E5E                     l8350:	
  5416                           ;homem.c: 254: lcd_clear();
  5417  0E5E  160A  158A  25D6   	fcall	_lcd_clear
              120A  158A         
  5418                           	line	255
  5419                           	
  5420  0E63                     l8352:	
  5421                           ;homem.c: 255: lcd_string((char *) "----------------", 0x10);
  5422  0E63  30DF               	movlw	low(STR_32|8000h)
  5423  0E64  1283               	bcf	status, 5	;RP0=0, select bank0
  5424  0E65  1303               	bcf	status, 6	;RP1=0, select bank0
  5425  0E66  00A4               	movwf	(?_lcd_string)
  5426  0E67  3083               	movlw	high(STR_32|8000h)
  5427  0E68  00A5               	movwf	((?_lcd_string))+1
  5428  0E69  3010               	movlw	(010h)
  5429  0E6A  00B1               	movwf	(??_homem_corre_direita+0)+0
  5430  0E6B  0831               	movf	(??_homem_corre_direita+0)+0,w
  5431  0E6C  00A6               	movwf	0+(?_lcd_string)+02h
  5432  0E6D  160A  158A  2699   	fcall	_lcd_string
              120A  158A         
  5433                           	line	256
  5434                           	
  5435  0E72                     l8354:	
  5436                           ;homem.c: 256: lcd_novo_char(0, stepE1);
  5437  0E72  3004               	movlw	low(_stepE1|8000h)
  5438  0E73  1283               	bcf	status, 5	;RP0=0, select bank0
  5439  0E74  1303               	bcf	status, 6	;RP1=0, select bank0
  5440  0E75  00A3               	movwf	(?_lcd_novo_char)
  5441  0E76  3083               	movlw	high(_stepE1|8000h)
  5442  0E77  00A4               	movwf	((?_lcd_novo_char))+1
  5443  0E78  3000               	movlw	(0)
  5444  0E79  160A  158A  2777   	fcall	_lcd_novo_char
              120A  158A         
  5445                           	line	257
  5446                           	
  5447  0E7E                     l8356:	
  5448                           ;homem.c: 257: lcd_novo_char(1, stepE2);
  5449  0E7E  300C               	movlw	low(_stepE2|8000h)
  5450  0E7F  1283               	bcf	status, 5	;RP0=0, select bank0
  5451  0E80  1303               	bcf	status, 6	;RP1=0, select bank0
  5452  0E81  00A3               	movwf	(?_lcd_novo_char)
  5453  0E82  3083               	movlw	high(_stepE2|8000h)
  5454  0E83  00A4               	movwf	((?_lcd_novo_char))+1
  5455  0E84  3001               	movlw	(01h)
  5456  0E85  160A  158A  2777   	fcall	_lcd_novo_char
              120A  158A         
  5457                           	line	258
  5458                           	
  5459  0E8A                     l8358:	
  5460                           ;homem.c: 258: lcd_novo_char(2, stepE3);
  5461  0E8A  3014               	movlw	low(_stepE3|8000h)
  5462  0E8B  1283               	bcf	status, 5	;RP0=0, select bank0
  5463  0E8C  1303               	bcf	status, 6	;RP1=0, select bank0
  5464  0E8D  00A3               	movwf	(?_lcd_novo_char)
  5465  0E8E  3083               	movlw	high(_stepE3|8000h)
  5466  0E8F  00A4               	movwf	((?_lcd_novo_char))+1
  5467  0E90  3002               	movlw	(02h)
  5468  0E91  160A  158A  2777   	fcall	_lcd_novo_char
              120A  158A         
  5469                           	line	259
  5470                           	
  5471  0E96                     l8360:	
  5472                           ;homem.c: 259: lcd_novo_char(3, stepE4);
  5473  0E96  301C               	movlw	low(_stepE4|8000h)
  5474  0E97  1283               	bcf	status, 5	;RP0=0, select bank0
  5475  0E98  1303               	bcf	status, 6	;RP1=0, select bank0
  5476  0E99  00A3               	movwf	(?_lcd_novo_char)
  5477  0E9A  3083               	movlw	high(_stepE4|8000h)
  5478  0E9B  00A4               	movwf	((?_lcd_novo_char))+1
  5479  0E9C  3003               	movlw	(03h)
  5480  0E9D  160A  158A  2777   	fcall	_lcd_novo_char
              120A  158A         
  5481                           	line	260
  5482                           	
  5483  0EA2                     l8362:	
  5484                           ;homem.c: 260: lcd_novo_char(4, stepE5);
  5485  0EA2  3024               	movlw	low(_stepE5|8000h)
  5486  0EA3  1283               	bcf	status, 5	;RP0=0, select bank0
  5487  0EA4  1303               	bcf	status, 6	;RP1=0, select bank0
  5488  0EA5  00A3               	movwf	(?_lcd_novo_char)
  5489  0EA6  3083               	movlw	high(_stepE5|8000h)
  5490  0EA7  00A4               	movwf	((?_lcd_novo_char))+1
  5491  0EA8  3004               	movlw	(04h)
  5492  0EA9  160A  158A  2777   	fcall	_lcd_novo_char
              120A  158A         
  5493                           	line	261
  5494                           	
  5495  0EAE                     l8364:	
  5496                           ;homem.c: 261: lcd_novo_char(5, stepE6);
  5497  0EAE  302C               	movlw	low(_stepE6|8000h)
  5498  0EAF  1283               	bcf	status, 5	;RP0=0, select bank0
  5499  0EB0  1303               	bcf	status, 6	;RP1=0, select bank0
  5500  0EB1  00A3               	movwf	(?_lcd_novo_char)
  5501  0EB2  3083               	movlw	high(_stepE6|8000h)
  5502  0EB3  00A4               	movwf	((?_lcd_novo_char))+1
  5503  0EB4  3005               	movlw	(05h)
  5504  0EB5  160A  158A  2777   	fcall	_lcd_novo_char
              120A  158A         
  5505                           	line	262
  5506                           	
  5507  0EBA                     l8366:	
  5508                           ;homem.c: 262: lcd_cursor_ddram(f, 1);
  5509  0EBA  1283               	bcf	status, 5	;RP0=0, select bank0
  5510  0EBB  1303               	bcf	status, 6	;RP1=0, select bank0
  5511  0EBC  01A3               	clrf	(?_lcd_cursor_ddram)
  5512  0EBD  1403               	bsf	status,0
  5513  0EBE  0DA3               	rlf	(?_lcd_cursor_ddram),f
  5514  0EBF  0837               	movf	(homem_corre_direita@f),w
  5515  0EC0  160A  118A  20C8   	fcall	_lcd_cursor_ddram
              120A  158A         
  5516                           	line	263
  5517                           	
  5518  0EC5                     l8368:	
  5519                           ;homem.c: 263: lcd_putch(0);
  5520  0EC5  3000               	movlw	(0)
  5521  0EC6  160A  158A  256B   	fcall	_lcd_putch
              120A  158A         
  5522                           	line	264
  5523                           	
  5524  0ECB                     l8370:	
  5525                           ;homem.c: 264: lcd_cursor_ddram(f, 0);
  5526  0ECB  1283               	bcf	status, 5	;RP0=0, select bank0
  5527  0ECC  1303               	bcf	status, 6	;RP1=0, select bank0
  5528  0ECD  01A3               	clrf	(?_lcd_cursor_ddram)
  5529  0ECE  0837               	movf	(homem_corre_direita@f),w
  5530  0ECF  160A  118A  20C8   	fcall	_lcd_cursor_ddram
              120A  158A         
  5531                           	line	265
  5532                           	
  5533  0ED4                     l8372:	
  5534                           ;homem.c: 265: lcd_putch(1);
  5535  0ED4  3001               	movlw	(01h)
  5536  0ED5  160A  158A  256B   	fcall	_lcd_putch
              120A  158A         
  5537                           	line	266
  5538                           	
  5539  0EDA                     l8374:	
  5540                           ;homem.c: 266: lcd_cursor_ddram(e, 1);
  5541  0EDA  1283               	bcf	status, 5	;RP0=0, select bank0
  5542  0EDB  1303               	bcf	status, 6	;RP1=0, select bank0
  5543  0EDC  01A3               	clrf	(?_lcd_cursor_ddram)
  5544  0EDD  1403               	bsf	status,0
  5545  0EDE  0DA3               	rlf	(?_lcd_cursor_ddram),f
  5546  0EDF  0839               	movf	(homem_corre_direita@e),w
  5547  0EE0  160A  118A  20C8   	fcall	_lcd_cursor_ddram
              120A  158A         
  5548                           	line	267
  5549                           	
  5550  0EE5                     l8376:	
  5551                           ;homem.c: 267: lcd_putch(2);
  5552  0EE5  3002               	movlw	(02h)
  5553  0EE6  160A  158A  256B   	fcall	_lcd_putch
              120A  158A         
  5554                           	line	268
  5555                           	
  5556  0EEB                     l8378:	
  5557                           ;homem.c: 268: lcd_cursor_ddram(e, 0);
  5558  0EEB  1283               	bcf	status, 5	;RP0=0, select bank0
  5559  0EEC  1303               	bcf	status, 6	;RP1=0, select bank0
  5560  0EED  01A3               	clrf	(?_lcd_cursor_ddram)
  5561  0EEE  0839               	movf	(homem_corre_direita@e),w
  5562  0EEF  160A  118A  20C8   	fcall	_lcd_cursor_ddram
              120A  158A         
  5563                           	line	269
  5564                           	
  5565  0EF4                     l8380:	
  5566                           ;homem.c: 269: lcd_putch(3);
  5567  0EF4  3003               	movlw	(03h)
  5568  0EF5  160A  158A  256B   	fcall	_lcd_putch
              120A  158A         
  5569                           	line	270
  5570                           	
  5571  0EFA                     l8382:	
  5572                           ;homem.c: 270: lcd_cursor_ddram(d, 1);
  5573  0EFA  1283               	bcf	status, 5	;RP0=0, select bank0
  5574  0EFB  1303               	bcf	status, 6	;RP1=0, select bank0
  5575  0EFC  01A3               	clrf	(?_lcd_cursor_ddram)
  5576  0EFD  1403               	bsf	status,0
  5577  0EFE  0DA3               	rlf	(?_lcd_cursor_ddram),f
  5578  0EFF  0838               	movf	(homem_corre_direita@d),w
  5579  0F00  160A  118A  20C8   	fcall	_lcd_cursor_ddram
              120A  158A         
  5580                           	line	271
  5581                           	
  5582  0F05                     l8384:	
  5583                           ;homem.c: 271: lcd_putch(4);
  5584  0F05  3004               	movlw	(04h)
  5585  0F06  160A  158A  256B   	fcall	_lcd_putch
              120A  158A         
  5586                           	line	272
  5587                           	
  5588  0F0B                     l8386:	
  5589                           ;homem.c: 272: lcd_cursor_ddram(d, 0);
  5590  0F0B  1283               	bcf	status, 5	;RP0=0, select bank0
  5591  0F0C  1303               	bcf	status, 6	;RP1=0, select bank0
  5592  0F0D  01A3               	clrf	(?_lcd_cursor_ddram)
  5593  0F0E  0838               	movf	(homem_corre_direita@d),w
  5594  0F0F  160A  118A  20C8   	fcall	_lcd_cursor_ddram
              120A  158A         
  5595                           	line	273
  5596                           	
  5597  0F14                     l8388:	
  5598                           ;homem.c: 273: lcd_putch(5);
  5599  0F14  3005               	movlw	(05h)
  5600  0F15  160A  158A  256B   	fcall	_lcd_putch
              120A  158A         
  5601                           	line	274
  5602                           	
  5603  0F1A                     l8390:	
  5604                           ;homem.c: 274: _delay((unsigned long)((150)*(20000000/4000.0)));
  5605                           	opt asmopt_off
  5606  0F1A  3004               movlw  4
  5607  0F1B  1283               	bcf	status, 5	;RP0=0, select bank0
  5608  0F1C  1303               	bcf	status, 6	;RP1=0, select bank0
  5609  0F1D  00B3               movwf	((??_homem_corre_direita+0)+0+2),f
  5610  0F1E  30CF               movlw	207
  5611  0F1F  00B2               movwf	((??_homem_corre_direita+0)+0+1),f
  5612  0F20  3003               	movlw	3
  5613  0F21  00B1               movwf	((??_homem_corre_direita+0)+0),f
  5614  0F22                     u3687:
  5615  0F22  0BB1               	decfsz	((??_homem_corre_direita+0)+0),f
  5616  0F23  2F22               	goto	u3687
  5617  0F24  0BB2               	decfsz	((??_homem_corre_direita+0)+0+1),f
  5618  0F25  2F22               	goto	u3687
  5619  0F26  0BB3               	decfsz	((??_homem_corre_direita+0)+0+2),f
  5620  0F27  2F22               	goto	u3687
  5621  0F28  2F29               	nop2
  5622                           opt asmopt_on
  5623                           
  5624                           	line	275
  5625                           	
  5626  0F29                     l8392:	
  5627                           ;homem.c: 275: lcd_clear();
  5628  0F29  160A  158A  25D6   	fcall	_lcd_clear
              120A  158A         
  5629                           	line	276
  5630                           	
  5631  0F2E                     l8394:	
  5632                           ;homem.c: 276: lcd_string((char *) "----------------", 0x10);
  5633  0F2E  30DF               	movlw	low(STR_33|8000h)
  5634  0F2F  1283               	bcf	status, 5	;RP0=0, select bank0
  5635  0F30  1303               	bcf	status, 6	;RP1=0, select bank0
  5636  0F31  00A4               	movwf	(?_lcd_string)
  5637  0F32  3083               	movlw	high(STR_33|8000h)
  5638  0F33  00A5               	movwf	((?_lcd_string))+1
  5639  0F34  3010               	movlw	(010h)
  5640  0F35  00B1               	movwf	(??_homem_corre_direita+0)+0
  5641  0F36  0831               	movf	(??_homem_corre_direita+0)+0,w
  5642  0F37  00A6               	movwf	0+(?_lcd_string)+02h
  5643  0F38  160A  158A  2699   	fcall	_lcd_string
              120A  158A         
  5644                           	line	277
  5645                           	
  5646  0F3D                     l8396:	
  5647                           ;homem.c: 277: lcd_novo_char(0, stepG1);
  5648  0F3D  3064               	movlw	low(_stepG1|8000h)
  5649  0F3E  1283               	bcf	status, 5	;RP0=0, select bank0
  5650  0F3F  1303               	bcf	status, 6	;RP1=0, select bank0
  5651  0F40  00A3               	movwf	(?_lcd_novo_char)
  5652  0F41  3083               	movlw	high(_stepG1|8000h)
  5653  0F42  00A4               	movwf	((?_lcd_novo_char))+1
  5654  0F43  3000               	movlw	(0)
  5655  0F44  160A  158A  2777   	fcall	_lcd_novo_char
              120A  158A         
  5656                           	line	278
  5657                           	
  5658  0F49                     l8398:	
  5659                           ;homem.c: 278: lcd_novo_char(1, stepG2);
  5660  0F49  306C               	movlw	low(_stepG2|8000h)
  5661  0F4A  1283               	bcf	status, 5	;RP0=0, select bank0
  5662  0F4B  1303               	bcf	status, 6	;RP1=0, select bank0
  5663  0F4C  00A3               	movwf	(?_lcd_novo_char)
  5664  0F4D  3083               	movlw	high(_stepG2|8000h)
  5665  0F4E  00A4               	movwf	((?_lcd_novo_char))+1
  5666  0F4F  3001               	movlw	(01h)
  5667  0F50  160A  158A  2777   	fcall	_lcd_novo_char
              120A  158A         
  5668                           	line	279
  5669                           	
  5670  0F55                     l8400:	
  5671                           ;homem.c: 279: lcd_novo_char(2, stepG3);
  5672  0F55  3074               	movlw	low(_stepG3|8000h)
  5673  0F56  1283               	bcf	status, 5	;RP0=0, select bank0
  5674  0F57  1303               	bcf	status, 6	;RP1=0, select bank0
  5675  0F58  00A3               	movwf	(?_lcd_novo_char)
  5676  0F59  3083               	movlw	high(_stepG3|8000h)
  5677  0F5A  00A4               	movwf	((?_lcd_novo_char))+1
  5678  0F5B  3002               	movlw	(02h)
  5679  0F5C  160A  158A  2777   	fcall	_lcd_novo_char
              120A  158A         
  5680                           	line	280
  5681                           	
  5682  0F61                     l8402:	
  5683                           ;homem.c: 280: lcd_novo_char(3, stepG4);
  5684  0F61  307C               	movlw	low(_stepG4|8000h)
  5685  0F62  1283               	bcf	status, 5	;RP0=0, select bank0
  5686  0F63  1303               	bcf	status, 6	;RP1=0, select bank0
  5687  0F64  00A3               	movwf	(?_lcd_novo_char)
  5688  0F65  3083               	movlw	high(_stepG4|8000h)
  5689  0F66  00A4               	movwf	((?_lcd_novo_char))+1
  5690  0F67  3003               	movlw	(03h)
  5691  0F68  160A  158A  2777   	fcall	_lcd_novo_char
              120A  158A         
  5692                           	line	281
  5693                           	
  5694  0F6D                     l8404:	
  5695                           ;homem.c: 281: lcd_novo_char(4, stepG5);
  5696  0F6D  3084               	movlw	low(_stepG5|8000h)
  5697  0F6E  1283               	bcf	status, 5	;RP0=0, select bank0
  5698  0F6F  1303               	bcf	status, 6	;RP1=0, select bank0
  5699  0F70  00A3               	movwf	(?_lcd_novo_char)
  5700  0F71  3083               	movlw	high(_stepG5|8000h)
  5701  0F72  00A4               	movwf	((?_lcd_novo_char))+1
  5702  0F73  3004               	movlw	(04h)
  5703  0F74  160A  158A  2777   	fcall	_lcd_novo_char
              120A  158A         
  5704                           	line	282
  5705                           	
  5706  0F79                     l8406:	
  5707                           ;homem.c: 282: lcd_novo_char(5, stepG6);
  5708  0F79  308C               	movlw	low(_stepG6|8000h)
  5709  0F7A  1283               	bcf	status, 5	;RP0=0, select bank0
  5710  0F7B  1303               	bcf	status, 6	;RP1=0, select bank0
  5711  0F7C  00A3               	movwf	(?_lcd_novo_char)
  5712  0F7D  3083               	movlw	high(_stepG6|8000h)
  5713  0F7E  00A4               	movwf	((?_lcd_novo_char))+1
  5714  0F7F  3005               	movlw	(05h)
  5715  0F80  160A  158A  2777   	fcall	_lcd_novo_char
              120A  158A         
  5716                           	line	283
  5717                           	
  5718  0F85                     l8408:	
  5719                           ;homem.c: 283: lcd_cursor_ddram(g, 1);
  5720  0F85  1283               	bcf	status, 5	;RP0=0, select bank0
  5721  0F86  1303               	bcf	status, 6	;RP1=0, select bank0
  5722  0F87  01A3               	clrf	(?_lcd_cursor_ddram)
  5723  0F88  1403               	bsf	status,0
  5724  0F89  0DA3               	rlf	(?_lcd_cursor_ddram),f
  5725  0F8A  0835               	movf	(homem_corre_direita@g),w
  5726  0F8B  160A  118A  20C8   	fcall	_lcd_cursor_ddram
              120A  158A         
  5727                           	line	284
  5728                           	
  5729  0F90                     l8410:	
  5730                           ;homem.c: 284: lcd_putch(0);
  5731  0F90  3000               	movlw	(0)
  5732  0F91  160A  158A  256B   	fcall	_lcd_putch
              120A  158A         
  5733                           	line	285
  5734                           	
  5735  0F96                     l8412:	
  5736                           ;homem.c: 285: lcd_cursor_ddram(g, 0);
  5737  0F96  1283               	bcf	status, 5	;RP0=0, select bank0
  5738  0F97  1303               	bcf	status, 6	;RP1=0, select bank0
  5739  0F98  01A3               	clrf	(?_lcd_cursor_ddram)
  5740  0F99  0835               	movf	(homem_corre_direita@g),w
  5741  0F9A  160A  118A  20C8   	fcall	_lcd_cursor_ddram
              120A  158A         
  5742                           	line	286
  5743                           	
  5744  0F9F                     l8414:	
  5745                           ;homem.c: 286: lcd_putch(1);
  5746  0F9F  3001               	movlw	(01h)
  5747  0FA0  160A  158A  256B   	fcall	_lcd_putch
              120A  158A         
  5748                           	line	287
  5749                           	
  5750  0FA5                     l8416:	
  5751                           ;homem.c: 287: lcd_cursor_ddram(f, 1);
  5752  0FA5  1283               	bcf	status, 5	;RP0=0, select bank0
  5753  0FA6  1303               	bcf	status, 6	;RP1=0, select bank0
  5754  0FA7  01A3               	clrf	(?_lcd_cursor_ddram)
  5755  0FA8  1403               	bsf	status,0
  5756  0FA9  0DA3               	rlf	(?_lcd_cursor_ddram),f
  5757  0FAA  0837               	movf	(homem_corre_direita@f),w
  5758  0FAB  160A  118A  20C8   	fcall	_lcd_cursor_ddram
              120A  158A         
  5759                           	line	288
  5760                           	
  5761  0FB0                     l8418:	
  5762                           ;homem.c: 288: lcd_putch(2);
  5763  0FB0  3002               	movlw	(02h)
  5764  0FB1  160A  158A  256B   	fcall	_lcd_putch
              120A  158A         
  5765                           	line	289
  5766                           	
  5767  0FB6                     l8420:	
  5768                           ;homem.c: 289: lcd_cursor_ddram(f, 0);
  5769  0FB6  1283               	bcf	status, 5	;RP0=0, select bank0
  5770  0FB7  1303               	bcf	status, 6	;RP1=0, select bank0
  5771  0FB8  01A3               	clrf	(?_lcd_cursor_ddram)
  5772  0FB9  0837               	movf	(homem_corre_direita@f),w
  5773  0FBA  160A  118A  20C8   	fcall	_lcd_cursor_ddram
              120A  158A         
  5774                           	line	290
  5775                           	
  5776  0FBF                     l8422:	
  5777                           ;homem.c: 290: lcd_putch(3);
  5778  0FBF  3003               	movlw	(03h)
  5779  0FC0  160A  158A  256B   	fcall	_lcd_putch
              120A  158A         
  5780                           	line	291
  5781                           	
  5782  0FC5                     l8424:	
  5783                           ;homem.c: 291: lcd_cursor_ddram(e, 1);
  5784  0FC5  1283               	bcf	status, 5	;RP0=0, select bank0
  5785  0FC6  1303               	bcf	status, 6	;RP1=0, select bank0
  5786  0FC7  01A3               	clrf	(?_lcd_cursor_ddram)
  5787  0FC8  1403               	bsf	status,0
  5788  0FC9  0DA3               	rlf	(?_lcd_cursor_ddram),f
  5789  0FCA  0839               	movf	(homem_corre_direita@e),w
  5790  0FCB  160A  118A  20C8   	fcall	_lcd_cursor_ddram
              120A  158A         
  5791                           	line	292
  5792                           	
  5793  0FD0                     l8426:	
  5794                           ;homem.c: 292: lcd_putch(4);
  5795  0FD0  3004               	movlw	(04h)
  5796  0FD1  160A  158A  256B   	fcall	_lcd_putch
              120A  158A         
  5797                           	line	293
  5798                           	
  5799  0FD6                     l8428:	
  5800                           ;homem.c: 293: lcd_cursor_ddram(e, 0);
  5801  0FD6  1283               	bcf	status, 5	;RP0=0, select bank0
  5802  0FD7  1303               	bcf	status, 6	;RP1=0, select bank0
  5803  0FD8  01A3               	clrf	(?_lcd_cursor_ddram)
  5804  0FD9  0839               	movf	(homem_corre_direita@e),w
  5805  0FDA  160A  118A  20C8   	fcall	_lcd_cursor_ddram
              120A  158A         
  5806                           	line	294
  5807                           	
  5808  0FDF                     l8430:	
  5809                           ;homem.c: 294: lcd_putch(5);
  5810  0FDF  3005               	movlw	(05h)
  5811  0FE0  160A  158A  256B   	fcall	_lcd_putch
              120A  158A         
  5812                           	line	295
  5813                           	
  5814  0FE5                     l8432:	
  5815                           ;homem.c: 295: _delay((unsigned long)((150)*(20000000/4000.0)));
  5816                           	opt asmopt_off
  5817  0FE5  3004               movlw  4
  5818  0FE6  1283               	bcf	status, 5	;RP0=0, select bank0
  5819  0FE7  1303               	bcf	status, 6	;RP1=0, select bank0
  5820  0FE8  00B3               movwf	((??_homem_corre_direita+0)+0+2),f
  5821  0FE9  30CF               movlw	207
  5822  0FEA  00B2               movwf	((??_homem_corre_direita+0)+0+1),f
  5823  0FEB  3003               	movlw	3
  5824  0FEC  00B1               movwf	((??_homem_corre_direita+0)+0),f
  5825  0FED                     u3697:
  5826  0FED  0BB1               	decfsz	((??_homem_corre_direita+0)+0),f
  5827  0FEE  2FED               	goto	u3697
  5828  0FEF  0BB2               	decfsz	((??_homem_corre_direita+0)+0+1),f
  5829  0FF0  2FED               	goto	u3697
  5830  0FF1  0BB3               	decfsz	((??_homem_corre_direita+0)+0+2),f
  5831  0FF2  2FED               	goto	u3697
  5832  0FF3  2FF4               	nop2
  5833                           opt asmopt_on
  5834                           
  5835                           	line	204
  5836  0FF4  3004               	movlw	low(04h)
  5837  0FF5  1283               	bcf	status, 5	;RP0=0, select bank0
  5838  0FF6  1303               	bcf	status, 6	;RP1=0, select bank0
  5839  0FF7  02BA               	subwf	(homem_corre_direita@a),f
  5840                           	
  5841  0FF8                     l8434:	
  5842  0FF8  3005               	movlw	(05h)
  5843  0FF9  023A               	subwf	(homem_corre_direita@a),w
  5844  0FFA  1803               	skipnc
  5845  0FFB  2FFD               	goto	u3461
  5846  0FFC  2FFE               	goto	u3460
  5847  0FFD                     u3461:
  5848  0FFD  2CAA               	goto	l8264
  5849  0FFE                     u3460:
  5850  0FFE  2FFF               	goto	l4958
  5851                           	
  5852  0FFF                     l4957:	
  5853                           	line	297
  5854                           	
  5855  0FFF                     l4958:	
  5856  0FFF  0008               	return
  5857                           	opt stack 0
  5858                           GLOBAL	__end_of_homem_corre_direita
  5859  1000                     	__end_of_homem_corre_direita:
  5860 ;; =============== function _homem_corre_direita ends ============
  5861                           
  5862                           	signat	_homem_corre_direita,88
  5863                           	global	_homem_vira_direita
  5864                           psect	text953,local,class=CODE,delta=2
  5865                           global __ptext953
  5866  159C                     __ptext953:
  5867                           
  5868 ;; *************** function _homem_vira_direita *****************
  5869 ;; Defined at:
  5870 ;;		line 134 in file "homem.c"
  5871 ;; Parameters:    Size  Location     Type
  5872 ;;		None
  5873 ;; Auto vars:     Size  Location     Type
  5874 ;;  a               2   24[BANK0 ] int 
  5875 ;;  c               2   22[BANK0 ] int 
  5876 ;;  b               2   20[BANK0 ] int 
  5877 ;; Return value:  Size  Location     Type
  5878 ;;		None               void
  5879 ;; Registers used:
  5880 ;;		wreg, fsr0l, fsr0h, status,2, status,0, btemp+1, pclath, cstack
  5881 ;; Tracked objects:
  5882 ;;		On entry : 0/0
  5883 ;;		On exit  : 0/0
  5884 ;;		Unchanged: 0/0
  5885 ;; Data sizes:     COMMON   BANK0   BANK1   BANK3   BANK2
  5886 ;;      Params:         0       0       0       0       0
  5887 ;;      Locals:         0       6       0       0       0
  5888 ;;      Temps:          0       3       0       0       0
  5889 ;;      Totals:         0       9       0       0       0
  5890 ;;Total ram usage:        9 bytes
  5891 ;; Hardware stack levels used:    1
  5892 ;; Hardware stack levels required when called:    5
  5893 ;; This function calls:
  5894 ;;		_lcd_clear
  5895 ;;		_lcd_string
  5896 ;;		_lcd_novo_char
  5897 ;;		_lcd_cursor_ddram
  5898 ;;		_lcd_putch
  5899 ;; This function is called by:
  5900 ;;		_homem_animacao
  5901 ;; This function uses a non-reentrant model
  5902 ;;
  5903                           psect	text953
  5904                           	file	"homem.c"
  5905                           	line	134
  5906                           	global	__size_of_homem_vira_direita
  5907  0264                     	__size_of_homem_vira_direita	equ	__end_of_homem_vira_direita-_homem_vira_direita
  5908                           	
  5909  159C                     _homem_vira_direita:	
  5910                           	opt	stack 1
  5911                           ; Regs used in _homem_vira_direita: [wreg-fsr0h+status,2+status,0+btemp+1+pclath+cstack]
  5912                           	line	135
  5913                           	
  5914  159C                     l8154:	
  5915                           ;homem.c: 135: int a = 13;
  5916  159C  300D               	movlw	low(0Dh)
  5917  159D  1283               	bcf	status, 5	;RP0=0, select bank0
  5918  159E  1303               	bcf	status, 6	;RP1=0, select bank0
  5919  159F  00B8               	movwf	(homem_vira_direita@a)
  5920  15A0  3000               	movlw	high(0Dh)
  5921  15A1  00B9               	movwf	((homem_vira_direita@a))+1
  5922                           	line	136
  5923                           	
  5924  15A2                     l8156:	
  5925                           ;homem.c: 136: int b = a + 1;
  5926  15A2  0838               	movf	(homem_vira_direita@a),w
  5927  15A3  3E01               	addlw	low(01h)
  5928  15A4  00B4               	movwf	(homem_vira_direita@b)
  5929  15A5  0839               	movf	(homem_vira_direita@a+1),w
  5930  15A6  1803               	skipnc
  5931  15A7  3E01               	addlw	1
  5932  15A8  3E00               	addlw	high(01h)
  5933  15A9  00B5               	movwf	1+(homem_vira_direita@b)
  5934                           	line	137
  5935                           	
  5936  15AA                     l8158:	
  5937                           ;homem.c: 137: int c = a + 2;
  5938  15AA  0838               	movf	(homem_vira_direita@a),w
  5939  15AB  3E02               	addlw	low(02h)
  5940  15AC  00B6               	movwf	(homem_vira_direita@c)
  5941  15AD  0839               	movf	(homem_vira_direita@a+1),w
  5942  15AE  1803               	skipnc
  5943  15AF  3E01               	addlw	1
  5944  15B0  3E00               	addlw	high(02h)
  5945  15B1  00B7               	movwf	1+(homem_vira_direita@c)
  5946                           	line	138
  5947                           	
  5948  15B2                     l8160:	
  5949                           ;homem.c: 138: lcd_clear();
  5950  15B2  160A  158A  25D6   	fcall	_lcd_clear
              160A  118A         
  5951                           	line	139
  5952                           	
  5953  15B7                     l8162:	
  5954                           ;homem.c: 139: lcd_string((char *) "----------------", 0x10);
  5955  15B7  30DF               	movlw	low(STR_28|8000h)
  5956  15B8  1283               	bcf	status, 5	;RP0=0, select bank0
  5957  15B9  1303               	bcf	status, 6	;RP1=0, select bank0
  5958  15BA  00A4               	movwf	(?_lcd_string)
  5959  15BB  3083               	movlw	high(STR_28|8000h)
  5960  15BC  00A5               	movwf	((?_lcd_string))+1
  5961  15BD  3010               	movlw	(010h)
  5962  15BE  00B1               	movwf	(??_homem_vira_direita+0)+0
  5963  15BF  0831               	movf	(??_homem_vira_direita+0)+0,w
  5964  15C0  00A6               	movwf	0+(?_lcd_string)+02h
  5965  15C1  160A  158A  2699   	fcall	_lcd_string
              160A  118A         
  5966                           	line	140
  5967                           	
  5968  15C6                     l8164:	
  5969                           ;homem.c: 140: lcd_novo_char(0, slipA1);
  5970  15C6  3024               	movlw	low(_slipA1|8000h)
  5971  15C7  1283               	bcf	status, 5	;RP0=0, select bank0
  5972  15C8  1303               	bcf	status, 6	;RP1=0, select bank0
  5973  15C9  00A3               	movwf	(?_lcd_novo_char)
  5974  15CA  3081               	movlw	high(_slipA1|8000h)
  5975  15CB  00A4               	movwf	((?_lcd_novo_char))+1
  5976  15CC  3000               	movlw	(0)
  5977  15CD  160A  158A  2777   	fcall	_lcd_novo_char
              160A  118A         
  5978                           	line	141
  5979                           	
  5980  15D2                     l8166:	
  5981                           ;homem.c: 141: lcd_novo_char(1, slipA2);
  5982  15D2  302C               	movlw	low(_slipA2|8000h)
  5983  15D3  1283               	bcf	status, 5	;RP0=0, select bank0
  5984  15D4  1303               	bcf	status, 6	;RP1=0, select bank0
  5985  15D5  00A3               	movwf	(?_lcd_novo_char)
  5986  15D6  3081               	movlw	high(_slipA2|8000h)
  5987  15D7  00A4               	movwf	((?_lcd_novo_char))+1
  5988  15D8  3001               	movlw	(01h)
  5989  15D9  160A  158A  2777   	fcall	_lcd_novo_char
              160A  118A         
  5990                           	line	142
  5991                           	
  5992  15DE                     l8168:	
  5993                           ;homem.c: 142: lcd_novo_char(2, slipA3);
  5994  15DE  3034               	movlw	low(_slipA3|8000h)
  5995  15DF  1283               	bcf	status, 5	;RP0=0, select bank0
  5996  15E0  1303               	bcf	status, 6	;RP1=0, select bank0
  5997  15E1  00A3               	movwf	(?_lcd_novo_char)
  5998  15E2  3081               	movlw	high(_slipA3|8000h)
  5999  15E3  00A4               	movwf	((?_lcd_novo_char))+1
  6000  15E4  3002               	movlw	(02h)
  6001  15E5  160A  158A  2777   	fcall	_lcd_novo_char
              160A  118A         
  6002                           	line	143
  6003                           	
  6004  15EA                     l8170:	
  6005                           ;homem.c: 143: lcd_novo_char(3, slipA4);
  6006  15EA  303C               	movlw	low(_slipA4|8000h)
  6007  15EB  1283               	bcf	status, 5	;RP0=0, select bank0
  6008  15EC  1303               	bcf	status, 6	;RP1=0, select bank0
  6009  15ED  00A3               	movwf	(?_lcd_novo_char)
  6010  15EE  3081               	movlw	high(_slipA4|8000h)
  6011  15EF  00A4               	movwf	((?_lcd_novo_char))+1
  6012  15F0  3003               	movlw	(03h)
  6013  15F1  160A  158A  2777   	fcall	_lcd_novo_char
              160A  118A         
  6014                           	line	144
  6015                           	
  6016  15F6                     l8172:	
  6017                           ;homem.c: 144: lcd_novo_char(4, slipA5);
  6018  15F6  3044               	movlw	low(_slipA5|8000h)
  6019  15F7  1283               	bcf	status, 5	;RP0=0, select bank0
  6020  15F8  1303               	bcf	status, 6	;RP1=0, select bank0
  6021  15F9  00A3               	movwf	(?_lcd_novo_char)
  6022  15FA  3081               	movlw	high(_slipA5|8000h)
  6023  15FB  00A4               	movwf	((?_lcd_novo_char))+1
  6024  15FC  3004               	movlw	(04h)
  6025  15FD  160A  158A  2777   	fcall	_lcd_novo_char
              160A  118A         
  6026                           	line	145
  6027                           	
  6028  1602                     l8174:	
  6029                           ;homem.c: 145: lcd_novo_char(5, slipA6);
  6030  1602  304C               	movlw	low(_slipA6|8000h)
  6031  1603  1283               	bcf	status, 5	;RP0=0, select bank0
  6032  1604  1303               	bcf	status, 6	;RP1=0, select bank0
  6033  1605  00A3               	movwf	(?_lcd_novo_char)
  6034  1606  3081               	movlw	high(_slipA6|8000h)
  6035  1607  00A4               	movwf	((?_lcd_novo_char))+1
  6036  1608  3005               	movlw	(05h)
  6037  1609  160A  158A  2777   	fcall	_lcd_novo_char
              160A  118A         
  6038                           	line	146
  6039                           	
  6040  160E                     l8176:	
  6041                           ;homem.c: 146: lcd_cursor_ddram(a, 1);
  6042  160E  1283               	bcf	status, 5	;RP0=0, select bank0
  6043  160F  1303               	bcf	status, 6	;RP1=0, select bank0
  6044  1610  01A3               	clrf	(?_lcd_cursor_ddram)
  6045  1611  1403               	bsf	status,0
  6046  1612  0DA3               	rlf	(?_lcd_cursor_ddram),f
  6047  1613  0838               	movf	(homem_vira_direita@a),w
  6048  1614  160A  118A  20C8   	fcall	_lcd_cursor_ddram
              160A  118A         
  6049                           	line	147
  6050                           	
  6051  1619                     l8178:	
  6052                           ;homem.c: 147: lcd_putch(0);
  6053  1619  3000               	movlw	(0)
  6054  161A  160A  158A  256B   	fcall	_lcd_putch
              160A  118A         
  6055                           	line	148
  6056                           	
  6057  161F                     l8180:	
  6058                           ;homem.c: 148: lcd_cursor_ddram(a, 0);
  6059  161F  1283               	bcf	status, 5	;RP0=0, select bank0
  6060  1620  1303               	bcf	status, 6	;RP1=0, select bank0
  6061  1621  01A3               	clrf	(?_lcd_cursor_ddram)
  6062  1622  0838               	movf	(homem_vira_direita@a),w
  6063  1623  160A  118A  20C8   	fcall	_lcd_cursor_ddram
              160A  118A         
  6064                           	line	149
  6065                           	
  6066  1628                     l8182:	
  6067                           ;homem.c: 149: lcd_putch(1);
  6068  1628  3001               	movlw	(01h)
  6069  1629  160A  158A  256B   	fcall	_lcd_putch
              160A  118A         
  6070                           	line	150
  6071                           	
  6072  162E                     l8184:	
  6073                           ;homem.c: 150: lcd_cursor_ddram(b, 1);
  6074  162E  1283               	bcf	status, 5	;RP0=0, select bank0
  6075  162F  1303               	bcf	status, 6	;RP1=0, select bank0
  6076  1630  01A3               	clrf	(?_lcd_cursor_ddram)
  6077  1631  1403               	bsf	status,0
  6078  1632  0DA3               	rlf	(?_lcd_cursor_ddram),f
  6079  1633  0834               	movf	(homem_vira_direita@b),w
  6080  1634  160A  118A  20C8   	fcall	_lcd_cursor_ddram
              160A  118A         
  6081                           	line	151
  6082                           	
  6083  1639                     l8186:	
  6084                           ;homem.c: 151: lcd_putch(2);
  6085  1639  3002               	movlw	(02h)
  6086  163A  160A  158A  256B   	fcall	_lcd_putch
              160A  118A         
  6087                           	line	152
  6088                           	
  6089  163F                     l8188:	
  6090                           ;homem.c: 152: lcd_cursor_ddram(b, 0);
  6091  163F  1283               	bcf	status, 5	;RP0=0, select bank0
  6092  1640  1303               	bcf	status, 6	;RP1=0, select bank0
  6093  1641  01A3               	clrf	(?_lcd_cursor_ddram)
  6094  1642  0834               	movf	(homem_vira_direita@b),w
  6095  1643  160A  118A  20C8   	fcall	_lcd_cursor_ddram
              160A  118A         
  6096                           	line	153
  6097                           	
  6098  1648                     l8190:	
  6099                           ;homem.c: 153: lcd_putch(3);
  6100  1648  3003               	movlw	(03h)
  6101  1649  160A  158A  256B   	fcall	_lcd_putch
              160A  118A         
  6102                           	line	154
  6103                           	
  6104  164E                     l8192:	
  6105                           ;homem.c: 154: lcd_cursor_ddram(c, 1);
  6106  164E  1283               	bcf	status, 5	;RP0=0, select bank0
  6107  164F  1303               	bcf	status, 6	;RP1=0, select bank0
  6108  1650  01A3               	clrf	(?_lcd_cursor_ddram)
  6109  1651  1403               	bsf	status,0
  6110  1652  0DA3               	rlf	(?_lcd_cursor_ddram),f
  6111  1653  0836               	movf	(homem_vira_direita@c),w
  6112  1654  160A  118A  20C8   	fcall	_lcd_cursor_ddram
              160A  118A         
  6113                           	line	155
  6114                           	
  6115  1659                     l8194:	
  6116                           ;homem.c: 155: lcd_putch(4);
  6117  1659  3004               	movlw	(04h)
  6118  165A  160A  158A  256B   	fcall	_lcd_putch
              160A  118A         
  6119                           	line	156
  6120                           	
  6121  165F                     l8196:	
  6122                           ;homem.c: 156: lcd_cursor_ddram(c, 0);
  6123  165F  1283               	bcf	status, 5	;RP0=0, select bank0
  6124  1660  1303               	bcf	status, 6	;RP1=0, select bank0
  6125  1661  01A3               	clrf	(?_lcd_cursor_ddram)
  6126  1662  0836               	movf	(homem_vira_direita@c),w
  6127  1663  160A  118A  20C8   	fcall	_lcd_cursor_ddram
              160A  118A         
  6128                           	line	157
  6129                           	
  6130  1668                     l8198:	
  6131                           ;homem.c: 157: lcd_putch(5);
  6132  1668  3005               	movlw	(05h)
  6133  1669  160A  158A  256B   	fcall	_lcd_putch
              160A  118A         
  6134                           	line	158
  6135                           	
  6136  166E                     l8200:	
  6137                           ;homem.c: 158: _delay((unsigned long)((150)*(20000000/4000.0)));
  6138                           	opt asmopt_off
  6139  166E  3004               movlw  4
  6140  166F  1283               	bcf	status, 5	;RP0=0, select bank0
  6141  1670  1303               	bcf	status, 6	;RP1=0, select bank0
  6142  1671  00B3               movwf	((??_homem_vira_direita+0)+0+2),f
  6143  1672  30CF               movlw	207
  6144  1673  00B2               movwf	((??_homem_vira_direita+0)+0+1),f
  6145  1674  3003               	movlw	3
  6146  1675  00B1               movwf	((??_homem_vira_direita+0)+0),f
  6147  1676                     u3707:
  6148  1676  0BB1               	decfsz	((??_homem_vira_direita+0)+0),f
  6149  1677  2E76               	goto	u3707
  6150  1678  0BB2               	decfsz	((??_homem_vira_direita+0)+0+1),f
  6151  1679  2E76               	goto	u3707
  6152  167A  0BB3               	decfsz	((??_homem_vira_direita+0)+0+2),f
  6153  167B  2E76               	goto	u3707
  6154  167C  2E7D               	nop2
  6155                           opt asmopt_on
  6156                           
  6157                           	line	159
  6158                           	
  6159  167D                     l8202:	
  6160                           ;homem.c: 159: lcd_clear();
  6161  167D  160A  158A  25D6   	fcall	_lcd_clear
              160A  118A         
  6162                           	line	160
  6163                           ;homem.c: 160: lcd_string((char *) "----------------", 0x10);
  6164  1682  30DF               	movlw	low(STR_29|8000h)
  6165  1683  1283               	bcf	status, 5	;RP0=0, select bank0
  6166  1684  1303               	bcf	status, 6	;RP1=0, select bank0
  6167  1685  00A4               	movwf	(?_lcd_string)
  6168  1686  3083               	movlw	high(STR_29|8000h)
  6169  1687  00A5               	movwf	((?_lcd_string))+1
  6170  1688  3010               	movlw	(010h)
  6171  1689  00B1               	movwf	(??_homem_vira_direita+0)+0
  6172  168A  0831               	movf	(??_homem_vira_direita+0)+0,w
  6173  168B  00A6               	movwf	0+(?_lcd_string)+02h
  6174  168C  160A  158A  2699   	fcall	_lcd_string
              160A  118A         
  6175                           	line	161
  6176                           ;homem.c: 161: lcd_novo_char(0, slipB1);
  6177  1691  3054               	movlw	low(_slipB1|8000h)
  6178  1692  1283               	bcf	status, 5	;RP0=0, select bank0
  6179  1693  1303               	bcf	status, 6	;RP1=0, select bank0
  6180  1694  00A3               	movwf	(?_lcd_novo_char)
  6181  1695  3081               	movlw	high(_slipB1|8000h)
  6182  1696  00A4               	movwf	((?_lcd_novo_char))+1
  6183  1697  3000               	movlw	(0)
  6184  1698  160A  158A  2777   	fcall	_lcd_novo_char
              160A  118A         
  6185                           	line	162
  6186                           ;homem.c: 162: lcd_novo_char(1, slipB2);
  6187  169D  305C               	movlw	low(_slipB2|8000h)
  6188  169E  1283               	bcf	status, 5	;RP0=0, select bank0
  6189  169F  1303               	bcf	status, 6	;RP1=0, select bank0
  6190  16A0  00A3               	movwf	(?_lcd_novo_char)
  6191  16A1  3081               	movlw	high(_slipB2|8000h)
  6192  16A2  00A4               	movwf	((?_lcd_novo_char))+1
  6193  16A3  3001               	movlw	(01h)
  6194  16A4  160A  158A  2777   	fcall	_lcd_novo_char
              160A  118A         
  6195                           	line	163
  6196                           ;homem.c: 163: lcd_novo_char(2, slipB3);
  6197  16A9  3064               	movlw	low(_slipB3|8000h)
  6198  16AA  1283               	bcf	status, 5	;RP0=0, select bank0
  6199  16AB  1303               	bcf	status, 6	;RP1=0, select bank0
  6200  16AC  00A3               	movwf	(?_lcd_novo_char)
  6201  16AD  3081               	movlw	high(_slipB3|8000h)
  6202  16AE  00A4               	movwf	((?_lcd_novo_char))+1
  6203  16AF  3002               	movlw	(02h)
  6204  16B0  160A  158A  2777   	fcall	_lcd_novo_char
              160A  118A         
  6205                           	line	164
  6206                           ;homem.c: 164: lcd_novo_char(3, slipB4);
  6207  16B5  306C               	movlw	low(_slipB4|8000h)
  6208  16B6  1283               	bcf	status, 5	;RP0=0, select bank0
  6209  16B7  1303               	bcf	status, 6	;RP1=0, select bank0
  6210  16B8  00A3               	movwf	(?_lcd_novo_char)
  6211  16B9  3081               	movlw	high(_slipB4|8000h)
  6212  16BA  00A4               	movwf	((?_lcd_novo_char))+1
  6213  16BB  3003               	movlw	(03h)
  6214  16BC  160A  158A  2777   	fcall	_lcd_novo_char
              160A  118A         
  6215                           	line	165
  6216                           ;homem.c: 165: lcd_novo_char(4, slipB5);
  6217  16C1  3074               	movlw	low(_slipB5|8000h)
  6218  16C2  1283               	bcf	status, 5	;RP0=0, select bank0
  6219  16C3  1303               	bcf	status, 6	;RP1=0, select bank0
  6220  16C4  00A3               	movwf	(?_lcd_novo_char)
  6221  16C5  3081               	movlw	high(_slipB5|8000h)
  6222  16C6  00A4               	movwf	((?_lcd_novo_char))+1
  6223  16C7  3004               	movlw	(04h)
  6224  16C8  160A  158A  2777   	fcall	_lcd_novo_char
              160A  118A         
  6225                           	line	166
  6226                           ;homem.c: 166: lcd_novo_char(5, slipB6);
  6227  16CD  307C               	movlw	low(_slipB6|8000h)
  6228  16CE  1283               	bcf	status, 5	;RP0=0, select bank0
  6229  16CF  1303               	bcf	status, 6	;RP1=0, select bank0
  6230  16D0  00A3               	movwf	(?_lcd_novo_char)
  6231  16D1  3081               	movlw	high(_slipB6|8000h)
  6232  16D2  00A4               	movwf	((?_lcd_novo_char))+1
  6233  16D3  3005               	movlw	(05h)
  6234  16D4  160A  158A  2777   	fcall	_lcd_novo_char
              160A  118A         
  6235                           	line	167
  6236                           ;homem.c: 167: lcd_cursor_ddram(a, 1);
  6237  16D9  1283               	bcf	status, 5	;RP0=0, select bank0
  6238  16DA  1303               	bcf	status, 6	;RP1=0, select bank0
  6239  16DB  01A3               	clrf	(?_lcd_cursor_ddram)
  6240  16DC  1403               	bsf	status,0
  6241  16DD  0DA3               	rlf	(?_lcd_cursor_ddram),f
  6242  16DE  0838               	movf	(homem_vira_direita@a),w
  6243  16DF  160A  118A  20C8   	fcall	_lcd_cursor_ddram
              160A  118A         
  6244                           	line	168
  6245                           	
  6246  16E4                     l8204:	
  6247                           ;homem.c: 168: lcd_putch(0);
  6248  16E4  3000               	movlw	(0)
  6249  16E5  160A  158A  256B   	fcall	_lcd_putch
              160A  118A         
  6250                           	line	169
  6251                           	
  6252  16EA                     l8206:	
  6253                           ;homem.c: 169: lcd_cursor_ddram(a, 0);
  6254  16EA  1283               	bcf	status, 5	;RP0=0, select bank0
  6255  16EB  1303               	bcf	status, 6	;RP1=0, select bank0
  6256  16EC  01A3               	clrf	(?_lcd_cursor_ddram)
  6257  16ED  0838               	movf	(homem_vira_direita@a),w
  6258  16EE  160A  118A  20C8   	fcall	_lcd_cursor_ddram
              160A  118A         
  6259                           	line	170
  6260                           ;homem.c: 170: lcd_putch(1);
  6261  16F3  3001               	movlw	(01h)
  6262  16F4  160A  158A  256B   	fcall	_lcd_putch
              160A  118A         
  6263                           	line	171
  6264                           	
  6265  16F9                     l8208:	
  6266                           ;homem.c: 171: lcd_cursor_ddram(b, 1);
  6267  16F9  1283               	bcf	status, 5	;RP0=0, select bank0
  6268  16FA  1303               	bcf	status, 6	;RP1=0, select bank0
  6269  16FB  01A3               	clrf	(?_lcd_cursor_ddram)
  6270  16FC  1403               	bsf	status,0
  6271  16FD  0DA3               	rlf	(?_lcd_cursor_ddram),f
  6272  16FE  0834               	movf	(homem_vira_direita@b),w
  6273  16FF  160A  118A  20C8   	fcall	_lcd_cursor_ddram
              160A  118A         
  6274                           	line	172
  6275                           	
  6276  1704                     l8210:	
  6277                           ;homem.c: 172: lcd_putch(2);
  6278  1704  3002               	movlw	(02h)
  6279  1705  160A  158A  256B   	fcall	_lcd_putch
              160A  118A         
  6280                           	line	173
  6281                           ;homem.c: 173: lcd_cursor_ddram(b, 0);
  6282  170A  1283               	bcf	status, 5	;RP0=0, select bank0
  6283  170B  1303               	bcf	status, 6	;RP1=0, select bank0
  6284  170C  01A3               	clrf	(?_lcd_cursor_ddram)
  6285  170D  0834               	movf	(homem_vira_direita@b),w
  6286  170E  160A  118A  20C8   	fcall	_lcd_cursor_ddram
              160A  118A         
  6287                           	line	174
  6288                           	
  6289  1713                     l8212:	
  6290                           ;homem.c: 174: lcd_putch(3);
  6291  1713  3003               	movlw	(03h)
  6292  1714  160A  158A  256B   	fcall	_lcd_putch
              160A  118A         
  6293                           	line	175
  6294                           	
  6295  1719                     l8214:	
  6296                           ;homem.c: 175: lcd_cursor_ddram(c, 1);
  6297  1719  1283               	bcf	status, 5	;RP0=0, select bank0
  6298  171A  1303               	bcf	status, 6	;RP1=0, select bank0
  6299  171B  01A3               	clrf	(?_lcd_cursor_ddram)
  6300  171C  1403               	bsf	status,0
  6301  171D  0DA3               	rlf	(?_lcd_cursor_ddram),f
  6302  171E  0836               	movf	(homem_vira_direita@c),w
  6303  171F  160A  118A  20C8   	fcall	_lcd_cursor_ddram
              160A  118A         
  6304                           	line	176
  6305                           ;homem.c: 176: lcd_putch(4);
  6306  1724  3004               	movlw	(04h)
  6307  1725  160A  158A  256B   	fcall	_lcd_putch
              160A  118A         
  6308                           	line	177
  6309                           	
  6310  172A                     l8216:	
  6311                           ;homem.c: 177: lcd_cursor_ddram(c, 0);
  6312  172A  1283               	bcf	status, 5	;RP0=0, select bank0
  6313  172B  1303               	bcf	status, 6	;RP1=0, select bank0
  6314  172C  01A3               	clrf	(?_lcd_cursor_ddram)
  6315  172D  0836               	movf	(homem_vira_direita@c),w
  6316  172E  160A  118A  20C8   	fcall	_lcd_cursor_ddram
              160A  118A         
  6317                           	line	178
  6318                           	
  6319  1733                     l8218:	
  6320                           ;homem.c: 178: lcd_putch(5);
  6321  1733  3005               	movlw	(05h)
  6322  1734  160A  158A  256B   	fcall	_lcd_putch
              160A  118A         
  6323                           	line	179
  6324                           	
  6325  1739                     l8220:	
  6326                           ;homem.c: 179: _delay((unsigned long)((150)*(20000000/4000.0)));
  6327                           	opt asmopt_off
  6328  1739  3004               movlw  4
  6329  173A  1283               	bcf	status, 5	;RP0=0, select bank0
  6330  173B  1303               	bcf	status, 6	;RP1=0, select bank0
  6331  173C  00B3               movwf	((??_homem_vira_direita+0)+0+2),f
  6332  173D  30CF               movlw	207
  6333  173E  00B2               movwf	((??_homem_vira_direita+0)+0+1),f
  6334  173F  3003               	movlw	3
  6335  1740  00B1               movwf	((??_homem_vira_direita+0)+0),f
  6336  1741                     u3717:
  6337  1741  0BB1               	decfsz	((??_homem_vira_direita+0)+0),f
  6338  1742  2F41               	goto	u3717
  6339  1743  0BB2               	decfsz	((??_homem_vira_direita+0)+0+1),f
  6340  1744  2F41               	goto	u3717
  6341  1745  0BB3               	decfsz	((??_homem_vira_direita+0)+0+2),f
  6342  1746  2F41               	goto	u3717
  6343  1747  2F48               	nop2
  6344                           opt asmopt_on
  6345                           
  6346                           	line	180
  6347                           	
  6348  1748                     l8222:	
  6349                           ;homem.c: 180: lcd_novo_char(0, slipC1);
  6350  1748  3084               	movlw	low(_slipC1|8000h)
  6351  1749  1283               	bcf	status, 5	;RP0=0, select bank0
  6352  174A  1303               	bcf	status, 6	;RP1=0, select bank0
  6353  174B  00A3               	movwf	(?_lcd_novo_char)
  6354  174C  3081               	movlw	high(_slipC1|8000h)
  6355  174D  00A4               	movwf	((?_lcd_novo_char))+1
  6356  174E  3000               	movlw	(0)
  6357  174F  160A  158A  2777   	fcall	_lcd_novo_char
              160A  118A         
  6358                           	line	181
  6359                           	
  6360  1754                     l8224:	
  6361                           ;homem.c: 181: lcd_novo_char(1, slipC2);
  6362  1754  308C               	movlw	low(_slipC2|8000h)
  6363  1755  1283               	bcf	status, 5	;RP0=0, select bank0
  6364  1756  1303               	bcf	status, 6	;RP1=0, select bank0
  6365  1757  00A3               	movwf	(?_lcd_novo_char)
  6366  1758  3081               	movlw	high(_slipC2|8000h)
  6367  1759  00A4               	movwf	((?_lcd_novo_char))+1
  6368  175A  3001               	movlw	(01h)
  6369  175B  160A  158A  2777   	fcall	_lcd_novo_char
              160A  118A         
  6370                           	line	182
  6371                           	
  6372  1760                     l8226:	
  6373                           ;homem.c: 182: lcd_novo_char(2, slipC3);
  6374  1760  3094               	movlw	low(_slipC3|8000h)
  6375  1761  1283               	bcf	status, 5	;RP0=0, select bank0
  6376  1762  1303               	bcf	status, 6	;RP1=0, select bank0
  6377  1763  00A3               	movwf	(?_lcd_novo_char)
  6378  1764  3081               	movlw	high(_slipC3|8000h)
  6379  1765  00A4               	movwf	((?_lcd_novo_char))+1
  6380  1766  3002               	movlw	(02h)
  6381  1767  160A  158A  2777   	fcall	_lcd_novo_char
              160A  118A         
  6382                           	line	183
  6383                           	
  6384  176C                     l8228:	
  6385                           ;homem.c: 183: lcd_novo_char(3, slipC4);
  6386  176C  309C               	movlw	low(_slipC4|8000h)
  6387  176D  1283               	bcf	status, 5	;RP0=0, select bank0
  6388  176E  1303               	bcf	status, 6	;RP1=0, select bank0
  6389  176F  00A3               	movwf	(?_lcd_novo_char)
  6390  1770  3081               	movlw	high(_slipC4|8000h)
  6391  1771  00A4               	movwf	((?_lcd_novo_char))+1
  6392  1772  3003               	movlw	(03h)
  6393  1773  160A  158A  2777   	fcall	_lcd_novo_char
              160A  118A         
  6394                           	line	184
  6395                           	
  6396  1778                     l8230:	
  6397                           ;homem.c: 184: lcd_novo_char(4, slipC5);
  6398  1778  30A4               	movlw	low(_slipC5|8000h)
  6399  1779  1283               	bcf	status, 5	;RP0=0, select bank0
  6400  177A  1303               	bcf	status, 6	;RP1=0, select bank0
  6401  177B  00A3               	movwf	(?_lcd_novo_char)
  6402  177C  3081               	movlw	high(_slipC5|8000h)
  6403  177D  00A4               	movwf	((?_lcd_novo_char))+1
  6404  177E  3004               	movlw	(04h)
  6405  177F  160A  158A  2777   	fcall	_lcd_novo_char
              160A  118A         
  6406                           	line	185
  6407                           	
  6408  1784                     l8232:	
  6409                           ;homem.c: 185: lcd_novo_char(5, slipC6);
  6410  1784  30AC               	movlw	low(_slipC6|8000h)
  6411  1785  1283               	bcf	status, 5	;RP0=0, select bank0
  6412  1786  1303               	bcf	status, 6	;RP1=0, select bank0
  6413  1787  00A3               	movwf	(?_lcd_novo_char)
  6414  1788  3081               	movlw	high(_slipC6|8000h)
  6415  1789  00A4               	movwf	((?_lcd_novo_char))+1
  6416  178A  3005               	movlw	(05h)
  6417  178B  160A  158A  2777   	fcall	_lcd_novo_char
              160A  118A         
  6418                           	line	186
  6419                           	
  6420  1790                     l8234:	
  6421                           ;homem.c: 186: lcd_cursor_ddram(a, 1);
  6422  1790  1283               	bcf	status, 5	;RP0=0, select bank0
  6423  1791  1303               	bcf	status, 6	;RP1=0, select bank0
  6424  1792  01A3               	clrf	(?_lcd_cursor_ddram)
  6425  1793  1403               	bsf	status,0
  6426  1794  0DA3               	rlf	(?_lcd_cursor_ddram),f
  6427  1795  0838               	movf	(homem_vira_direita@a),w
  6428  1796  160A  118A  20C8   	fcall	_lcd_cursor_ddram
              160A  118A         
  6429                           	line	187
  6430                           	
  6431  179B                     l8236:	
  6432                           ;homem.c: 187: lcd_putch(0);
  6433  179B  3000               	movlw	(0)
  6434  179C  160A  158A  256B   	fcall	_lcd_putch
              160A  118A         
  6435                           	line	188
  6436                           	
  6437  17A1                     l8238:	
  6438                           ;homem.c: 188: lcd_cursor_ddram(a, 0);
  6439  17A1  1283               	bcf	status, 5	;RP0=0, select bank0
  6440  17A2  1303               	bcf	status, 6	;RP1=0, select bank0
  6441  17A3  01A3               	clrf	(?_lcd_cursor_ddram)
  6442  17A4  0838               	movf	(homem_vira_direita@a),w
  6443  17A5  160A  118A  20C8   	fcall	_lcd_cursor_ddram
              160A  118A         
  6444                           	line	189
  6445                           	
  6446  17AA                     l8240:	
  6447                           ;homem.c: 189: lcd_putch(1);
  6448  17AA  3001               	movlw	(01h)
  6449  17AB  160A  158A  256B   	fcall	_lcd_putch
              160A  118A         
  6450                           	line	190
  6451                           	
  6452  17B0                     l8242:	
  6453                           ;homem.c: 190: lcd_cursor_ddram(b, 1);
  6454  17B0  1283               	bcf	status, 5	;RP0=0, select bank0
  6455  17B1  1303               	bcf	status, 6	;RP1=0, select bank0
  6456  17B2  01A3               	clrf	(?_lcd_cursor_ddram)
  6457  17B3  1403               	bsf	status,0
  6458  17B4  0DA3               	rlf	(?_lcd_cursor_ddram),f
  6459  17B5  0834               	movf	(homem_vira_direita@b),w
  6460  17B6  160A  118A  20C8   	fcall	_lcd_cursor_ddram
              160A  118A         
  6461                           	line	191
  6462                           	
  6463  17BB                     l8244:	
  6464                           ;homem.c: 191: lcd_putch(2);
  6465  17BB  3002               	movlw	(02h)
  6466  17BC  160A  158A  256B   	fcall	_lcd_putch
              160A  118A         
  6467                           	line	192
  6468                           	
  6469  17C1                     l8246:	
  6470                           ;homem.c: 192: lcd_cursor_ddram(b, 0);
  6471  17C1  1283               	bcf	status, 5	;RP0=0, select bank0
  6472  17C2  1303               	bcf	status, 6	;RP1=0, select bank0
  6473  17C3  01A3               	clrf	(?_lcd_cursor_ddram)
  6474  17C4  0834               	movf	(homem_vira_direita@b),w
  6475  17C5  160A  118A  20C8   	fcall	_lcd_cursor_ddram
              160A  118A         
  6476                           	line	193
  6477                           	
  6478  17CA                     l8248:	
  6479                           ;homem.c: 193: lcd_putch(3);
  6480  17CA  3003               	movlw	(03h)
  6481  17CB  160A  158A  256B   	fcall	_lcd_putch
              160A  118A         
  6482                           	line	194
  6483                           	
  6484  17D0                     l8250:	
  6485                           ;homem.c: 194: lcd_cursor_ddram(c, 1);
  6486  17D0  1283               	bcf	status, 5	;RP0=0, select bank0
  6487  17D1  1303               	bcf	status, 6	;RP1=0, select bank0
  6488  17D2  01A3               	clrf	(?_lcd_cursor_ddram)
  6489  17D3  1403               	bsf	status,0
  6490  17D4  0DA3               	rlf	(?_lcd_cursor_ddram),f
  6491  17D5  0836               	movf	(homem_vira_direita@c),w
  6492  17D6  160A  118A  20C8   	fcall	_lcd_cursor_ddram
              160A  118A         
  6493                           	line	195
  6494                           	
  6495  17DB                     l8252:	
  6496                           ;homem.c: 195: lcd_putch(4);
  6497  17DB  3004               	movlw	(04h)
  6498  17DC  160A  158A  256B   	fcall	_lcd_putch
              160A  118A         
  6499                           	line	196
  6500                           	
  6501  17E1                     l8254:	
  6502                           ;homem.c: 196: lcd_cursor_ddram(c, 0);
  6503  17E1  1283               	bcf	status, 5	;RP0=0, select bank0
  6504  17E2  1303               	bcf	status, 6	;RP1=0, select bank0
  6505  17E3  01A3               	clrf	(?_lcd_cursor_ddram)
  6506  17E4  0836               	movf	(homem_vira_direita@c),w
  6507  17E5  160A  118A  20C8   	fcall	_lcd_cursor_ddram
              160A  118A         
  6508                           	line	197
  6509                           	
  6510  17EA                     l8256:	
  6511                           ;homem.c: 197: lcd_putch(5);
  6512  17EA  3005               	movlw	(05h)
  6513  17EB  160A  158A  256B   	fcall	_lcd_putch
              160A  118A         
  6514                           	line	198
  6515                           	
  6516  17F0                     l8258:	
  6517                           ;homem.c: 198: _delay((unsigned long)((150)*(20000000/4000.0)));
  6518                           	opt asmopt_off
  6519  17F0  3004               movlw  4
  6520  17F1  1283               	bcf	status, 5	;RP0=0, select bank0
  6521  17F2  1303               	bcf	status, 6	;RP1=0, select bank0
  6522  17F3  00B3               movwf	((??_homem_vira_direita+0)+0+2),f
  6523  17F4  30CF               movlw	207
  6524  17F5  00B2               movwf	((??_homem_vira_direita+0)+0+1),f
  6525  17F6  3003               	movlw	3
  6526  17F7  00B1               movwf	((??_homem_vira_direita+0)+0),f
  6527  17F8                     u3727:
  6528  17F8  0BB1               	decfsz	((??_homem_vira_direita+0)+0),f
  6529  17F9  2FF8               	goto	u3727
  6530  17FA  0BB2               	decfsz	((??_homem_vira_direita+0)+0+1),f
  6531  17FB  2FF8               	goto	u3727
  6532  17FC  0BB3               	decfsz	((??_homem_vira_direita+0)+0+2),f
  6533  17FD  2FF8               	goto	u3727
  6534  17FE  2FFF               	nop2
  6535                           opt asmopt_on
  6536                           
  6537                           	line	199
  6538                           	
  6539  17FF                     l4953:	
  6540  17FF  0008               	return
  6541                           	opt stack 0
  6542                           GLOBAL	__end_of_homem_vira_direita
  6543  1800                     	__end_of_homem_vira_direita:
  6544 ;; =============== function _homem_vira_direita ends ============
  6545                           
  6546                           	signat	_homem_vira_direita,88
  6547                           	global	_homem_corre_esquerda
  6548                           psect	text954,local,class=CODE,delta=2
  6549                           global __ptext954
  6550  0939                     __ptext954:
  6551                           
  6552 ;; *************** function _homem_corre_esquerda *****************
  6553 ;; Defined at:
  6554 ;;		line 36 in file "homem.c"
  6555 ;; Parameters:    Size  Location     Type
  6556 ;;		None
  6557 ;; Auto vars:     Size  Location     Type
  6558 ;;  a               1   26[BANK0 ] unsigned char 
  6559 ;;  e               1   25[BANK0 ] unsigned char 
  6560 ;;  d               1   24[BANK0 ] unsigned char 
  6561 ;;  f               1   23[BANK0 ] unsigned char 
  6562 ;;  c               1   22[BANK0 ] unsigned char 
  6563 ;;  g               1   21[BANK0 ] unsigned char 
  6564 ;;  b               1   20[BANK0 ] unsigned char 
  6565 ;; Return value:  Size  Location     Type
  6566 ;;		None               void
  6567 ;; Registers used:
  6568 ;;		wreg, fsr0l, fsr0h, status,2, status,0, btemp+1, pclath, cstack
  6569 ;; Tracked objects:
  6570 ;;		On entry : 0/0
  6571 ;;		On exit  : 0/0
  6572 ;;		Unchanged: 0/0
  6573 ;; Data sizes:     COMMON   BANK0   BANK1   BANK3   BANK2
  6574 ;;      Params:         0       0       0       0       0
  6575 ;;      Locals:         0       7       0       0       0
  6576 ;;      Temps:          0       3       0       0       0
  6577 ;;      Totals:         0      10       0       0       0
  6578 ;;Total ram usage:       10 bytes
  6579 ;; Hardware stack levels used:    1
  6580 ;; Hardware stack levels required when called:    5
  6581 ;; This function calls:
  6582 ;;		_lcd_clear
  6583 ;;		_lcd_string
  6584 ;;		_lcd_novo_char
  6585 ;;		_lcd_cursor_ddram
  6586 ;;		_lcd_putch
  6587 ;; This function is called by:
  6588 ;;		_homem_animacao
  6589 ;; This function uses a non-reentrant model
  6590 ;;
  6591                           psect	text954
  6592                           	file	"homem.c"
  6593                           	line	36
  6594                           	global	__size_of_homem_corre_esquerda
  6595  0363                     	__size_of_homem_corre_esquerda	equ	__end_of_homem_corre_esquerda-_homem_corre_esquerda
  6596                           	
  6597  0939                     _homem_corre_esquerda:	
  6598                           	opt	stack 1
  6599                           ; Regs used in _homem_corre_esquerda: [wreg-fsr0h+status,2+status,0+btemp+1+pclath+cstac
                                 k]
  6600                           	line	39
  6601                           	
  6602  0939                     l7976:	
  6603                           ;homem.c: 37: unsigned char a, b, c, d, e, f, g;
  6604                           ;homem.c: 39: for (a = 0; a < 11; a += 4) {
  6605  0939  1283               	bcf	status, 5	;RP0=0, select bank0
  6606  093A  1303               	bcf	status, 6	;RP1=0, select bank0
  6607  093B  01BA               	clrf	(homem_corre_esquerda@a)
  6608                           	
  6609  093C                     l7978:	
  6610  093C  300B               	movlw	(0Bh)
  6611  093D  023A               	subwf	(homem_corre_esquerda@a),w
  6612  093E  1C03               	skipc
  6613  093F  2941               	goto	u3431
  6614  0940  2942               	goto	u3430
  6615  0941                     u3431:
  6616  0941  2944               	goto	l7982
  6617  0942                     u3430:
  6618  0942  2C9B               	goto	l4950
  6619                           	
  6620  0943                     l7980:	
  6621  0943  2C9B               	goto	l4950
  6622                           	
  6623  0944                     l4948:	
  6624                           	line	40
  6625                           	
  6626  0944                     l7982:	
  6627                           ;homem.c: 40: b = a + 1;
  6628  0944  083A               	movf	(homem_corre_esquerda@a),w
  6629  0945  3E01               	addlw	01h
  6630  0946  00B1               	movwf	(??_homem_corre_esquerda+0)+0
  6631  0947  0831               	movf	(??_homem_corre_esquerda+0)+0,w
  6632  0948  00B4               	movwf	(homem_corre_esquerda@b)
  6633                           	line	41
  6634                           ;homem.c: 41: c = a + 2;
  6635  0949  083A               	movf	(homem_corre_esquerda@a),w
  6636  094A  3E02               	addlw	02h
  6637  094B  00B1               	movwf	(??_homem_corre_esquerda+0)+0
  6638  094C  0831               	movf	(??_homem_corre_esquerda+0)+0,w
  6639  094D  00B6               	movwf	(homem_corre_esquerda@c)
  6640                           	line	42
  6641                           ;homem.c: 42: d = a + 3;
  6642  094E  083A               	movf	(homem_corre_esquerda@a),w
  6643  094F  3E03               	addlw	03h
  6644  0950  00B1               	movwf	(??_homem_corre_esquerda+0)+0
  6645  0951  0831               	movf	(??_homem_corre_esquerda+0)+0,w
  6646  0952  00B8               	movwf	(homem_corre_esquerda@d)
  6647                           	line	43
  6648                           ;homem.c: 43: e = a + 4;
  6649  0953  083A               	movf	(homem_corre_esquerda@a),w
  6650  0954  3E04               	addlw	04h
  6651  0955  00B1               	movwf	(??_homem_corre_esquerda+0)+0
  6652  0956  0831               	movf	(??_homem_corre_esquerda+0)+0,w
  6653  0957  00B9               	movwf	(homem_corre_esquerda@e)
  6654                           	line	44
  6655                           ;homem.c: 44: f = a + 5;
  6656  0958  083A               	movf	(homem_corre_esquerda@a),w
  6657  0959  3E05               	addlw	05h
  6658  095A  00B1               	movwf	(??_homem_corre_esquerda+0)+0
  6659  095B  0831               	movf	(??_homem_corre_esquerda+0)+0,w
  6660  095C  00B7               	movwf	(homem_corre_esquerda@f)
  6661                           	line	45
  6662                           ;homem.c: 45: g = a + 6;
  6663  095D  083A               	movf	(homem_corre_esquerda@a),w
  6664  095E  3E06               	addlw	06h
  6665  095F  00B1               	movwf	(??_homem_corre_esquerda+0)+0
  6666  0960  0831               	movf	(??_homem_corre_esquerda+0)+0,w
  6667  0961  00B5               	movwf	(homem_corre_esquerda@g)
  6668                           	line	47
  6669                           	
  6670  0962                     l7984:	
  6671                           ;homem.c: 47: lcd_clear();
  6672  0962  160A  158A  25D6   	fcall	_lcd_clear
              120A  158A         
  6673                           	line	48
  6674                           	
  6675  0967                     l7986:	
  6676                           ;homem.c: 48: lcd_string((char *) "----------------", 0x10);
  6677  0967  30DF               	movlw	low(STR_24|8000h)
  6678  0968  1283               	bcf	status, 5	;RP0=0, select bank0
  6679  0969  1303               	bcf	status, 6	;RP1=0, select bank0
  6680  096A  00A4               	movwf	(?_lcd_string)
  6681  096B  3083               	movlw	high(STR_24|8000h)
  6682  096C  00A5               	movwf	((?_lcd_string))+1
  6683  096D  3010               	movlw	(010h)
  6684  096E  00B1               	movwf	(??_homem_corre_esquerda+0)+0
  6685  096F  0831               	movf	(??_homem_corre_esquerda+0)+0,w
  6686  0970  00A6               	movwf	0+(?_lcd_string)+02h
  6687  0971  160A  158A  2699   	fcall	_lcd_string
              120A  158A         
  6688                           	line	49
  6689                           	
  6690  0976                     l7988:	
  6691                           ;homem.c: 49: lcd_novo_char(0, stepB1);
  6692  0976  3074               	movlw	low(_stepB1|8000h)
  6693  0977  1283               	bcf	status, 5	;RP0=0, select bank0
  6694  0978  1303               	bcf	status, 6	;RP1=0, select bank0
  6695  0979  00A3               	movwf	(?_lcd_novo_char)
  6696  097A  3082               	movlw	high(_stepB1|8000h)
  6697  097B  00A4               	movwf	((?_lcd_novo_char))+1
  6698  097C  3000               	movlw	(0)
  6699  097D  160A  158A  2777   	fcall	_lcd_novo_char
              120A  158A         
  6700                           	line	50
  6701                           	
  6702  0982                     l7990:	
  6703                           ;homem.c: 50: lcd_novo_char(1, stepB2);
  6704  0982  307C               	movlw	low(_stepB2|8000h)
  6705  0983  1283               	bcf	status, 5	;RP0=0, select bank0
  6706  0984  1303               	bcf	status, 6	;RP1=0, select bank0
  6707  0985  00A3               	movwf	(?_lcd_novo_char)
  6708  0986  3082               	movlw	high(_stepB2|8000h)
  6709  0987  00A4               	movwf	((?_lcd_novo_char))+1
  6710  0988  3001               	movlw	(01h)
  6711  0989  160A  158A  2777   	fcall	_lcd_novo_char
              120A  158A         
  6712                           	line	51
  6713                           	
  6714  098E                     l7992:	
  6715                           ;homem.c: 51: lcd_novo_char(2, stepB3);
  6716  098E  3084               	movlw	low(_stepB3|8000h)
  6717  098F  1283               	bcf	status, 5	;RP0=0, select bank0
  6718  0990  1303               	bcf	status, 6	;RP1=0, select bank0
  6719  0991  00A3               	movwf	(?_lcd_novo_char)
  6720  0992  3082               	movlw	high(_stepB3|8000h)
  6721  0993  00A4               	movwf	((?_lcd_novo_char))+1
  6722  0994  3002               	movlw	(02h)
  6723  0995  160A  158A  2777   	fcall	_lcd_novo_char
              120A  158A         
  6724                           	line	52
  6725                           	
  6726  099A                     l7994:	
  6727                           ;homem.c: 52: lcd_novo_char(3, stepB4);
  6728  099A  308C               	movlw	low(_stepB4|8000h)
  6729  099B  1283               	bcf	status, 5	;RP0=0, select bank0
  6730  099C  1303               	bcf	status, 6	;RP1=0, select bank0
  6731  099D  00A3               	movwf	(?_lcd_novo_char)
  6732  099E  3082               	movlw	high(_stepB4|8000h)
  6733  099F  00A4               	movwf	((?_lcd_novo_char))+1
  6734  09A0  3003               	movlw	(03h)
  6735  09A1  160A  158A  2777   	fcall	_lcd_novo_char
              120A  158A         
  6736                           	line	53
  6737                           	
  6738  09A6                     l7996:	
  6739                           ;homem.c: 53: lcd_novo_char(4, stepB5);
  6740  09A6  3094               	movlw	low(_stepB5|8000h)
  6741  09A7  1283               	bcf	status, 5	;RP0=0, select bank0
  6742  09A8  1303               	bcf	status, 6	;RP1=0, select bank0
  6743  09A9  00A3               	movwf	(?_lcd_novo_char)
  6744  09AA  3082               	movlw	high(_stepB5|8000h)
  6745  09AB  00A4               	movwf	((?_lcd_novo_char))+1
  6746  09AC  3004               	movlw	(04h)
  6747  09AD  160A  158A  2777   	fcall	_lcd_novo_char
              120A  158A         
  6748                           	line	54
  6749                           	
  6750  09B2                     l7998:	
  6751                           ;homem.c: 54: lcd_novo_char(5, stepB6);
  6752  09B2  309C               	movlw	low(_stepB6|8000h)
  6753  09B3  1283               	bcf	status, 5	;RP0=0, select bank0
  6754  09B4  1303               	bcf	status, 6	;RP1=0, select bank0
  6755  09B5  00A3               	movwf	(?_lcd_novo_char)
  6756  09B6  3082               	movlw	high(_stepB6|8000h)
  6757  09B7  00A4               	movwf	((?_lcd_novo_char))+1
  6758  09B8  3005               	movlw	(05h)
  6759  09B9  160A  158A  2777   	fcall	_lcd_novo_char
              120A  158A         
  6760                           	line	55
  6761                           	
  6762  09BE                     l8000:	
  6763                           ;homem.c: 55: lcd_cursor_ddram(b, 1);
  6764  09BE  1283               	bcf	status, 5	;RP0=0, select bank0
  6765  09BF  1303               	bcf	status, 6	;RP1=0, select bank0
  6766  09C0  01A3               	clrf	(?_lcd_cursor_ddram)
  6767  09C1  1403               	bsf	status,0
  6768  09C2  0DA3               	rlf	(?_lcd_cursor_ddram),f
  6769  09C3  0834               	movf	(homem_corre_esquerda@b),w
  6770  09C4  160A  118A  20C8   	fcall	_lcd_cursor_ddram
              120A  158A         
  6771                           	line	56
  6772                           	
  6773  09C9                     l8002:	
  6774                           ;homem.c: 56: lcd_putch(0);
  6775  09C9  3000               	movlw	(0)
  6776  09CA  160A  158A  256B   	fcall	_lcd_putch
              120A  158A         
  6777                           	line	57
  6778                           	
  6779  09CF                     l8004:	
  6780                           ;homem.c: 57: lcd_cursor_ddram(b, 0);
  6781  09CF  1283               	bcf	status, 5	;RP0=0, select bank0
  6782  09D0  1303               	bcf	status, 6	;RP1=0, select bank0
  6783  09D1  01A3               	clrf	(?_lcd_cursor_ddram)
  6784  09D2  0834               	movf	(homem_corre_esquerda@b),w
  6785  09D3  160A  118A  20C8   	fcall	_lcd_cursor_ddram
              120A  158A         
  6786                           	line	58
  6787                           	
  6788  09D8                     l8006:	
  6789                           ;homem.c: 58: lcd_putch(1);
  6790  09D8  3001               	movlw	(01h)
  6791  09D9  160A  158A  256B   	fcall	_lcd_putch
              120A  158A         
  6792                           	line	59
  6793                           	
  6794  09DE                     l8008:	
  6795                           ;homem.c: 59: lcd_cursor_ddram(c, 1);
  6796  09DE  1283               	bcf	status, 5	;RP0=0, select bank0
  6797  09DF  1303               	bcf	status, 6	;RP1=0, select bank0
  6798  09E0  01A3               	clrf	(?_lcd_cursor_ddram)
  6799  09E1  1403               	bsf	status,0
  6800  09E2  0DA3               	rlf	(?_lcd_cursor_ddram),f
  6801  09E3  0836               	movf	(homem_corre_esquerda@c),w
  6802  09E4  160A  118A  20C8   	fcall	_lcd_cursor_ddram
              120A  158A         
  6803                           	line	60
  6804                           	
  6805  09E9                     l8010:	
  6806                           ;homem.c: 60: lcd_putch(2);
  6807  09E9  3002               	movlw	(02h)
  6808  09EA  160A  158A  256B   	fcall	_lcd_putch
              120A  158A         
  6809                           	line	61
  6810                           	
  6811  09EF                     l8012:	
  6812                           ;homem.c: 61: lcd_cursor_ddram(c, 0);
  6813  09EF  1283               	bcf	status, 5	;RP0=0, select bank0
  6814  09F0  1303               	bcf	status, 6	;RP1=0, select bank0
  6815  09F1  01A3               	clrf	(?_lcd_cursor_ddram)
  6816  09F2  0836               	movf	(homem_corre_esquerda@c),w
  6817  09F3  160A  118A  20C8   	fcall	_lcd_cursor_ddram
              120A  158A         
  6818                           	line	62
  6819                           	
  6820  09F8                     l8014:	
  6821                           ;homem.c: 62: lcd_putch(3);
  6822  09F8  3003               	movlw	(03h)
  6823  09F9  160A  158A  256B   	fcall	_lcd_putch
              120A  158A         
  6824                           	line	63
  6825                           	
  6826  09FE                     l8016:	
  6827                           ;homem.c: 63: lcd_cursor_ddram(d, 1);
  6828  09FE  1283               	bcf	status, 5	;RP0=0, select bank0
  6829  09FF  1303               	bcf	status, 6	;RP1=0, select bank0
  6830  0A00  01A3               	clrf	(?_lcd_cursor_ddram)
  6831  0A01  1403               	bsf	status,0
  6832  0A02  0DA3               	rlf	(?_lcd_cursor_ddram),f
  6833  0A03  0838               	movf	(homem_corre_esquerda@d),w
  6834  0A04  160A  118A  20C8   	fcall	_lcd_cursor_ddram
              120A  158A         
  6835                           	line	64
  6836                           	
  6837  0A09                     l8018:	
  6838                           ;homem.c: 64: lcd_putch(4);
  6839  0A09  3004               	movlw	(04h)
  6840  0A0A  160A  158A  256B   	fcall	_lcd_putch
              120A  158A         
  6841                           	line	65
  6842                           	
  6843  0A0F                     l8020:	
  6844                           ;homem.c: 65: lcd_cursor_ddram(d, 0);
  6845  0A0F  1283               	bcf	status, 5	;RP0=0, select bank0
  6846  0A10  1303               	bcf	status, 6	;RP1=0, select bank0
  6847  0A11  01A3               	clrf	(?_lcd_cursor_ddram)
  6848  0A12  0838               	movf	(homem_corre_esquerda@d),w
  6849  0A13  160A  118A  20C8   	fcall	_lcd_cursor_ddram
              120A  158A         
  6850                           	line	66
  6851                           	
  6852  0A18                     l8022:	
  6853                           ;homem.c: 66: lcd_putch(5);
  6854  0A18  3005               	movlw	(05h)
  6855  0A19  160A  158A  256B   	fcall	_lcd_putch
              120A  158A         
  6856                           	line	67
  6857                           	
  6858  0A1E                     l8024:	
  6859                           ;homem.c: 67: _delay((unsigned long)((150)*(20000000/4000.0)));
  6860                           	opt asmopt_off
  6861  0A1E  3004               movlw  4
  6862  0A1F  1283               	bcf	status, 5	;RP0=0, select bank0
  6863  0A20  1303               	bcf	status, 6	;RP1=0, select bank0
  6864  0A21  00B3               movwf	((??_homem_corre_esquerda+0)+0+2),f
  6865  0A22  30CF               movlw	207
  6866  0A23  00B2               movwf	((??_homem_corre_esquerda+0)+0+1),f
  6867  0A24  3003               	movlw	3
  6868  0A25  00B1               movwf	((??_homem_corre_esquerda+0)+0),f
  6869  0A26                     u3737:
  6870  0A26  0BB1               	decfsz	((??_homem_corre_esquerda+0)+0),f
  6871  0A27  2A26               	goto	u3737
  6872  0A28  0BB2               	decfsz	((??_homem_corre_esquerda+0)+0+1),f
  6873  0A29  2A26               	goto	u3737
  6874  0A2A  0BB3               	decfsz	((??_homem_corre_esquerda+0)+0+2),f
  6875  0A2B  2A26               	goto	u3737
  6876  0A2C  2A2D               	nop2
  6877                           opt asmopt_on
  6878                           
  6879                           	line	68
  6880                           	
  6881  0A2D                     l8026:	
  6882                           ;homem.c: 68: lcd_clear();
  6883  0A2D  160A  158A  25D6   	fcall	_lcd_clear
              120A  158A         
  6884                           	line	69
  6885                           	
  6886  0A32                     l8028:	
  6887                           ;homem.c: 69: lcd_string((char *) "----------------", 0x10);
  6888  0A32  30DF               	movlw	low(STR_25|8000h)
  6889  0A33  1283               	bcf	status, 5	;RP0=0, select bank0
  6890  0A34  1303               	bcf	status, 6	;RP1=0, select bank0
  6891  0A35  00A4               	movwf	(?_lcd_string)
  6892  0A36  3083               	movlw	high(STR_25|8000h)
  6893  0A37  00A5               	movwf	((?_lcd_string))+1
  6894  0A38  3010               	movlw	(010h)
  6895  0A39  00B1               	movwf	(??_homem_corre_esquerda+0)+0
  6896  0A3A  0831               	movf	(??_homem_corre_esquerda+0)+0,w
  6897  0A3B  00A6               	movwf	0+(?_lcd_string)+02h
  6898  0A3C  160A  158A  2699   	fcall	_lcd_string
              120A  158A         
  6899                           	line	70
  6900                           	
  6901  0A41                     l8030:	
  6902                           ;homem.c: 70: lcd_novo_char(0, stepC1);
  6903  0A41  30A4               	movlw	low(_stepC1|8000h)
  6904  0A42  1283               	bcf	status, 5	;RP0=0, select bank0
  6905  0A43  1303               	bcf	status, 6	;RP1=0, select bank0
  6906  0A44  00A3               	movwf	(?_lcd_novo_char)
  6907  0A45  3082               	movlw	high(_stepC1|8000h)
  6908  0A46  00A4               	movwf	((?_lcd_novo_char))+1
  6909  0A47  3000               	movlw	(0)
  6910  0A48  160A  158A  2777   	fcall	_lcd_novo_char
              120A  158A         
  6911                           	line	71
  6912                           	
  6913  0A4D                     l8032:	
  6914                           ;homem.c: 71: lcd_novo_char(1, stepC2);
  6915  0A4D  30AC               	movlw	low(_stepC2|8000h)
  6916  0A4E  1283               	bcf	status, 5	;RP0=0, select bank0
  6917  0A4F  1303               	bcf	status, 6	;RP1=0, select bank0
  6918  0A50  00A3               	movwf	(?_lcd_novo_char)
  6919  0A51  3082               	movlw	high(_stepC2|8000h)
  6920  0A52  00A4               	movwf	((?_lcd_novo_char))+1
  6921  0A53  3001               	movlw	(01h)
  6922  0A54  160A  158A  2777   	fcall	_lcd_novo_char
              120A  158A         
  6923                           	line	72
  6924                           	
  6925  0A59                     l8034:	
  6926                           ;homem.c: 72: lcd_novo_char(2, stepC3);
  6927  0A59  30B4               	movlw	low(_stepC3|8000h)
  6928  0A5A  1283               	bcf	status, 5	;RP0=0, select bank0
  6929  0A5B  1303               	bcf	status, 6	;RP1=0, select bank0
  6930  0A5C  00A3               	movwf	(?_lcd_novo_char)
  6931  0A5D  3082               	movlw	high(_stepC3|8000h)
  6932  0A5E  00A4               	movwf	((?_lcd_novo_char))+1
  6933  0A5F  3002               	movlw	(02h)
  6934  0A60  160A  158A  2777   	fcall	_lcd_novo_char
              120A  158A         
  6935                           	line	73
  6936                           	
  6937  0A65                     l8036:	
  6938                           ;homem.c: 73: lcd_novo_char(3, stepC4);
  6939  0A65  30BC               	movlw	low(_stepC4|8000h)
  6940  0A66  1283               	bcf	status, 5	;RP0=0, select bank0
  6941  0A67  1303               	bcf	status, 6	;RP1=0, select bank0
  6942  0A68  00A3               	movwf	(?_lcd_novo_char)
  6943  0A69  3082               	movlw	high(_stepC4|8000h)
  6944  0A6A  00A4               	movwf	((?_lcd_novo_char))+1
  6945  0A6B  3003               	movlw	(03h)
  6946  0A6C  160A  158A  2777   	fcall	_lcd_novo_char
              120A  158A         
  6947                           	line	74
  6948                           	
  6949  0A71                     l8038:	
  6950                           ;homem.c: 74: lcd_novo_char(4, stepC5);
  6951  0A71  30C4               	movlw	low(_stepC5|8000h)
  6952  0A72  1283               	bcf	status, 5	;RP0=0, select bank0
  6953  0A73  1303               	bcf	status, 6	;RP1=0, select bank0
  6954  0A74  00A3               	movwf	(?_lcd_novo_char)
  6955  0A75  3082               	movlw	high(_stepC5|8000h)
  6956  0A76  00A4               	movwf	((?_lcd_novo_char))+1
  6957  0A77  3004               	movlw	(04h)
  6958  0A78  160A  158A  2777   	fcall	_lcd_novo_char
              120A  158A         
  6959                           	line	75
  6960                           	
  6961  0A7D                     l8040:	
  6962                           ;homem.c: 75: lcd_novo_char(5, stepC6);
  6963  0A7D  30CC               	movlw	low(_stepC6|8000h)
  6964  0A7E  1283               	bcf	status, 5	;RP0=0, select bank0
  6965  0A7F  1303               	bcf	status, 6	;RP1=0, select bank0
  6966  0A80  00A3               	movwf	(?_lcd_novo_char)
  6967  0A81  3082               	movlw	high(_stepC6|8000h)
  6968  0A82  00A4               	movwf	((?_lcd_novo_char))+1
  6969  0A83  3005               	movlw	(05h)
  6970  0A84  160A  158A  2777   	fcall	_lcd_novo_char
              120A  158A         
  6971                           	line	76
  6972                           	
  6973  0A89                     l8042:	
  6974                           ;homem.c: 76: lcd_cursor_ddram(c, 1);
  6975  0A89  1283               	bcf	status, 5	;RP0=0, select bank0
  6976  0A8A  1303               	bcf	status, 6	;RP1=0, select bank0
  6977  0A8B  01A3               	clrf	(?_lcd_cursor_ddram)
  6978  0A8C  1403               	bsf	status,0
  6979  0A8D  0DA3               	rlf	(?_lcd_cursor_ddram),f
  6980  0A8E  0836               	movf	(homem_corre_esquerda@c),w
  6981  0A8F  160A  118A  20C8   	fcall	_lcd_cursor_ddram
              120A  158A         
  6982                           	line	77
  6983                           	
  6984  0A94                     l8044:	
  6985                           ;homem.c: 77: lcd_putch(0);
  6986  0A94  3000               	movlw	(0)
  6987  0A95  160A  158A  256B   	fcall	_lcd_putch
              120A  158A         
  6988                           	line	78
  6989                           	
  6990  0A9A                     l8046:	
  6991                           ;homem.c: 78: lcd_cursor_ddram(c, 0);
  6992  0A9A  1283               	bcf	status, 5	;RP0=0, select bank0
  6993  0A9B  1303               	bcf	status, 6	;RP1=0, select bank0
  6994  0A9C  01A3               	clrf	(?_lcd_cursor_ddram)
  6995  0A9D  0836               	movf	(homem_corre_esquerda@c),w
  6996  0A9E  160A  118A  20C8   	fcall	_lcd_cursor_ddram
              120A  158A         
  6997                           	line	79
  6998                           	
  6999  0AA3                     l8048:	
  7000                           ;homem.c: 79: lcd_putch(1);
  7001  0AA3  3001               	movlw	(01h)
  7002  0AA4  160A  158A  256B   	fcall	_lcd_putch
              120A  158A         
  7003                           	line	80
  7004                           	
  7005  0AA9                     l8050:	
  7006                           ;homem.c: 80: lcd_cursor_ddram(d, 1);
  7007  0AA9  1283               	bcf	status, 5	;RP0=0, select bank0
  7008  0AAA  1303               	bcf	status, 6	;RP1=0, select bank0
  7009  0AAB  01A3               	clrf	(?_lcd_cursor_ddram)
  7010  0AAC  1403               	bsf	status,0
  7011  0AAD  0DA3               	rlf	(?_lcd_cursor_ddram),f
  7012  0AAE  0838               	movf	(homem_corre_esquerda@d),w
  7013  0AAF  160A  118A  20C8   	fcall	_lcd_cursor_ddram
              120A  158A         
  7014                           	line	81
  7015                           	
  7016  0AB4                     l8052:	
  7017                           ;homem.c: 81: lcd_putch(2);
  7018  0AB4  3002               	movlw	(02h)
  7019  0AB5  160A  158A  256B   	fcall	_lcd_putch
              120A  158A         
  7020                           	line	82
  7021                           	
  7022  0ABA                     l8054:	
  7023                           ;homem.c: 82: lcd_cursor_ddram(d, 0);
  7024  0ABA  1283               	bcf	status, 5	;RP0=0, select bank0
  7025  0ABB  1303               	bcf	status, 6	;RP1=0, select bank0
  7026  0ABC  01A3               	clrf	(?_lcd_cursor_ddram)
  7027  0ABD  0838               	movf	(homem_corre_esquerda@d),w
  7028  0ABE  160A  118A  20C8   	fcall	_lcd_cursor_ddram
              120A  158A         
  7029                           	line	83
  7030                           	
  7031  0AC3                     l8056:	
  7032                           ;homem.c: 83: lcd_putch(3);
  7033  0AC3  3003               	movlw	(03h)
  7034  0AC4  160A  158A  256B   	fcall	_lcd_putch
              120A  158A         
  7035                           	line	84
  7036                           	
  7037  0AC9                     l8058:	
  7038                           ;homem.c: 84: lcd_cursor_ddram(e, 1);
  7039  0AC9  1283               	bcf	status, 5	;RP0=0, select bank0
  7040  0ACA  1303               	bcf	status, 6	;RP1=0, select bank0
  7041  0ACB  01A3               	clrf	(?_lcd_cursor_ddram)
  7042  0ACC  1403               	bsf	status,0
  7043  0ACD  0DA3               	rlf	(?_lcd_cursor_ddram),f
  7044  0ACE  0839               	movf	(homem_corre_esquerda@e),w
  7045  0ACF  160A  118A  20C8   	fcall	_lcd_cursor_ddram
              120A  158A         
  7046                           	line	85
  7047                           	
  7048  0AD4                     l8060:	
  7049                           ;homem.c: 85: lcd_putch(4);
  7050  0AD4  3004               	movlw	(04h)
  7051  0AD5  160A  158A  256B   	fcall	_lcd_putch
              120A  158A         
  7052                           	line	86
  7053                           	
  7054  0ADA                     l8062:	
  7055                           ;homem.c: 86: lcd_cursor_ddram(e, 0);
  7056  0ADA  1283               	bcf	status, 5	;RP0=0, select bank0
  7057  0ADB  1303               	bcf	status, 6	;RP1=0, select bank0
  7058  0ADC  01A3               	clrf	(?_lcd_cursor_ddram)
  7059  0ADD  0839               	movf	(homem_corre_esquerda@e),w
  7060  0ADE  160A  118A  20C8   	fcall	_lcd_cursor_ddram
              120A  158A         
  7061                           	line	87
  7062                           	
  7063  0AE3                     l8064:	
  7064                           ;homem.c: 87: lcd_putch(5);
  7065  0AE3  3005               	movlw	(05h)
  7066  0AE4  160A  158A  256B   	fcall	_lcd_putch
              120A  158A         
  7067                           	line	88
  7068                           	
  7069  0AE9                     l8066:	
  7070                           ;homem.c: 88: _delay((unsigned long)((150)*(20000000/4000.0)));
  7071                           	opt asmopt_off
  7072  0AE9  3004               movlw  4
  7073  0AEA  1283               	bcf	status, 5	;RP0=0, select bank0
  7074  0AEB  1303               	bcf	status, 6	;RP1=0, select bank0
  7075  0AEC  00B3               movwf	((??_homem_corre_esquerda+0)+0+2),f
  7076  0AED  30CF               movlw	207
  7077  0AEE  00B2               movwf	((??_homem_corre_esquerda+0)+0+1),f
  7078  0AEF  3003               	movlw	3
  7079  0AF0  00B1               movwf	((??_homem_corre_esquerda+0)+0),f
  7080  0AF1                     u3747:
  7081  0AF1  0BB1               	decfsz	((??_homem_corre_esquerda+0)+0),f
  7082  0AF2  2AF1               	goto	u3747
  7083  0AF3  0BB2               	decfsz	((??_homem_corre_esquerda+0)+0+1),f
  7084  0AF4  2AF1               	goto	u3747
  7085  0AF5  0BB3               	decfsz	((??_homem_corre_esquerda+0)+0+2),f
  7086  0AF6  2AF1               	goto	u3747
  7087  0AF7  2AF8               	nop2
  7088                           opt asmopt_on
  7089                           
  7090                           	line	89
  7091                           	
  7092  0AF8                     l8068:	
  7093                           ;homem.c: 89: lcd_clear();
  7094  0AF8  160A  158A  25D6   	fcall	_lcd_clear
              120A  158A         
  7095                           	line	90
  7096                           	
  7097  0AFD                     l8070:	
  7098                           ;homem.c: 90: lcd_string((char *) "----------------", 0x10);
  7099  0AFD  30DF               	movlw	low(STR_26|8000h)
  7100  0AFE  1283               	bcf	status, 5	;RP0=0, select bank0
  7101  0AFF  1303               	bcf	status, 6	;RP1=0, select bank0
  7102  0B00  00A4               	movwf	(?_lcd_string)
  7103  0B01  3083               	movlw	high(STR_26|8000h)
  7104  0B02  00A5               	movwf	((?_lcd_string))+1
  7105  0B03  3010               	movlw	(010h)
  7106  0B04  00B1               	movwf	(??_homem_corre_esquerda+0)+0
  7107  0B05  0831               	movf	(??_homem_corre_esquerda+0)+0,w
  7108  0B06  00A6               	movwf	0+(?_lcd_string)+02h
  7109  0B07  160A  158A  2699   	fcall	_lcd_string
              120A  158A         
  7110                           	line	91
  7111                           	
  7112  0B0C                     l8072:	
  7113                           ;homem.c: 91: lcd_novo_char(0, stepB1);
  7114  0B0C  3074               	movlw	low(_stepB1|8000h)
  7115  0B0D  1283               	bcf	status, 5	;RP0=0, select bank0
  7116  0B0E  1303               	bcf	status, 6	;RP1=0, select bank0
  7117  0B0F  00A3               	movwf	(?_lcd_novo_char)
  7118  0B10  3082               	movlw	high(_stepB1|8000h)
  7119  0B11  00A4               	movwf	((?_lcd_novo_char))+1
  7120  0B12  3000               	movlw	(0)
  7121  0B13  160A  158A  2777   	fcall	_lcd_novo_char
              120A  158A         
  7122                           	line	92
  7123                           	
  7124  0B18                     l8074:	
  7125                           ;homem.c: 92: lcd_novo_char(1, stepB2);
  7126  0B18  307C               	movlw	low(_stepB2|8000h)
  7127  0B19  1283               	bcf	status, 5	;RP0=0, select bank0
  7128  0B1A  1303               	bcf	status, 6	;RP1=0, select bank0
  7129  0B1B  00A3               	movwf	(?_lcd_novo_char)
  7130  0B1C  3082               	movlw	high(_stepB2|8000h)
  7131  0B1D  00A4               	movwf	((?_lcd_novo_char))+1
  7132  0B1E  3001               	movlw	(01h)
  7133  0B1F  160A  158A  2777   	fcall	_lcd_novo_char
              120A  158A         
  7134                           	line	93
  7135                           	
  7136  0B24                     l8076:	
  7137                           ;homem.c: 93: lcd_novo_char(2, stepB3);
  7138  0B24  3084               	movlw	low(_stepB3|8000h)
  7139  0B25  1283               	bcf	status, 5	;RP0=0, select bank0
  7140  0B26  1303               	bcf	status, 6	;RP1=0, select bank0
  7141  0B27  00A3               	movwf	(?_lcd_novo_char)
  7142  0B28  3082               	movlw	high(_stepB3|8000h)
  7143  0B29  00A4               	movwf	((?_lcd_novo_char))+1
  7144  0B2A  3002               	movlw	(02h)
  7145  0B2B  160A  158A  2777   	fcall	_lcd_novo_char
              120A  158A         
  7146                           	line	94
  7147                           	
  7148  0B30                     l8078:	
  7149                           ;homem.c: 94: lcd_novo_char(3, stepB4);
  7150  0B30  308C               	movlw	low(_stepB4|8000h)
  7151  0B31  1283               	bcf	status, 5	;RP0=0, select bank0
  7152  0B32  1303               	bcf	status, 6	;RP1=0, select bank0
  7153  0B33  00A3               	movwf	(?_lcd_novo_char)
  7154  0B34  3082               	movlw	high(_stepB4|8000h)
  7155  0B35  00A4               	movwf	((?_lcd_novo_char))+1
  7156  0B36  3003               	movlw	(03h)
  7157  0B37  160A  158A  2777   	fcall	_lcd_novo_char
              120A  158A         
  7158                           	line	95
  7159                           	
  7160  0B3C                     l8080:	
  7161                           ;homem.c: 95: lcd_novo_char(4, stepB5);
  7162  0B3C  3094               	movlw	low(_stepB5|8000h)
  7163  0B3D  1283               	bcf	status, 5	;RP0=0, select bank0
  7164  0B3E  1303               	bcf	status, 6	;RP1=0, select bank0
  7165  0B3F  00A3               	movwf	(?_lcd_novo_char)
  7166  0B40  3082               	movlw	high(_stepB5|8000h)
  7167  0B41  00A4               	movwf	((?_lcd_novo_char))+1
  7168  0B42  3004               	movlw	(04h)
  7169  0B43  160A  158A  2777   	fcall	_lcd_novo_char
              120A  158A         
  7170                           	line	96
  7171                           	
  7172  0B48                     l8082:	
  7173                           ;homem.c: 96: lcd_novo_char(5, stepB6);
  7174  0B48  309C               	movlw	low(_stepB6|8000h)
  7175  0B49  1283               	bcf	status, 5	;RP0=0, select bank0
  7176  0B4A  1303               	bcf	status, 6	;RP1=0, select bank0
  7177  0B4B  00A3               	movwf	(?_lcd_novo_char)
  7178  0B4C  3082               	movlw	high(_stepB6|8000h)
  7179  0B4D  00A4               	movwf	((?_lcd_novo_char))+1
  7180  0B4E  3005               	movlw	(05h)
  7181  0B4F  160A  158A  2777   	fcall	_lcd_novo_char
              120A  158A         
  7182                           	line	97
  7183                           	
  7184  0B54                     l8084:	
  7185                           ;homem.c: 97: lcd_cursor_ddram(d, 1);
  7186  0B54  1283               	bcf	status, 5	;RP0=0, select bank0
  7187  0B55  1303               	bcf	status, 6	;RP1=0, select bank0
  7188  0B56  01A3               	clrf	(?_lcd_cursor_ddram)
  7189  0B57  1403               	bsf	status,0
  7190  0B58  0DA3               	rlf	(?_lcd_cursor_ddram),f
  7191  0B59  0838               	movf	(homem_corre_esquerda@d),w
  7192  0B5A  160A  118A  20C8   	fcall	_lcd_cursor_ddram
              120A  158A         
  7193                           	line	98
  7194                           	
  7195  0B5F                     l8086:	
  7196                           ;homem.c: 98: lcd_putch(0);
  7197  0B5F  3000               	movlw	(0)
  7198  0B60  160A  158A  256B   	fcall	_lcd_putch
              120A  158A         
  7199                           	line	99
  7200                           	
  7201  0B65                     l8088:	
  7202                           ;homem.c: 99: lcd_cursor_ddram(d, 0);
  7203  0B65  1283               	bcf	status, 5	;RP0=0, select bank0
  7204  0B66  1303               	bcf	status, 6	;RP1=0, select bank0
  7205  0B67  01A3               	clrf	(?_lcd_cursor_ddram)
  7206  0B68  0838               	movf	(homem_corre_esquerda@d),w
  7207  0B69  160A  118A  20C8   	fcall	_lcd_cursor_ddram
              120A  158A         
  7208                           	line	100
  7209                           	
  7210  0B6E                     l8090:	
  7211                           ;homem.c: 100: lcd_putch(1);
  7212  0B6E  3001               	movlw	(01h)
  7213  0B6F  160A  158A  256B   	fcall	_lcd_putch
              120A  158A         
  7214                           	line	101
  7215                           	
  7216  0B74                     l8092:	
  7217                           ;homem.c: 101: lcd_cursor_ddram(e, 1);
  7218  0B74  1283               	bcf	status, 5	;RP0=0, select bank0
  7219  0B75  1303               	bcf	status, 6	;RP1=0, select bank0
  7220  0B76  01A3               	clrf	(?_lcd_cursor_ddram)
  7221  0B77  1403               	bsf	status,0
  7222  0B78  0DA3               	rlf	(?_lcd_cursor_ddram),f
  7223  0B79  0839               	movf	(homem_corre_esquerda@e),w
  7224  0B7A  160A  118A  20C8   	fcall	_lcd_cursor_ddram
              120A  158A         
  7225                           	line	102
  7226                           	
  7227  0B7F                     l8094:	
  7228                           ;homem.c: 102: lcd_putch(2);
  7229  0B7F  3002               	movlw	(02h)
  7230  0B80  160A  158A  256B   	fcall	_lcd_putch
              120A  158A         
  7231                           	line	103
  7232                           	
  7233  0B85                     l8096:	
  7234                           ;homem.c: 103: lcd_cursor_ddram(e, 0);
  7235  0B85  1283               	bcf	status, 5	;RP0=0, select bank0
  7236  0B86  1303               	bcf	status, 6	;RP1=0, select bank0
  7237  0B87  01A3               	clrf	(?_lcd_cursor_ddram)
  7238  0B88  0839               	movf	(homem_corre_esquerda@e),w
  7239  0B89  160A  118A  20C8   	fcall	_lcd_cursor_ddram
              120A  158A         
  7240                           	line	104
  7241                           	
  7242  0B8E                     l8098:	
  7243                           ;homem.c: 104: lcd_putch(3);
  7244  0B8E  3003               	movlw	(03h)
  7245  0B8F  160A  158A  256B   	fcall	_lcd_putch
              120A  158A         
  7246                           	line	105
  7247                           	
  7248  0B94                     l8100:	
  7249                           ;homem.c: 105: lcd_cursor_ddram(f, 1);
  7250  0B94  1283               	bcf	status, 5	;RP0=0, select bank0
  7251  0B95  1303               	bcf	status, 6	;RP1=0, select bank0
  7252  0B96  01A3               	clrf	(?_lcd_cursor_ddram)
  7253  0B97  1403               	bsf	status,0
  7254  0B98  0DA3               	rlf	(?_lcd_cursor_ddram),f
  7255  0B99  0837               	movf	(homem_corre_esquerda@f),w
  7256  0B9A  160A  118A  20C8   	fcall	_lcd_cursor_ddram
              120A  158A         
  7257                           	line	106
  7258                           	
  7259  0B9F                     l8102:	
  7260                           ;homem.c: 106: lcd_putch(4);
  7261  0B9F  3004               	movlw	(04h)
  7262  0BA0  160A  158A  256B   	fcall	_lcd_putch
              120A  158A         
  7263                           	line	107
  7264                           	
  7265  0BA5                     l8104:	
  7266                           ;homem.c: 107: lcd_cursor_ddram(f, 0);
  7267  0BA5  1283               	bcf	status, 5	;RP0=0, select bank0
  7268  0BA6  1303               	bcf	status, 6	;RP1=0, select bank0
  7269  0BA7  01A3               	clrf	(?_lcd_cursor_ddram)
  7270  0BA8  0837               	movf	(homem_corre_esquerda@f),w
  7271  0BA9  160A  118A  20C8   	fcall	_lcd_cursor_ddram
              120A  158A         
  7272                           	line	108
  7273                           	
  7274  0BAE                     l8106:	
  7275                           ;homem.c: 108: lcd_putch(5);
  7276  0BAE  3005               	movlw	(05h)
  7277  0BAF  160A  158A  256B   	fcall	_lcd_putch
              120A  158A         
  7278                           	line	109
  7279                           	
  7280  0BB4                     l8108:	
  7281                           ;homem.c: 109: _delay((unsigned long)((150)*(20000000/4000.0)));
  7282                           	opt asmopt_off
  7283  0BB4  3004               movlw  4
  7284  0BB5  1283               	bcf	status, 5	;RP0=0, select bank0
  7285  0BB6  1303               	bcf	status, 6	;RP1=0, select bank0
  7286  0BB7  00B3               movwf	((??_homem_corre_esquerda+0)+0+2),f
  7287  0BB8  30CF               movlw	207
  7288  0BB9  00B2               movwf	((??_homem_corre_esquerda+0)+0+1),f
  7289  0BBA  3003               	movlw	3
  7290  0BBB  00B1               movwf	((??_homem_corre_esquerda+0)+0),f
  7291  0BBC                     u3757:
  7292  0BBC  0BB1               	decfsz	((??_homem_corre_esquerda+0)+0),f
  7293  0BBD  2BBC               	goto	u3757
  7294  0BBE  0BB2               	decfsz	((??_homem_corre_esquerda+0)+0+1),f
  7295  0BBF  2BBC               	goto	u3757
  7296  0BC0  0BB3               	decfsz	((??_homem_corre_esquerda+0)+0+2),f
  7297  0BC1  2BBC               	goto	u3757
  7298  0BC2  2BC3               	nop2
  7299                           opt asmopt_on
  7300                           
  7301                           	line	110
  7302                           	
  7303  0BC3                     l8110:	
  7304                           ;homem.c: 110: lcd_clear();
  7305  0BC3  160A  158A  25D6   	fcall	_lcd_clear
              120A  158A         
  7306                           	line	111
  7307                           	
  7308  0BC8                     l8112:	
  7309                           ;homem.c: 111: lcd_string((char *) "----------------", 0x10);
  7310  0BC8  30DF               	movlw	low(STR_27|8000h)
  7311  0BC9  1283               	bcf	status, 5	;RP0=0, select bank0
  7312  0BCA  1303               	bcf	status, 6	;RP1=0, select bank0
  7313  0BCB  00A4               	movwf	(?_lcd_string)
  7314  0BCC  3083               	movlw	high(STR_27|8000h)
  7315  0BCD  00A5               	movwf	((?_lcd_string))+1
  7316  0BCE  3010               	movlw	(010h)
  7317  0BCF  00B1               	movwf	(??_homem_corre_esquerda+0)+0
  7318  0BD0  0831               	movf	(??_homem_corre_esquerda+0)+0,w
  7319  0BD1  00A6               	movwf	0+(?_lcd_string)+02h
  7320  0BD2  160A  158A  2699   	fcall	_lcd_string
              120A  158A         
  7321                           	line	112
  7322                           	
  7323  0BD7                     l8114:	
  7324                           ;homem.c: 112: lcd_novo_char(0, stepD1);
  7325  0BD7  30D4               	movlw	low(_stepD1|8000h)
  7326  0BD8  1283               	bcf	status, 5	;RP0=0, select bank0
  7327  0BD9  1303               	bcf	status, 6	;RP1=0, select bank0
  7328  0BDA  00A3               	movwf	(?_lcd_novo_char)
  7329  0BDB  3082               	movlw	high(_stepD1|8000h)
  7330  0BDC  00A4               	movwf	((?_lcd_novo_char))+1
  7331  0BDD  3000               	movlw	(0)
  7332  0BDE  160A  158A  2777   	fcall	_lcd_novo_char
              120A  158A         
  7333                           	line	113
  7334                           	
  7335  0BE3                     l8116:	
  7336                           ;homem.c: 113: lcd_novo_char(1, stepD2);
  7337  0BE3  30DC               	movlw	low(_stepD2|8000h)
  7338  0BE4  1283               	bcf	status, 5	;RP0=0, select bank0
  7339  0BE5  1303               	bcf	status, 6	;RP1=0, select bank0
  7340  0BE6  00A3               	movwf	(?_lcd_novo_char)
  7341  0BE7  3082               	movlw	high(_stepD2|8000h)
  7342  0BE8  00A4               	movwf	((?_lcd_novo_char))+1
  7343  0BE9  3001               	movlw	(01h)
  7344  0BEA  160A  158A  2777   	fcall	_lcd_novo_char
              120A  158A         
  7345                           	line	114
  7346                           	
  7347  0BEF                     l8118:	
  7348                           ;homem.c: 114: lcd_novo_char(2, stepD3);
  7349  0BEF  30E4               	movlw	low(_stepD3|8000h)
  7350  0BF0  1283               	bcf	status, 5	;RP0=0, select bank0
  7351  0BF1  1303               	bcf	status, 6	;RP1=0, select bank0
  7352  0BF2  00A3               	movwf	(?_lcd_novo_char)
  7353  0BF3  3082               	movlw	high(_stepD3|8000h)
  7354  0BF4  00A4               	movwf	((?_lcd_novo_char))+1
  7355  0BF5  3002               	movlw	(02h)
  7356  0BF6  160A  158A  2777   	fcall	_lcd_novo_char
              120A  158A         
  7357                           	line	115
  7358                           	
  7359  0BFB                     l8120:	
  7360                           ;homem.c: 115: lcd_novo_char(3, stepD4);
  7361  0BFB  30EC               	movlw	low(_stepD4|8000h)
  7362  0BFC  1283               	bcf	status, 5	;RP0=0, select bank0
  7363  0BFD  1303               	bcf	status, 6	;RP1=0, select bank0
  7364  0BFE  00A3               	movwf	(?_lcd_novo_char)
  7365  0BFF  3082               	movlw	high(_stepD4|8000h)
  7366  0C00  00A4               	movwf	((?_lcd_novo_char))+1
  7367  0C01  3003               	movlw	(03h)
  7368  0C02  160A  158A  2777   	fcall	_lcd_novo_char
              120A  158A         
  7369                           	line	116
  7370                           	
  7371  0C07                     l8122:	
  7372                           ;homem.c: 116: lcd_novo_char(4, stepD5);
  7373  0C07  30F4               	movlw	low(_stepD5|8000h)
  7374  0C08  1283               	bcf	status, 5	;RP0=0, select bank0
  7375  0C09  1303               	bcf	status, 6	;RP1=0, select bank0
  7376  0C0A  00A3               	movwf	(?_lcd_novo_char)
  7377  0C0B  3082               	movlw	high(_stepD5|8000h)
  7378  0C0C  00A4               	movwf	((?_lcd_novo_char))+1
  7379  0C0D  3004               	movlw	(04h)
  7380  0C0E  160A  158A  2777   	fcall	_lcd_novo_char
              120A  158A         
  7381                           	line	117
  7382                           	
  7383  0C13                     l8124:	
  7384                           ;homem.c: 117: lcd_novo_char(5, stepD6);
  7385  0C13  30FC               	movlw	low(_stepD6|8000h)
  7386  0C14  1283               	bcf	status, 5	;RP0=0, select bank0
  7387  0C15  1303               	bcf	status, 6	;RP1=0, select bank0
  7388  0C16  00A3               	movwf	(?_lcd_novo_char)
  7389  0C17  3082               	movlw	high(_stepD6|8000h)
  7390  0C18  00A4               	movwf	((?_lcd_novo_char))+1
  7391  0C19  3005               	movlw	(05h)
  7392  0C1A  160A  158A  2777   	fcall	_lcd_novo_char
              120A  158A         
  7393                           	line	118
  7394                           	
  7395  0C1F                     l8126:	
  7396                           ;homem.c: 118: lcd_cursor_ddram(e, 1);
  7397  0C1F  1283               	bcf	status, 5	;RP0=0, select bank0
  7398  0C20  1303               	bcf	status, 6	;RP1=0, select bank0
  7399  0C21  01A3               	clrf	(?_lcd_cursor_ddram)
  7400  0C22  1403               	bsf	status,0
  7401  0C23  0DA3               	rlf	(?_lcd_cursor_ddram),f
  7402  0C24  0839               	movf	(homem_corre_esquerda@e),w
  7403  0C25  160A  118A  20C8   	fcall	_lcd_cursor_ddram
              120A  158A         
  7404                           	line	119
  7405                           	
  7406  0C2A                     l8128:	
  7407                           ;homem.c: 119: lcd_putch(0);
  7408  0C2A  3000               	movlw	(0)
  7409  0C2B  160A  158A  256B   	fcall	_lcd_putch
              120A  158A         
  7410                           	line	120
  7411                           	
  7412  0C30                     l8130:	
  7413                           ;homem.c: 120: lcd_cursor_ddram(e, 0);
  7414  0C30  1283               	bcf	status, 5	;RP0=0, select bank0
  7415  0C31  1303               	bcf	status, 6	;RP1=0, select bank0
  7416  0C32  01A3               	clrf	(?_lcd_cursor_ddram)
  7417  0C33  0839               	movf	(homem_corre_esquerda@e),w
  7418  0C34  160A  118A  20C8   	fcall	_lcd_cursor_ddram
              120A  158A         
  7419                           	line	121
  7420                           	
  7421  0C39                     l8132:	
  7422                           ;homem.c: 121: lcd_putch(1);
  7423  0C39  3001               	movlw	(01h)
  7424  0C3A  160A  158A  256B   	fcall	_lcd_putch
              120A  158A         
  7425                           	line	122
  7426                           	
  7427  0C3F                     l8134:	
  7428                           ;homem.c: 122: lcd_cursor_ddram(f, 1);
  7429  0C3F  1283               	bcf	status, 5	;RP0=0, select bank0
  7430  0C40  1303               	bcf	status, 6	;RP1=0, select bank0
  7431  0C41  01A3               	clrf	(?_lcd_cursor_ddram)
  7432  0C42  1403               	bsf	status,0
  7433  0C43  0DA3               	rlf	(?_lcd_cursor_ddram),f
  7434  0C44  0837               	movf	(homem_corre_esquerda@f),w
  7435  0C45  160A  118A  20C8   	fcall	_lcd_cursor_ddram
              120A  158A         
  7436                           	line	123
  7437                           	
  7438  0C4A                     l8136:	
  7439                           ;homem.c: 123: lcd_putch(2);
  7440  0C4A  3002               	movlw	(02h)
  7441  0C4B  160A  158A  256B   	fcall	_lcd_putch
              120A  158A         
  7442                           	line	124
  7443                           	
  7444  0C50                     l8138:	
  7445                           ;homem.c: 124: lcd_cursor_ddram(f, 0);
  7446  0C50  1283               	bcf	status, 5	;RP0=0, select bank0
  7447  0C51  1303               	bcf	status, 6	;RP1=0, select bank0
  7448  0C52  01A3               	clrf	(?_lcd_cursor_ddram)
  7449  0C53  0837               	movf	(homem_corre_esquerda@f),w
  7450  0C54  160A  118A  20C8   	fcall	_lcd_cursor_ddram
              120A  158A         
  7451                           	line	125
  7452                           	
  7453  0C59                     l8140:	
  7454                           ;homem.c: 125: lcd_putch(3);
  7455  0C59  3003               	movlw	(03h)
  7456  0C5A  160A  158A  256B   	fcall	_lcd_putch
              120A  158A         
  7457                           	line	126
  7458                           	
  7459  0C5F                     l8142:	
  7460                           ;homem.c: 126: lcd_cursor_ddram(g, 1);
  7461  0C5F  1283               	bcf	status, 5	;RP0=0, select bank0
  7462  0C60  1303               	bcf	status, 6	;RP1=0, select bank0
  7463  0C61  01A3               	clrf	(?_lcd_cursor_ddram)
  7464  0C62  1403               	bsf	status,0
  7465  0C63  0DA3               	rlf	(?_lcd_cursor_ddram),f
  7466  0C64  0835               	movf	(homem_corre_esquerda@g),w
  7467  0C65  160A  118A  20C8   	fcall	_lcd_cursor_ddram
              120A  158A         
  7468                           	line	127
  7469                           	
  7470  0C6A                     l8144:	
  7471                           ;homem.c: 127: lcd_putch(4);
  7472  0C6A  3004               	movlw	(04h)
  7473  0C6B  160A  158A  256B   	fcall	_lcd_putch
              120A  158A         
  7474                           	line	128
  7475                           	
  7476  0C70                     l8146:	
  7477                           ;homem.c: 128: lcd_cursor_ddram(g, 0);
  7478  0C70  1283               	bcf	status, 5	;RP0=0, select bank0
  7479  0C71  1303               	bcf	status, 6	;RP1=0, select bank0
  7480  0C72  01A3               	clrf	(?_lcd_cursor_ddram)
  7481  0C73  0835               	movf	(homem_corre_esquerda@g),w
  7482  0C74  160A  118A  20C8   	fcall	_lcd_cursor_ddram
              120A  158A         
  7483                           	line	129
  7484                           	
  7485  0C79                     l8148:	
  7486                           ;homem.c: 129: lcd_putch(5);
  7487  0C79  3005               	movlw	(05h)
  7488  0C7A  160A  158A  256B   	fcall	_lcd_putch
              120A  158A         
  7489                           	line	130
  7490                           	
  7491  0C7F                     l8150:	
  7492                           ;homem.c: 130: _delay((unsigned long)((150)*(20000000/4000.0)));
  7493                           	opt asmopt_off
  7494  0C7F  3004               movlw  4
  7495  0C80  1283               	bcf	status, 5	;RP0=0, select bank0
  7496  0C81  1303               	bcf	status, 6	;RP1=0, select bank0
  7497  0C82  00B3               movwf	((??_homem_corre_esquerda+0)+0+2),f
  7498  0C83  30CF               movlw	207
  7499  0C84  00B2               movwf	((??_homem_corre_esquerda+0)+0+1),f
  7500  0C85  3003               	movlw	3
  7501  0C86  00B1               movwf	((??_homem_corre_esquerda+0)+0),f
  7502  0C87                     u3767:
  7503  0C87  0BB1               	decfsz	((??_homem_corre_esquerda+0)+0),f
  7504  0C88  2C87               	goto	u3767
  7505  0C89  0BB2               	decfsz	((??_homem_corre_esquerda+0)+0+1),f
  7506  0C8A  2C87               	goto	u3767
  7507  0C8B  0BB3               	decfsz	((??_homem_corre_esquerda+0)+0+2),f
  7508  0C8C  2C87               	goto	u3767
  7509  0C8D  2C8E               	nop2
  7510                           opt asmopt_on
  7511                           
  7512                           	line	39
  7513  0C8E  3004               	movlw	(04h)
  7514  0C8F  1283               	bcf	status, 5	;RP0=0, select bank0
  7515  0C90  1303               	bcf	status, 6	;RP1=0, select bank0
  7516  0C91  00B1               	movwf	(??_homem_corre_esquerda+0)+0
  7517  0C92  0831               	movf	(??_homem_corre_esquerda+0)+0,w
  7518  0C93  07BA               	addwf	(homem_corre_esquerda@a),f
  7519                           	
  7520  0C94                     l8152:	
  7521  0C94  300B               	movlw	(0Bh)
  7522  0C95  023A               	subwf	(homem_corre_esquerda@a),w
  7523  0C96  1C03               	skipc
  7524  0C97  2C99               	goto	u3441
  7525  0C98  2C9A               	goto	u3440
  7526  0C99                     u3441:
  7527  0C99  2944               	goto	l7982
  7528  0C9A                     u3440:
  7529  0C9A  2C9B               	goto	l4950
  7530                           	
  7531  0C9B                     l4949:	
  7532                           	line	132
  7533                           	
  7534  0C9B                     l4950:	
  7535  0C9B  0008               	return
  7536                           	opt stack 0
  7537                           GLOBAL	__end_of_homem_corre_esquerda
  7538  0C9C                     	__end_of_homem_corre_esquerda:
  7539 ;; =============== function _homem_corre_esquerda ends ============
  7540                           
  7541                           	signat	_homem_corre_esquerda,88
  7542                           	global	_homem_inicio
  7543                           psect	text955,local,class=CODE,delta=2
  7544                           global __ptext955
  7545  070C                     __ptext955:
  7546                           
  7547 ;; *************** function _homem_inicio *****************
  7548 ;; Defined at:
  7549 ;;		line 6 in file "homem.c"
  7550 ;; Parameters:    Size  Location     Type
  7551 ;;		None
  7552 ;; Auto vars:     Size  Location     Type
  7553 ;;  a               2   22[BANK0 ] int 
  7554 ;;  c               2   20[BANK0 ] int 
  7555 ;;  b               2   18[BANK0 ] int 
  7556 ;; Return value:  Size  Location     Type
  7557 ;;		None               void
  7558 ;; Registers used:
  7559 ;;		wreg, fsr0l, fsr0h, status,2, status,0, btemp+1, pclath, cstack
  7560 ;; Tracked objects:
  7561 ;;		On entry : 0/0
  7562 ;;		On exit  : 0/0
  7563 ;;		Unchanged: 0/0
  7564 ;; Data sizes:     COMMON   BANK0   BANK1   BANK3   BANK2
  7565 ;;      Params:         0       0       0       0       0
  7566 ;;      Locals:         0       6       0       0       0
  7567 ;;      Temps:          0       1       0       0       0
  7568 ;;      Totals:         0       7       0       0       0
  7569 ;;Total ram usage:        7 bytes
  7570 ;; Hardware stack levels used:    1
  7571 ;; Hardware stack levels required when called:    5
  7572 ;; This function calls:
  7573 ;;		_lcd_string
  7574 ;;		_lcd_novo_char
  7575 ;;		_lcd_cursor_ddram
  7576 ;;		_lcd_putch
  7577 ;; This function is called by:
  7578 ;;		_homem_animacao
  7579 ;; This function uses a non-reentrant model
  7580 ;;
  7581                           psect	text955
  7582                           	file	"homem.c"
  7583                           	line	6
  7584                           	global	__size_of_homem_inicio
  7585  00CA                     	__size_of_homem_inicio	equ	__end_of_homem_inicio-_homem_inicio
  7586                           	
  7587  070C                     _homem_inicio:	
  7588                           	opt	stack 1
  7589                           ; Regs used in _homem_inicio: [wreg-fsr0h+status,2+status,0+btemp+1+pclath+cstack]
  7590                           	line	9
  7591                           	
  7592  070C                     l7932:	
  7593                           ;homem.c: 7: int a, b, c;
  7594                           ;homem.c: 9: a = 0;
  7595  070C  1283               	bcf	status, 5	;RP0=0, select bank0
  7596  070D  1303               	bcf	status, 6	;RP1=0, select bank0
  7597  070E  01B6               	clrf	(homem_inicio@a)
  7598  070F  01B7               	clrf	(homem_inicio@a+1)
  7599                           	line	10
  7600                           	
  7601  0710                     l7934:	
  7602                           ;homem.c: 10: b = a + 1;
  7603  0710  0836               	movf	(homem_inicio@a),w
  7604  0711  3E01               	addlw	low(01h)
  7605  0712  00B2               	movwf	(homem_inicio@b)
  7606  0713  0837               	movf	(homem_inicio@a+1),w
  7607  0714  1803               	skipnc
  7608  0715  3E01               	addlw	1
  7609  0716  3E00               	addlw	high(01h)
  7610  0717  00B3               	movwf	1+(homem_inicio@b)
  7611                           	line	11
  7612                           	
  7613  0718                     l7936:	
  7614                           ;homem.c: 11: c = a + 2;
  7615  0718  0836               	movf	(homem_inicio@a),w
  7616  0719  3E02               	addlw	low(02h)
  7617  071A  00B4               	movwf	(homem_inicio@c)
  7618  071B  0837               	movf	(homem_inicio@a+1),w
  7619  071C  1803               	skipnc
  7620  071D  3E01               	addlw	1
  7621  071E  3E00               	addlw	high(02h)
  7622  071F  00B5               	movwf	1+(homem_inicio@c)
  7623                           	line	13
  7624                           	
  7625  0720                     l7938:	
  7626                           ;homem.c: 13: lcd_string((char *) "----------------", 0x10);
  7627  0720  30DF               	movlw	low(STR_23|8000h)
  7628  0721  00A4               	movwf	(?_lcd_string)
  7629  0722  3083               	movlw	high(STR_23|8000h)
  7630  0723  00A5               	movwf	((?_lcd_string))+1
  7631  0724  3010               	movlw	(010h)
  7632  0725  00B1               	movwf	(??_homem_inicio+0)+0
  7633  0726  0831               	movf	(??_homem_inicio+0)+0,w
  7634  0727  00A6               	movwf	0+(?_lcd_string)+02h
  7635  0728  160A  158A  2699   	fcall	_lcd_string
              120A  118A         
  7636                           	line	15
  7637                           	
  7638  072D                     l7940:	
  7639                           ;homem.c: 15: lcd_novo_char(0, stepA1);
  7640  072D  3044               	movlw	low(_stepA1|8000h)
  7641  072E  1283               	bcf	status, 5	;RP0=0, select bank0
  7642  072F  1303               	bcf	status, 6	;RP1=0, select bank0
  7643  0730  00A3               	movwf	(?_lcd_novo_char)
  7644  0731  3082               	movlw	high(_stepA1|8000h)
  7645  0732  00A4               	movwf	((?_lcd_novo_char))+1
  7646  0733  3000               	movlw	(0)
  7647  0734  160A  158A  2777   	fcall	_lcd_novo_char
              120A  118A         
  7648                           	line	16
  7649                           	
  7650  0739                     l7942:	
  7651                           ;homem.c: 16: lcd_novo_char(1, stepA2);
  7652  0739  304C               	movlw	low(_stepA2|8000h)
  7653  073A  1283               	bcf	status, 5	;RP0=0, select bank0
  7654  073B  1303               	bcf	status, 6	;RP1=0, select bank0
  7655  073C  00A3               	movwf	(?_lcd_novo_char)
  7656  073D  3082               	movlw	high(_stepA2|8000h)
  7657  073E  00A4               	movwf	((?_lcd_novo_char))+1
  7658  073F  3001               	movlw	(01h)
  7659  0740  160A  158A  2777   	fcall	_lcd_novo_char
              120A  118A         
  7660                           	line	17
  7661                           	
  7662  0745                     l7944:	
  7663                           ;homem.c: 17: lcd_novo_char(2, stepA3);
  7664  0745  3054               	movlw	low(_stepA3|8000h)
  7665  0746  1283               	bcf	status, 5	;RP0=0, select bank0
  7666  0747  1303               	bcf	status, 6	;RP1=0, select bank0
  7667  0748  00A3               	movwf	(?_lcd_novo_char)
  7668  0749  3082               	movlw	high(_stepA3|8000h)
  7669  074A  00A4               	movwf	((?_lcd_novo_char))+1
  7670  074B  3002               	movlw	(02h)
  7671  074C  160A  158A  2777   	fcall	_lcd_novo_char
              120A  118A         
  7672                           	line	18
  7673                           	
  7674  0751                     l7946:	
  7675                           ;homem.c: 18: lcd_novo_char(3, stepA4);
  7676  0751  305C               	movlw	low(_stepA4|8000h)
  7677  0752  1283               	bcf	status, 5	;RP0=0, select bank0
  7678  0753  1303               	bcf	status, 6	;RP1=0, select bank0
  7679  0754  00A3               	movwf	(?_lcd_novo_char)
  7680  0755  3082               	movlw	high(_stepA4|8000h)
  7681  0756  00A4               	movwf	((?_lcd_novo_char))+1
  7682  0757  3003               	movlw	(03h)
  7683  0758  160A  158A  2777   	fcall	_lcd_novo_char
              120A  118A         
  7684                           	line	19
  7685                           	
  7686  075D                     l7948:	
  7687                           ;homem.c: 19: lcd_novo_char(4, stepA5);
  7688  075D  3064               	movlw	low(_stepA5|8000h)
  7689  075E  1283               	bcf	status, 5	;RP0=0, select bank0
  7690  075F  1303               	bcf	status, 6	;RP1=0, select bank0
  7691  0760  00A3               	movwf	(?_lcd_novo_char)
  7692  0761  3082               	movlw	high(_stepA5|8000h)
  7693  0762  00A4               	movwf	((?_lcd_novo_char))+1
  7694  0763  3004               	movlw	(04h)
  7695  0764  160A  158A  2777   	fcall	_lcd_novo_char
              120A  118A         
  7696                           	line	20
  7697                           	
  7698  0769                     l7950:	
  7699                           ;homem.c: 20: lcd_novo_char(5, stepA6);
  7700  0769  306C               	movlw	low(_stepA6|8000h)
  7701  076A  1283               	bcf	status, 5	;RP0=0, select bank0
  7702  076B  1303               	bcf	status, 6	;RP1=0, select bank0
  7703  076C  00A3               	movwf	(?_lcd_novo_char)
  7704  076D  3082               	movlw	high(_stepA6|8000h)
  7705  076E  00A4               	movwf	((?_lcd_novo_char))+1
  7706  076F  3005               	movlw	(05h)
  7707  0770  160A  158A  2777   	fcall	_lcd_novo_char
              120A  118A         
  7708                           	line	22
  7709                           	
  7710  0775                     l7952:	
  7711                           ;homem.c: 22: lcd_cursor_ddram(a, 1);
  7712  0775  1283               	bcf	status, 5	;RP0=0, select bank0
  7713  0776  1303               	bcf	status, 6	;RP1=0, select bank0
  7714  0777  01A3               	clrf	(?_lcd_cursor_ddram)
  7715  0778  1403               	bsf	status,0
  7716  0779  0DA3               	rlf	(?_lcd_cursor_ddram),f
  7717  077A  0836               	movf	(homem_inicio@a),w
  7718  077B  160A  118A  20C8   	fcall	_lcd_cursor_ddram
              120A  118A         
  7719                           	line	23
  7720                           	
  7721  0780                     l7954:	
  7722                           ;homem.c: 23: lcd_putch(0);
  7723  0780  3000               	movlw	(0)
  7724  0781  160A  158A  256B   	fcall	_lcd_putch
              120A  118A         
  7725                           	line	24
  7726                           	
  7727  0786                     l7956:	
  7728                           ;homem.c: 24: lcd_cursor_ddram(a, 0);
  7729  0786  1283               	bcf	status, 5	;RP0=0, select bank0
  7730  0787  1303               	bcf	status, 6	;RP1=0, select bank0
  7731  0788  01A3               	clrf	(?_lcd_cursor_ddram)
  7732  0789  0836               	movf	(homem_inicio@a),w
  7733  078A  160A  118A  20C8   	fcall	_lcd_cursor_ddram
              120A  118A         
  7734                           	line	25
  7735                           	
  7736  078F                     l7958:	
  7737                           ;homem.c: 25: lcd_putch(1);
  7738  078F  3001               	movlw	(01h)
  7739  0790  160A  158A  256B   	fcall	_lcd_putch
              120A  118A         
  7740                           	line	26
  7741                           	
  7742  0795                     l7960:	
  7743                           ;homem.c: 26: lcd_cursor_ddram(b, 1);
  7744  0795  1283               	bcf	status, 5	;RP0=0, select bank0
  7745  0796  1303               	bcf	status, 6	;RP1=0, select bank0
  7746  0797  01A3               	clrf	(?_lcd_cursor_ddram)
  7747  0798  1403               	bsf	status,0
  7748  0799  0DA3               	rlf	(?_lcd_cursor_ddram),f
  7749  079A  0832               	movf	(homem_inicio@b),w
  7750  079B  160A  118A  20C8   	fcall	_lcd_cursor_ddram
              120A  118A         
  7751                           	line	27
  7752                           	
  7753  07A0                     l7962:	
  7754                           ;homem.c: 27: lcd_putch(2);
  7755  07A0  3002               	movlw	(02h)
  7756  07A1  160A  158A  256B   	fcall	_lcd_putch
              120A  118A         
  7757                           	line	28
  7758                           	
  7759  07A6                     l7964:	
  7760                           ;homem.c: 28: lcd_cursor_ddram(b, 0);
  7761  07A6  1283               	bcf	status, 5	;RP0=0, select bank0
  7762  07A7  1303               	bcf	status, 6	;RP1=0, select bank0
  7763  07A8  01A3               	clrf	(?_lcd_cursor_ddram)
  7764  07A9  0832               	movf	(homem_inicio@b),w
  7765  07AA  160A  118A  20C8   	fcall	_lcd_cursor_ddram
              120A  118A         
  7766                           	line	29
  7767                           	
  7768  07AF                     l7966:	
  7769                           ;homem.c: 29: lcd_putch(3);
  7770  07AF  3003               	movlw	(03h)
  7771  07B0  160A  158A  256B   	fcall	_lcd_putch
              120A  118A         
  7772                           	line	30
  7773                           	
  7774  07B5                     l7968:	
  7775                           ;homem.c: 30: lcd_cursor_ddram(c, 1);
  7776  07B5  1283               	bcf	status, 5	;RP0=0, select bank0
  7777  07B6  1303               	bcf	status, 6	;RP1=0, select bank0
  7778  07B7  01A3               	clrf	(?_lcd_cursor_ddram)
  7779  07B8  1403               	bsf	status,0
  7780  07B9  0DA3               	rlf	(?_lcd_cursor_ddram),f
  7781  07BA  0834               	movf	(homem_inicio@c),w
  7782  07BB  160A  118A  20C8   	fcall	_lcd_cursor_ddram
              120A  118A         
  7783                           	line	31
  7784                           	
  7785  07C0                     l7970:	
  7786                           ;homem.c: 31: lcd_putch(4);
  7787  07C0  3004               	movlw	(04h)
  7788  07C1  160A  158A  256B   	fcall	_lcd_putch
              120A  118A         
  7789                           	line	32
  7790                           	
  7791  07C6                     l7972:	
  7792                           ;homem.c: 32: lcd_cursor_ddram(c, 0);
  7793  07C6  1283               	bcf	status, 5	;RP0=0, select bank0
  7794  07C7  1303               	bcf	status, 6	;RP1=0, select bank0
  7795  07C8  01A3               	clrf	(?_lcd_cursor_ddram)
  7796  07C9  0834               	movf	(homem_inicio@c),w
  7797  07CA  160A  118A  20C8   	fcall	_lcd_cursor_ddram
              120A  118A         
  7798                           	line	33
  7799                           	
  7800  07CF                     l7974:	
  7801                           ;homem.c: 33: lcd_putch(5);
  7802  07CF  3005               	movlw	(05h)
  7803  07D0  160A  158A  256B   	fcall	_lcd_putch
              120A  118A         
  7804                           	line	34
  7805                           	
  7806  07D5                     l4945:	
  7807  07D5  0008               	return
  7808                           	opt stack 0
  7809                           GLOBAL	__end_of_homem_inicio
  7810  07D6                     	__end_of_homem_inicio:
  7811 ;; =============== function _homem_inicio ends ============
  7812                           
  7813                           	signat	_homem_inicio,88
  7814                           	global	_protocolo_lcd
  7815                           psect	text956,local,class=CODE,delta=2
  7816                           global __ptext956
  7817  1255                     __ptext956:
  7818                           
  7819 ;; *************** function _protocolo_lcd *****************
  7820 ;; Defined at:
  7821 ;;		line 229 in file "protocolo.c"
  7822 ;; Parameters:    Size  Location     Type
  7823 ;;  linha           1    wreg     unsigned char 
  7824 ;; Auto vars:     Size  Location     Type
  7825 ;;  linha           1   28[BANK0 ] unsigned char 
  7826 ;; Return value:  Size  Location     Type
  7827 ;;		None               void
  7828 ;; Registers used:
  7829 ;;		wreg, fsr0l, fsr0h, status,2, status,0, btemp+1, pclath, cstack
  7830 ;; Tracked objects:
  7831 ;;		On entry : 0/0
  7832 ;;		On exit  : 0/0
  7833 ;;		Unchanged: 0/0
  7834 ;; Data sizes:     COMMON   BANK0   BANK1   BANK3   BANK2
  7835 ;;      Params:         0       0       0       0       0
  7836 ;;      Locals:         0       1       0       0       0
  7837 ;;      Temps:          0       2       0       0       0
  7838 ;;      Totals:         0       3       0       0       0
  7839 ;;Total ram usage:        3 bytes
  7840 ;; Hardware stack levels used:    1
  7841 ;; Hardware stack levels required when called:    5
  7842 ;; This function calls:
  7843 ;;		_printf
  7844 ;;		_lcd_string
  7845 ;; This function is called by:
  7846 ;;		_protocolo_ver_cmd
  7847 ;; This function uses a non-reentrant model
  7848 ;;
  7849                           psect	text956
  7850                           	file	"protocolo.c"
  7851                           	line	229
  7852                           	global	__size_of_protocolo_lcd
  7853  0078                     	__size_of_protocolo_lcd	equ	__end_of_protocolo_lcd-_protocolo_lcd
  7854                           	
  7855  1255                     _protocolo_lcd:	
  7856                           	opt	stack 0
  7857                           ; Regs used in _protocolo_lcd: [wreg-fsr0h+status,2+status,0+btemp+1+pclath+cstack]
  7858                           ;protocolo_lcd@linha stored from wreg
  7859                           	line	232
  7860  1255  1283               	bcf	status, 5	;RP0=0, select bank0
  7861  1256  1303               	bcf	status, 6	;RP1=0, select bank0
  7862  1257  00BC               	movwf	(protocolo_lcd@linha)
  7863                           	
  7864  1258                     l7912:	
  7865                           ;protocolo.c: 232: {(debug.uart = 0); (debug.lcd = 0); (debug.main = 0); (debug.protocol
                                 o = 0); (debug.rele = 0); };
  7866  1258  1683               	bsf	status, 5	;RP0=1, select bank1
  7867  1259  1303               	bcf	status, 6	;RP1=0, select bank1
  7868  125A  1020               	bcf	(_debug)^080h,0	;volatile
  7869  125B  10A0               	bcf	(_debug)^080h,1	;volatile
  7870  125C  1120               	bcf	(_debug)^080h,2	;volatile
  7871  125D  11A0               	bcf	(_debug)^080h,3	;volatile
  7872  125E  12A0               	bcf	(_debug)^080h,5	;volatile
  7873                           	line	234
  7874                           ;protocolo.c: 234: if((debug.rele)) return;
  7875  125F  1EA0               	btfss	(_debug)^080h,5	;volatile
  7876  1260  2A62               	goto	u3391
  7877  1261  2A63               	goto	u3390
  7878  1262                     u3391:
  7879  1262  2A65               	goto	l7916
  7880  1263                     u3390:
  7881  1263  2ACC               	goto	l2926
  7882                           	
  7883  1264                     l7914:	
  7884  1264  2ACC               	goto	l2926
  7885                           	
  7886  1265                     l2925:	
  7887                           	line	236
  7888                           	
  7889  1265                     l7916:	
  7890                           ;protocolo.c: 236: if((buffer.i >= sizeof(buffer.texto) - 1)){
  7891  1265  3010               	movlw	(010h)
  7892  1266  1283               	bcf	status, 5	;RP0=0, select bank0
  7893  1267  1303               	bcf	status, 6	;RP1=0, select bank0
  7894  1268  0264               	subwf	0+(_buffer)+011h,w	;volatile
  7895  1269  1C03               	skipc
  7896  126A  2A6C               	goto	u3401
  7897  126B  2A6D               	goto	u3400
  7898  126C                     u3401:
  7899  126C  2AA0               	goto	l2927
  7900  126D                     u3400:
  7901                           	line	239
  7902                           	
  7903  126D                     l7918:	
  7904                           ;protocolo.c: 239: if((debug.print)){ printf("\r\nfim do cmd lcd"); }
  7905  126D  1683               	bsf	status, 5	;RP0=1, select bank1
  7906  126E  1303               	bcf	status, 6	;RP1=0, select bank1
  7907  126F  1E20               	btfss	(_debug)^080h,4	;volatile
  7908  1270  2A72               	goto	u3411
  7909  1271  2A73               	goto	u3410
  7910  1272                     u3411:
  7911  1272  2A7E               	goto	l2928
  7912  1273                     u3410:
  7913                           	
  7914  1273                     l7920:	
  7915  1273  30F0               	movlw	low(STR_19|8000h)
  7916  1274  1283               	bcf	status, 5	;RP0=0, select bank0
  7917  1275  1303               	bcf	status, 6	;RP1=0, select bank0
  7918  1276  00A8               	movwf	(?_printf)
  7919  1277  3083               	movlw	high(STR_19|8000h)
  7920  1278  00A9               	movwf	((?_printf))+1
  7921  1279  160A  118A  236D   	fcall	_printf
              160A  118A         
  7922                           	
  7923  127E                     l2928:	
  7924                           	line	241
  7925                           ;protocolo.c: 241: lcd_string((char *)"                ", linha);
  7926  127E  3012               	movlw	low(STR_20|8000h)
  7927  127F  1283               	bcf	status, 5	;RP0=0, select bank0
  7928  1280  1303               	bcf	status, 6	;RP1=0, select bank0
  7929  1281  00A4               	movwf	(?_lcd_string)
  7930  1282  3084               	movlw	high(STR_20|8000h)
  7931  1283  00A5               	movwf	((?_lcd_string))+1
  7932  1284  083C               	movf	(protocolo_lcd@linha),w
  7933  1285  00BA               	movwf	(??_protocolo_lcd+0)+0
  7934  1286  083A               	movf	(??_protocolo_lcd+0)+0,w
  7935  1287  00A6               	movwf	0+(?_lcd_string)+02h
  7936  1288  160A  158A  2699   	fcall	_lcd_string
              160A  118A         
  7937                           	line	242
  7938                           ;protocolo.c: 242: lcd_string((char *)buffer.texto, linha);
  7939  128D  3053               	movlw	(_buffer&0ffh)
  7940  128E  1283               	bcf	status, 5	;RP0=0, select bank0
  7941  128F  1303               	bcf	status, 6	;RP1=0, select bank0
  7942  1290  00A4               	movwf	(?_lcd_string)
  7943  1291  3000               	movlw	(0x0/2)
  7944  1292  00A5               	movwf	(?_lcd_string+1)
  7945  1293  083C               	movf	(protocolo_lcd@linha),w
  7946  1294  00BA               	movwf	(??_protocolo_lcd+0)+0
  7947  1295  083A               	movf	(??_protocolo_lcd+0)+0,w
  7948  1296  00A6               	movwf	0+(?_lcd_string)+02h
  7949  1297  160A  158A  2699   	fcall	_lcd_string
              160A  118A         
  7950                           	line	243
  7951                           	
  7952  129C                     l7922:	
  7953                           ;protocolo.c: 243: buffer.i = 0;
  7954  129C  1283               	bcf	status, 5	;RP0=0, select bank0
  7955  129D  1303               	bcf	status, 6	;RP1=0, select bank0
  7956  129E  01E4               	clrf	0+(_buffer)+011h	;volatile
  7957                           	line	244
  7958                           ;protocolo.c: 244: } else {
  7959  129F  2ACC               	goto	l2926
  7960                           	
  7961  12A0                     l2927:	
  7962                           	line	247
  7963                           ;protocolo.c: 247: if((debug.print)){ printf("\r\ncopiando p/ lcd = %c", (protocolo.arg)
                                 ); }
  7964  12A0  1683               	bsf	status, 5	;RP0=1, select bank1
  7965  12A1  1303               	bcf	status, 6	;RP1=0, select bank1
  7966  12A2  1E20               	btfss	(_debug)^080h,4	;volatile
  7967  12A3  2AA5               	goto	u3421
  7968  12A4  2AA6               	goto	u3420
  7969  12A5                     u3421:
  7970  12A5  2AB9               	goto	l7926
  7971  12A6                     u3420:
  7972                           	
  7973  12A6                     l7924:	
  7974  12A6  30B7               	movlw	low(STR_21|8000h)
  7975  12A7  1283               	bcf	status, 5	;RP0=0, select bank0
  7976  12A8  1303               	bcf	status, 6	;RP1=0, select bank0
  7977  12A9  00A8               	movwf	(?_printf)
  7978  12AA  3083               	movlw	high(STR_21|8000h)
  7979  12AB  00A9               	movwf	((?_printf))+1
  7980  12AC  084F               	movf	0+(_protocolo)+02h,w	;volatile
  7981  12AD  00BA               	movwf	(??_protocolo_lcd+0)+0
  7982  12AE  01BB               	clrf	(??_protocolo_lcd+0)+0+1
  7983  12AF  083A               	movf	0+(??_protocolo_lcd+0)+0,w
  7984  12B0  00AA               	movwf	0+(?_printf)+02h
  7985  12B1  083B               	movf	1+(??_protocolo_lcd+0)+0,w
  7986  12B2  00AB               	movwf	1+(?_printf)+02h
  7987  12B3  160A  118A  236D   	fcall	_printf
              160A  118A         
  7988  12B8  2AB9               	goto	l7926
  7989                           	
  7990  12B9                     l2930:	
  7991                           	line	250
  7992                           	
  7993  12B9                     l7926:	
  7994                           ;protocolo.c: 250: buffer.texto[buffer.i++] = (protocolo.arg);
  7995  12B9  1283               	bcf	status, 5	;RP0=0, select bank0
  7996  12BA  1303               	bcf	status, 6	;RP1=0, select bank0
  7997  12BB  084F               	movf	0+(_protocolo)+02h,w	;volatile
  7998  12BC  00BA               	movwf	(??_protocolo_lcd+0)+0
  7999  12BD  0864               	movf	0+(_buffer)+011h,w	;volatile
  8000  12BE  3E53               	addlw	_buffer&0ffh
  8001  12BF  0084               	movwf	fsr0
  8002  12C0  083A               	movf	(??_protocolo_lcd+0)+0,w
  8003  12C1  1383               	bcf	status, 7	;select IRP bank0
  8004  12C2  0080               	movwf	indf
  8005                           	
  8006  12C3                     l7928:	
  8007  12C3  3001               	movlw	(01h)
  8008  12C4  00BA               	movwf	(??_protocolo_lcd+0)+0
  8009  12C5  083A               	movf	(??_protocolo_lcd+0)+0,w
  8010  12C6  07E4               	addwf	0+(_buffer)+011h,f	;volatile
  8011                           	line	251
  8012                           	
  8013  12C7                     l7930:	
  8014                           ;protocolo.c: 251: buffer.texto[buffer.i] = '\0';
  8015  12C7  0864               	movf	0+(_buffer)+011h,w	;volatile
  8016  12C8  3E53               	addlw	_buffer&0ffh
  8017  12C9  0084               	movwf	fsr0
  8018  12CA  0180               	clrf	indf
  8019  12CB  2ACC               	goto	l2926
  8020                           	line	252
  8021                           	
  8022  12CC                     l2929:	
  8023                           	line	253
  8024                           	
  8025  12CC                     l2926:	
  8026  12CC  0008               	return
  8027                           	opt stack 0
  8028                           GLOBAL	__end_of_protocolo_lcd
  8029  12CD                     	__end_of_protocolo_lcd:
  8030 ;; =============== function _protocolo_lcd ends ============
  8031                           
  8032                           	signat	_protocolo_lcd,4216
  8033                           	global	_debug_lcd
  8034                           psect	text957,local,class=CODE,delta=2
  8035                           global __ptext957
  8036  07D6                     __ptext957:
  8037                           
  8038 ;; *************** function _debug_lcd *****************
  8039 ;; Defined at:
  8040 ;;		line 21 in file "debug.c"
  8041 ;; Parameters:    Size  Location     Type
  8042 ;;  s               2    7[BANK0 ] PTR unsigned char 
  8043 ;;		 -> STR_18(12), STR_16(17), STR_3(9), 
  8044 ;;  pos             1    9[BANK0 ] unsigned char 
  8045 ;;  bug             2   10[BANK0 ] unsigned int 
  8046 ;; Auto vars:     Size  Location     Type
  8047 ;;		None
  8048 ;; Return value:  Size  Location     Type
  8049 ;;		None               void
  8050 ;; Registers used:
  8051 ;;		wreg, fsr0l, fsr0h, status,2, status,0, btemp+1, pclath, cstack
  8052 ;; Tracked objects:
  8053 ;;		On entry : 0/0
  8054 ;;		On exit  : 0/0
  8055 ;;		Unchanged: 0/0
  8056 ;; Data sizes:     COMMON   BANK0   BANK1   BANK3   BANK2
  8057 ;;      Params:         0       5       0       0       0
  8058 ;;      Locals:         0       0       0       0       0
  8059 ;;      Temps:          0       1       0       0       0
  8060 ;;      Totals:         0       6       0       0       0
  8061 ;;Total ram usage:        6 bytes
  8062 ;; Hardware stack levels used:    1
  8063 ;; Hardware stack levels required when called:    5
  8064 ;; This function calls:
  8065 ;;		_lcd_string
  8066 ;; This function is called by:
  8067 ;;		_uart_hard_fim
  8068 ;;		_protocolo_ver_cmd
  8069 ;; This function uses a non-reentrant model
  8070 ;;
  8071                           psect	text957
  8072                           	file	"debug.c"
  8073                           	line	21
  8074                           	global	__size_of_debug_lcd
  8075  0028                     	__size_of_debug_lcd	equ	__end_of_debug_lcd-_debug_lcd
  8076                           	
  8077  07D6                     _debug_lcd:	
  8078                           	opt	stack 1
  8079                           ; Regs used in _debug_lcd: [wreg-fsr0h+status,2+status,0+btemp+1+pclath+cstack]
  8080                           	line	22
  8081                           	
  8082  07D6                     l7908:	
  8083                           ;debug.c: 22: if(bug){
  8084  07D6  1283               	bcf	status, 5	;RP0=0, select bank0
  8085  07D7  1303               	bcf	status, 6	;RP1=0, select bank0
  8086  07D8  082B               	movf	(debug_lcd@bug+1),w
  8087  07D9  042A               	iorwf	(debug_lcd@bug),w
  8088  07DA  1903               	skipnz
  8089  07DB  2FDD               	goto	u3381
  8090  07DC  2FDE               	goto	u3380
  8091  07DD                     u3381:
  8092  07DD  2FFD               	goto	l2264
  8093  07DE                     u3380:
  8094                           	line	23
  8095                           	
  8096  07DE                     l7910:	
  8097                           ;debug.c: 23: lcd_string((char *)"                ", pos);
  8098  07DE  3012               	movlw	low(STR_5|8000h)
  8099  07DF  00A4               	movwf	(?_lcd_string)
  8100  07E0  3084               	movlw	high(STR_5|8000h)
  8101  07E1  00A5               	movwf	((?_lcd_string))+1
  8102  07E2  0829               	movf	(debug_lcd@pos),w
  8103  07E3  00AC               	movwf	(??_debug_lcd+0)+0
  8104  07E4  082C               	movf	(??_debug_lcd+0)+0,w
  8105  07E5  00A6               	movwf	0+(?_lcd_string)+02h
  8106  07E6  160A  158A  2699   	fcall	_lcd_string
              120A  118A         
  8107                           	line	24
  8108                           ;debug.c: 24: lcd_string(s, pos);
  8109  07EB  1283               	bcf	status, 5	;RP0=0, select bank0
  8110  07EC  1303               	bcf	status, 6	;RP1=0, select bank0
  8111  07ED  0828               	movf	(debug_lcd@s+1),w
  8112  07EE  01A5               	clrf	(?_lcd_string+1)
  8113  07EF  07A5               	addwf	(?_lcd_string+1)
  8114  07F0  0827               	movf	(debug_lcd@s),w
  8115  07F1  01A4               	clrf	(?_lcd_string)
  8116  07F2  07A4               	addwf	(?_lcd_string)
  8117                           
  8118  07F3  0829               	movf	(debug_lcd@pos),w
  8119  07F4  00AC               	movwf	(??_debug_lcd+0)+0
  8120  07F5  082C               	movf	(??_debug_lcd+0)+0,w
  8121  07F6  00A6               	movwf	0+(?_lcd_string)+02h
  8122  07F7  160A  158A  2699   	fcall	_lcd_string
              120A  118A         
  8123  07FC  2FFD               	goto	l2264
  8124                           	line	25
  8125                           	
  8126  07FD                     l2263:	
  8127                           	line	26
  8128                           	
  8129  07FD                     l2264:	
  8130  07FD  0008               	return
  8131                           	opt stack 0
  8132                           GLOBAL	__end_of_debug_lcd
  8133  07FE                     	__end_of_debug_lcd:
  8134 ;; =============== function _debug_lcd ends ============
  8135                           
  8136                           	signat	_debug_lcd,12408
  8137                           	global	_p1503_loop
  8138                           psect	text958,local,class=CODE,delta=2
  8139                           global __ptext958
  8140  12CD                     __ptext958:
  8141                           
  8142 ;; *************** function _p1503_loop *****************
  8143 ;; Defined at:
  8144 ;;		line 54 in file "p1503.c"
  8145 ;; Parameters:    Size  Location     Type
  8146 ;;		None
  8147 ;; Auto vars:     Size  Location     Type
  8148 ;;		None
  8149 ;; Return value:  Size  Location     Type
  8150 ;;		None               void
  8151 ;; Registers used:
  8152 ;;		wreg, fsr0l, fsr0h, status,2, status,0, btemp+1, pclath, cstack
  8153 ;; Tracked objects:
  8154 ;;		On entry : 0/0
  8155 ;;		On exit  : 0/0
  8156 ;;		Unchanged: 0/0
  8157 ;; Data sizes:     COMMON   BANK0   BANK1   BANK3   BANK2
  8158 ;;      Params:         0       0       0       0       0
  8159 ;;      Locals:         0       0       0       0       0
  8160 ;;      Temps:          0       3       0       0       0
  8161 ;;      Totals:         0       3       0       0       0
  8162 ;;Total ram usage:        3 bytes
  8163 ;; Hardware stack levels used:    1
  8164 ;; Hardware stack levels required when called:    5
  8165 ;; This function calls:
  8166 ;;		_uart_tx_soft
  8167 ;;		_lcd_string
  8168 ;; This function is called by:
  8169 ;;		_main
  8170 ;; This function uses a non-reentrant model
  8171 ;;
  8172                           psect	text958
  8173                           	file	"p1503.c"
  8174                           	line	54
  8175                           	global	__size_of_p1503_loop
  8176  00A0                     	__size_of_p1503_loop	equ	__end_of_p1503_loop-_p1503_loop
  8177                           	
  8178  12CD                     _p1503_loop:	
  8179                           	opt	stack 2
  8180                           ; Regs used in _p1503_loop: [wreg-fsr0h+status,2+status,0+btemp+1+pclath+cstack]
  8181                           	line	58
  8182                           	
  8183  12CD                     l7862:	
  8184                           ;p1503.c: 55: static unsigned char timeout = 0;
  8185                           ;p1503.c: 58: if(p1503.bar == 1){
  8186  12CD  1283               	bcf	status, 5	;RP0=0, select bank0
  8187  12CE  1303               	bcf	status, 6	;RP1=0, select bank0
  8188  12CF  1C4C               	btfss	0+(_p1503)+04h,0	;volatile
  8189  12D0  2AD2               	goto	u3321
  8190  12D1  2AD3               	goto	u3320
  8191  12D2                     u3321:
  8192  12D2  2B6C               	goto	l4163
  8193  12D3                     u3320:
  8194  12D3  2B57               	goto	l7906
  8195                           	line	59
  8196                           	
  8197  12D4                     l7864:	
  8198                           ;p1503.c: 59: switch(p1503.est){
  8199  12D4  2B57               	goto	l7906
  8200                           	line	60
  8201                           ;p1503.c: 60: case 0:
  8202                           	
  8203  12D5                     l4147:	
  8204                           	line	62
  8205                           ;p1503.c: 62: break;
  8206  12D5  2B6C               	goto	l4163
  8207                           	line	64
  8208                           ;p1503.c: 64: case 1:
  8209                           	
  8210  12D6                     l4149:	
  8211                           	line	65
  8212                           	
  8213  12D6                     l7866:	
  8214                           ;p1503.c: 65: uart_tx_soft(p1503.cmd);
  8215  12D6  0848               	movf	(_p1503),w	;volatile
  8216  12D7  160A  158A  273C   	fcall	_uart_tx_soft
              160A  118A         
  8217                           	line	66
  8218                           	
  8219  12DC                     l7868:	
  8220                           ;p1503.c: 66: timeout = 0;
  8221  12DC  1283               	bcf	status, 5	;RP0=0, select bank0
  8222  12DD  1303               	bcf	status, 6	;RP1=0, select bank0
  8223  12DE  01D1               	clrf	(p1503_loop@timeout)
  8224                           	line	67
  8225                           	
  8226  12DF                     l7870:	
  8227                           ;p1503.c: 67: p1503.est++;
  8228  12DF  3001               	movlw	(01h)
  8229  12E0  00A7               	movwf	(??_p1503_loop+0)+0
  8230  12E1  0827               	movf	(??_p1503_loop+0)+0,w
  8231  12E2  07CB               	addwf	0+(_p1503)+03h,f	;volatile
  8232                           	line	68
  8233                           ;p1503.c: 68: break;
  8234  12E3  2B6C               	goto	l4163
  8235                           	line	70
  8236                           ;p1503.c: 70: case 2:
  8237                           	
  8238  12E4                     l4150:	
  8239                           	line	71
  8240                           ;p1503.c: 71: if((uart.soft)){
  8241  12E4  1E79               	btfss	(_uart),4	;volatile
  8242  12E5  2AE7               	goto	u3331
  8243  12E6  2AE8               	goto	u3330
  8244  12E7                     u3331:
  8245  12E7  2AFA               	goto	l7880
  8246  12E8                     u3330:
  8247                           	line	72
  8248                           	
  8249  12E8                     l7872:	
  8250                           ;p1503.c: 72: if((uart.buffer_soft) == p1503.cmd){
  8251  12E8  087B               	movf	0+(_uart)+02h,w	;volatile
  8252  12E9  0648               	xorwf	(_p1503),w	;volatile
  8253  12EA  1D03               	skipz
  8254  12EB  2AED               	goto	u3341
  8255  12EC  2AEE               	goto	u3340
  8256  12ED                     u3341:
  8257  12ED  2AF3               	goto	l7876
  8258  12EE                     u3340:
  8259                           	line	73
  8260                           	
  8261  12EE                     l7874:	
  8262                           ;p1503.c: 73: p1503.est++;
  8263  12EE  3001               	movlw	(01h)
  8264  12EF  00A7               	movwf	(??_p1503_loop+0)+0
  8265  12F0  0827               	movf	(??_p1503_loop+0)+0,w
  8266  12F1  07CB               	addwf	0+(_p1503)+03h,f	;volatile
  8267                           	line	74
  8268                           ;p1503.c: 74: } else {
  8269  12F2  2AF8               	goto	l7878
  8270                           	
  8271  12F3                     l4152:	
  8272                           	line	75
  8273                           	
  8274  12F3                     l7876:	
  8275                           ;p1503.c: 75: p1503.est = 5;
  8276  12F3  3005               	movlw	(05h)
  8277  12F4  00A7               	movwf	(??_p1503_loop+0)+0
  8278  12F5  0827               	movf	(??_p1503_loop+0)+0,w
  8279  12F6  00CB               	movwf	0+(_p1503)+03h	;volatile
  8280  12F7  2AF8               	goto	l7878
  8281                           	line	81
  8282                           	
  8283  12F8                     l4153:	
  8284                           	line	82
  8285                           	
  8286  12F8                     l7878:	
  8287                           ;p1503.c: 81: }
  8288                           ;p1503.c: 82: (uart.soft = 0);
  8289  12F8  1279               	bcf	(_uart),4	;volatile
  8290                           	line	83
  8291                           ;p1503.c: 83: } else if(timeout++ > 200){
  8292  12F9  2B6C               	goto	l4163
  8293                           	
  8294  12FA                     l4151:	
  8295                           	
  8296  12FA                     l7880:	
  8297  12FA  3001               	movlw	(01h)
  8298  12FB  00A7               	movwf	(??_p1503_loop+0)+0
  8299  12FC  0827               	movf	(??_p1503_loop+0)+0,w
  8300  12FD  07D1               	addwf	(p1503_loop@timeout),f
  8301  12FE  30CA               	movlw	(0CAh)
  8302  12FF  0251               	subwf	((p1503_loop@timeout)),w
  8303  1300  1C03               	skipc
  8304  1301  2B03               	goto	u3351
  8305  1302  2B04               	goto	u3350
  8306  1303                     u3351:
  8307  1303  2B6C               	goto	l4163
  8308  1304                     u3350:
  8309                           	line	84
  8310                           	
  8311  1304                     l7882:	
  8312                           ;p1503.c: 84: p1503.est = 5;
  8313  1304  3005               	movlw	(05h)
  8314  1305  00A7               	movwf	(??_p1503_loop+0)+0
  8315  1306  0827               	movf	(??_p1503_loop+0)+0,w
  8316  1307  00CB               	movwf	0+(_p1503)+03h	;volatile
  8317  1308  2B6C               	goto	l4163
  8318                           	line	85
  8319                           	
  8320  1309                     l4155:	
  8321  1309  2B6C               	goto	l4163
  8322                           	line	86
  8323                           	
  8324  130A                     l4154:	
  8325                           ;p1503.c: 85: }
  8326                           ;p1503.c: 86: break;
  8327  130A  2B6C               	goto	l4163
  8328                           	line	88
  8329                           ;p1503.c: 88: case 3:
  8330                           	
  8331  130B                     l4156:	
  8332                           	line	89
  8333                           	
  8334  130B                     l7884:	
  8335                           ;p1503.c: 89: uart_tx_soft(p1503.arg);
  8336  130B  0849               	movf	0+(_p1503)+01h,w	;volatile
  8337  130C  160A  158A  273C   	fcall	_uart_tx_soft
              160A  118A         
  8338                           	line	90
  8339                           	
  8340  1311                     l7886:	
  8341                           ;p1503.c: 90: timeout = 0;
  8342  1311  1283               	bcf	status, 5	;RP0=0, select bank0
  8343  1312  1303               	bcf	status, 6	;RP1=0, select bank0
  8344  1313  01D1               	clrf	(p1503_loop@timeout)
  8345                           	line	91
  8346                           	
  8347  1314                     l7888:	
  8348                           ;p1503.c: 91: p1503.est++;
  8349  1314  3001               	movlw	(01h)
  8350  1315  00A7               	movwf	(??_p1503_loop+0)+0
  8351  1316  0827               	movf	(??_p1503_loop+0)+0,w
  8352  1317  07CB               	addwf	0+(_p1503)+03h,f	;volatile
  8353                           	line	92
  8354                           ;p1503.c: 92: break;
  8355  1318  2B6C               	goto	l4163
  8356                           	line	94
  8357                           ;p1503.c: 94: case 4:
  8358                           	
  8359  1319                     l4157:	
  8360                           	line	95
  8361                           ;p1503.c: 95: if((uart.soft)){
  8362  1319  1E79               	btfss	(_uart),4	;volatile
  8363  131A  2B1C               	goto	u3361
  8364  131B  2B1D               	goto	u3360
  8365  131C                     u3361:
  8366  131C  2B24               	goto	l7896
  8367  131D                     u3360:
  8368                           	line	96
  8369                           	
  8370  131D                     l7890:	
  8371                           ;p1503.c: 96: p1503.ret = (uart.buffer_soft);
  8372  131D  087B               	movf	0+(_uart)+02h,w	;volatile
  8373  131E  00A7               	movwf	(??_p1503_loop+0)+0
  8374  131F  0827               	movf	(??_p1503_loop+0)+0,w
  8375  1320  00CA               	movwf	0+(_p1503)+02h	;volatile
  8376                           	line	97
  8377                           	
  8378  1321                     l7892:	
  8379                           ;p1503.c: 97: p1503.est = 0;
  8380  1321  01CB               	clrf	0+(_p1503)+03h	;volatile
  8381                           	line	98
  8382                           	
  8383  1322                     l7894:	
  8384                           ;p1503.c: 98: (uart.soft = 0);
  8385  1322  1279               	bcf	(_uart),4	;volatile
  8386                           	line	99
  8387                           ;p1503.c: 99: } else if(timeout++ > 200){
  8388  1323  2B6C               	goto	l4163
  8389                           	
  8390  1324                     l4158:	
  8391                           	
  8392  1324                     l7896:	
  8393  1324  3001               	movlw	(01h)
  8394  1325  00A7               	movwf	(??_p1503_loop+0)+0
  8395  1326  0827               	movf	(??_p1503_loop+0)+0,w
  8396  1327  07D1               	addwf	(p1503_loop@timeout),f
  8397  1328  30CA               	movlw	(0CAh)
  8398  1329  0251               	subwf	((p1503_loop@timeout)),w
  8399  132A  1C03               	skipc
  8400  132B  2B2D               	goto	u3371
  8401  132C  2B2E               	goto	u3370
  8402  132D                     u3371:
  8403  132D  2B6C               	goto	l4163
  8404  132E                     u3370:
  8405                           	line	100
  8406                           	
  8407  132E                     l7898:	
  8408                           ;p1503.c: 100: p1503.est = 5;
  8409  132E  3005               	movlw	(05h)
  8410  132F  00A7               	movwf	(??_p1503_loop+0)+0
  8411  1330  0827               	movf	(??_p1503_loop+0)+0,w
  8412  1331  00CB               	movwf	0+(_p1503)+03h	;volatile
  8413  1332  2B6C               	goto	l4163
  8414                           	line	101
  8415                           	
  8416  1333                     l4160:	
  8417  1333  2B6C               	goto	l4163
  8418                           	line	102
  8419                           	
  8420  1334                     l4159:	
  8421                           ;p1503.c: 101: }
  8422                           ;p1503.c: 102: break;
  8423  1334  2B6C               	goto	l4163
  8424                           	line	104
  8425                           ;p1503.c: 104: case 5:
  8426                           	
  8427  1335                     l4161:	
  8428                           	line	105
  8429                           ;p1503.c: 105: p1503.bar = 0;
  8430  1335  104C               	bcf	0+(_p1503)+04h,0	;volatile
  8431                           	line	106
  8432                           ;p1503.c: 106: p1503.est = 0;
  8433  1336  01CB               	clrf	0+(_p1503)+03h	;volatile
  8434                           	line	107
  8435                           ;p1503.c: 107: p1503.ret = 0;
  8436  1337  01CA               	clrf	0+(_p1503)+02h	;volatile
  8437                           	line	108
  8438                           ;p1503.c: 108: timeout = 0;
  8439  1338  01D1               	clrf	(p1503_loop@timeout)
  8440                           	line	110
  8441                           	
  8442  1339                     l7900:	
  8443                           ;p1503.c: 110: lcd_string((char *)"erro no p1503", 0x00);
  8444  1339  3055               	movlw	low(STR_22|8000h)
  8445  133A  00A4               	movwf	(?_lcd_string)
  8446  133B  3084               	movlw	high(STR_22|8000h)
  8447  133C  00A5               	movwf	((?_lcd_string))+1
  8448  133D  01A6               	clrf	0+(?_lcd_string)+02h
  8449  133E  160A  158A  2699   	fcall	_lcd_string
              160A  118A         
  8450                           	line	112
  8451                           	
  8452  1343                     l7902:	
  8453                           ;p1503.c: 112: _delay((unsigned long)((500)*(20000000/4000.0)));
  8454                           	opt asmopt_off
  8455  1343  300D               movlw  13
  8456  1344  1283               	bcf	status, 5	;RP0=0, select bank0
  8457  1345  1303               	bcf	status, 6	;RP1=0, select bank0
  8458  1346  00A9               movwf	((??_p1503_loop+0)+0+2),f
  8459  1347  30AF               movlw	175
  8460  1348  00A8               movwf	((??_p1503_loop+0)+0+1),f
  8461  1349  30C1               	movlw	193
  8462  134A  00A7               movwf	((??_p1503_loop+0)+0),f
  8463  134B                     u3777:
  8464  134B  0BA7               	decfsz	((??_p1503_loop+0)+0),f
  8465  134C  2B4B               	goto	u3777
  8466  134D  0BA8               	decfsz	((??_p1503_loop+0)+0+1),f
  8467  134E  2B4B               	goto	u3777
  8468  134F  0BA9               	decfsz	((??_p1503_loop+0)+0+2),f
  8469  1350  2B4B               	goto	u3777
  8470  1351  0064               	clrwdt
  8471                           opt asmopt_on
  8472                           
  8473                           	line	114
  8474                           ;p1503.c: 114: break;
  8475  1352  2B6C               	goto	l4163
  8476                           	line	116
  8477                           ;p1503.c: 116: default:
  8478                           	
  8479  1353                     l4162:	
  8480                           	line	117
  8481                           ;p1503.c: 117: p1503.est = 0;
  8482  1353  01CB               	clrf	0+(_p1503)+03h	;volatile
  8483                           	line	118
  8484                           ;p1503.c: 118: p1503.bar = 0;
  8485  1354  104C               	bcf	0+(_p1503)+04h,0	;volatile
  8486                           	line	119
  8487                           ;p1503.c: 119: break;
  8488  1355  2B6C               	goto	l4163
  8489                           	line	120
  8490                           	
  8491  1356                     l7904:	
  8492                           ;p1503.c: 120: }
  8493  1356  2B6C               	goto	l4163
  8494                           	line	59
  8495                           	
  8496  1357                     l4146:	
  8497                           	
  8498  1357                     l7906:	
  8499  1357  084B               	movf	0+(_p1503)+03h,w	;volatile
  8500                           	; Switch size 1, requested type "space"
  8501                           ; Number of cases is 6, Range of values is 0 to 5
  8502                           ; switch strategies available:
  8503                           ; Name         Instructions Cycles
  8504                           ; simple_byte           19    10 (average)
  8505                           ; direct_byte           26     8 (fixed)
  8506                           ; jumptable            260     6 (fixed)
  8507                           ; rangetable            10     6 (fixed)
  8508                           ; spacedrange           18     9 (fixed)
  8509                           ; locatedrange           6     3 (fixed)
  8510                           ;	Chosen strategy is simple_byte
  8511                           
  8512                           	opt asmopt_off
  8513  1358  3A00               	xorlw	0^0	; case 0
  8514  1359  1903               	skipnz
  8515  135A  2B6C               	goto	l4163
  8516  135B  3A01               	xorlw	1^0	; case 1
  8517  135C  1903               	skipnz
  8518  135D  2AD6               	goto	l7866
  8519  135E  3A03               	xorlw	2^1	; case 2
  8520  135F  1903               	skipnz
  8521  1360  2AE4               	goto	l4150
  8522  1361  3A01               	xorlw	3^2	; case 3
  8523  1362  1903               	skipnz
  8524  1363  2B0B               	goto	l7884
  8525  1364  3A07               	xorlw	4^3	; case 4
  8526  1365  1903               	skipnz
  8527  1366  2B19               	goto	l4157
  8528  1367  3A01               	xorlw	5^4	; case 5
  8529  1368  1903               	skipnz
  8530  1369  2B35               	goto	l4161
  8531  136A  2B53               	goto	l4162
  8532                           	opt asmopt_on
  8533                           
  8534                           	line	120
  8535                           	
  8536  136B                     l4148:	
  8537  136B  2B6C               	goto	l4163
  8538                           	line	121
  8539                           	
  8540  136C                     l4145:	
  8541                           	line	122
  8542                           	
  8543  136C                     l4163:	
  8544  136C  0008               	return
  8545                           	opt stack 0
  8546                           GLOBAL	__end_of_p1503_loop
  8547  136D                     	__end_of_p1503_loop:
  8548 ;; =============== function _p1503_loop ends ============
  8549                           
  8550                           	signat	_p1503_loop,88
  8551                           	global	_main_msg_inicial
  8552                           psect	text959,local,class=CODE,delta=2
  8553                           global __ptext959
  8554  00D7                     __ptext959:
  8555                           
  8556 ;; *************** function _main_msg_inicial *****************
  8557 ;; Defined at:
  8558 ;;		line 129 in file "main.c"
  8559 ;; Parameters:    Size  Location     Type
  8560 ;;		None
  8561 ;; Auto vars:     Size  Location     Type
  8562 ;;		None
  8563 ;; Return value:  Size  Location     Type
  8564 ;;		None               void
  8565 ;; Registers used:
  8566 ;;		wreg, fsr0l, fsr0h, status,2, status,0, btemp+1, pclath, cstack
  8567 ;; Tracked objects:
  8568 ;;		On entry : 0/0
  8569 ;;		On exit  : 0/0
  8570 ;;		Unchanged: 0/0
  8571 ;; Data sizes:     COMMON   BANK0   BANK1   BANK3   BANK2
  8572 ;;      Params:         0       0       0       0       0
  8573 ;;      Locals:         0       0       0       0       0
  8574 ;;      Temps:          0       1       0       0       0
  8575 ;;      Totals:         0       1       0       0       0
  8576 ;;Total ram usage:        1 bytes
  8577 ;; Hardware stack levels used:    1
  8578 ;; Hardware stack levels required when called:    5
  8579 ;; This function calls:
  8580 ;;		_cria_rosto
  8581 ;;		_lcd_string
  8582 ;; This function is called by:
  8583 ;;		_main
  8584 ;; This function uses a non-reentrant model
  8585 ;;
  8586                           psect	text959
  8587                           	file	"main.c"
  8588                           	line	129
  8589                           	global	__size_of_main_msg_inicial
  8590  0028                     	__size_of_main_msg_inicial	equ	__end_of_main_msg_inicial-_main_msg_inicial
  8591                           	
  8592  00D7                     _main_msg_inicial:	
  8593                           	opt	stack 2
  8594                           ; Regs used in _main_msg_inicial: [wreg-fsr0h+status,2+status,0+btemp+1+pclath+cstack]
  8595                           	line	130
  8596                           	
  8597  00D7                     l7860:	
  8598                           ;main.c: 130: cria_rosto(15,0);
  8599  00D7  1283               	bcf	status, 5	;RP0=0, select bank0
  8600  00D8  1303               	bcf	status, 6	;RP1=0, select bank0
  8601  00D9  01B1               	clrf	(?_cria_rosto)
  8602  00DA  300F               	movlw	(0Fh)
  8603  00DB  160A  158A  2602   	fcall	_cria_rosto
              120A  118A         
  8604                           	line	131
  8605                           ;main.c: 131: lcd_string((char *)"Projeto V-2     ", 0x10);
  8606  00E0  3023               	movlw	low(STR_1|8000h)
  8607  00E1  1283               	bcf	status, 5	;RP0=0, select bank0
  8608  00E2  1303               	bcf	status, 6	;RP1=0, select bank0
  8609  00E3  00A4               	movwf	(?_lcd_string)
  8610  00E4  3084               	movlw	high(STR_1|8000h)
  8611  00E5  00A5               	movwf	((?_lcd_string))+1
  8612  00E6  3010               	movlw	(010h)
  8613  00E7  00B4               	movwf	(??_main_msg_inicial+0)+0
  8614  00E8  0834               	movf	(??_main_msg_inicial+0)+0,w
  8615  00E9  00A6               	movwf	0+(?_lcd_string)+02h
  8616  00EA  160A  158A  2699   	fcall	_lcd_string
              120A  118A         
  8617                           	line	132
  8618                           ;main.c: 132: lcd_string((char *)"18-jan-2012     ", 0x50);
  8619  00EF  3034               	movlw	low(STR_2|8000h)
  8620  00F0  1283               	bcf	status, 5	;RP0=0, select bank0
  8621  00F1  1303               	bcf	status, 6	;RP1=0, select bank0
  8622  00F2  00A4               	movwf	(?_lcd_string)
  8623  00F3  3084               	movlw	high(STR_2|8000h)
  8624  00F4  00A5               	movwf	((?_lcd_string))+1
  8625  00F5  3050               	movlw	(050h)
  8626  00F6  00B4               	movwf	(??_main_msg_inicial+0)+0
  8627  00F7  0834               	movf	(??_main_msg_inicial+0)+0,w
  8628  00F8  00A6               	movwf	0+(?_lcd_string)+02h
  8629  00F9  160A  158A  2699   	fcall	_lcd_string
              120A  118A         
  8630                           	line	133
  8631                           	
  8632  00FE                     l810:	
  8633  00FE  0008               	return
  8634                           	opt stack 0
  8635                           GLOBAL	__end_of_main_msg_inicial
  8636  00FF                     	__end_of_main_msg_inicial:
  8637 ;; =============== function _main_msg_inicial ends ============
  8638                           
  8639                           	signat	_main_msg_inicial,88
  8640                           	global	_lcd_string
  8641                           psect	text960,local,class=CODE,delta=2
  8642                           global __ptext960
  8643  1E99                     __ptext960:
  8644                           
  8645 ;; *************** function _lcd_string *****************
  8646 ;; Defined at:
  8647 ;;		line 81 in file "lcd.c"
  8648 ;; Parameters:    Size  Location     Type
  8649 ;;  s               2    4[BANK0 ] PTR unsigned char 
  8650 ;;		 -> STR_36(8), STR_35(17), STR_34(17), STR_33(17), 
  8651 ;;		 -> STR_32(17), STR_31(17), STR_30(17), STR_29(17), 
  8652 ;;		 -> STR_28(17), STR_27(17), STR_26(17), STR_25(17), 
  8653 ;;		 -> STR_24(17), STR_23(17), STR_22(14), STR_20(17), 
  8654 ;;		 -> STR_18(12), STR_16(17), STR_15(17), STR_14(17), 
  8655 ;;		 -> STR_13(17), STR_12(17), buffer(19), STR_6(17), 
  8656 ;;		 -> STR_5(17), STR_4(17), STR_3(9), STR_2(17), 
  8657 ;;		 -> STR_1(17), 
  8658 ;;  pos             1    6[BANK0 ] unsigned char 
  8659 ;; Auto vars:     Size  Location     Type
  8660 ;;		None
  8661 ;; Return value:  Size  Location     Type
  8662 ;;		None               void
  8663 ;; Registers used:
  8664 ;;		wreg, fsr0l, fsr0h, status,2, status,0, btemp+1, pclath, cstack
  8665 ;; Tracked objects:
  8666 ;;		On entry : 0/0
  8667 ;;		On exit  : 0/0
  8668 ;;		Unchanged: 0/0
  8669 ;; Data sizes:     COMMON   BANK0   BANK1   BANK3   BANK2
  8670 ;;      Params:         0       3       0       0       0
  8671 ;;      Locals:         0       0       0       0       0
  8672 ;;      Temps:          0       0       0       0       0
  8673 ;;      Totals:         0       3       0       0       0
  8674 ;;Total ram usage:        3 bytes
  8675 ;; Hardware stack levels used:    1
  8676 ;; Hardware stack levels required when called:    4
  8677 ;; This function calls:
  8678 ;;		_lcd_goto
  8679 ;;		_lcd_putch
  8680 ;; This function is called by:
  8681 ;;		_main_msg_inicial
  8682 ;;		_uart_hard_fim
  8683 ;;		_debug_lcd
  8684 ;;		_protocolo_ver_cmd
  8685 ;;		_protocolo_lcd
  8686 ;;		_p1503_loop
  8687 ;;		_homem_inicio
  8688 ;;		_homem_corre_esquerda
  8689 ;;		_homem_vira_direita
  8690 ;;		_homem_corre_direita
  8691 ;;		_homem_vira_esquerda
  8692 ;;		_homem_animacao
  8693 ;;		_debug_lcd_len
  8694 ;; This function uses a non-reentrant model
  8695 ;;
  8696                           psect	text960
  8697                           	file	"lcd.c"
  8698                           	line	81
  8699                           	global	__size_of_lcd_string
  8700  0034                     	__size_of_lcd_string	equ	__end_of_lcd_string-_lcd_string
  8701                           	
  8702  1E99                     _lcd_string:	
  8703                           	opt	stack 2
  8704                           ; Regs used in _lcd_string: [wreg-fsr0h+status,2+status,0+btemp+1+pclath+cstack]
  8705                           	line	82
  8706                           	
  8707  1E99                     l7852:	
  8708                           ;lcd.c: 82: lcd_goto(pos);
  8709  1E99  1283               	bcf	status, 5	;RP0=0, select bank0
  8710  1E9A  1303               	bcf	status, 6	;RP1=0, select bank0
  8711  1E9B  0826               	movf	(lcd_string@pos),w
  8712  1E9C  160A  158A  258E   	fcall	_lcd_goto
              160A  158A         
  8713                           	line	83
  8714                           ;lcd.c: 83: while (*s != '\0') {
  8715  1EA1  2EBB               	goto	l7858
  8716                           	
  8717  1EA2                     l1583:	
  8718                           	line	84
  8719                           	
  8720  1EA2                     l7854:	
  8721                           ;lcd.c: 84: lcd_putch(*s++);
  8722  1EA2  1283               	bcf	status, 5	;RP0=0, select bank0
  8723  1EA3  1303               	bcf	status, 6	;RP1=0, select bank0
  8724  1EA4  0825               	movf	(lcd_string@s+1),w
  8725  1EA5  00FF               	movwf	btemp+1
  8726  1EA6  0824               	movf	(lcd_string@s),w
  8727  1EA7  0084               	movwf	fsr0
  8728  1EA8  120A  118A  2100   	fcall	stringtab
              160A  158A         
  8729  1EAD  160A  158A  256B   	fcall	_lcd_putch
              160A  158A         
  8730                           	
  8731  1EB2                     l7856:	
  8732  1EB2  3001               	movlw	low(01h)
  8733  1EB3  1283               	bcf	status, 5	;RP0=0, select bank0
  8734  1EB4  1303               	bcf	status, 6	;RP1=0, select bank0
  8735  1EB5  07A4               	addwf	(lcd_string@s),f
  8736  1EB6  1803               	skipnc
  8737  1EB7  0AA5               	incf	(lcd_string@s+1),f
  8738  1EB8  3000               	movlw	high(01h)
  8739  1EB9  07A5               	addwf	(lcd_string@s+1),f
  8740  1EBA  2EBB               	goto	l7858
  8741                           	line	85
  8742                           	
  8743  1EBB                     l1582:	
  8744                           	line	83
  8745                           	
  8746  1EBB                     l7858:	
  8747  1EBB  1283               	bcf	status, 5	;RP0=0, select bank0
  8748  1EBC  1303               	bcf	status, 6	;RP1=0, select bank0
  8749  1EBD  0825               	movf	(lcd_string@s+1),w
  8750  1EBE  00FF               	movwf	btemp+1
  8751  1EBF  0824               	movf	(lcd_string@s),w
  8752  1EC0  0084               	movwf	fsr0
  8753  1EC1  120A  118A  2100   	fcall	stringtab
              160A  158A         
  8754  1EC6  3800               	iorlw	0
  8755  1EC7  1D03               	skipz
  8756  1EC8  2ECA               	goto	u3311
  8757  1EC9  2ECB               	goto	u3310
  8758  1ECA                     u3311:
  8759  1ECA  2EA2               	goto	l7854
  8760  1ECB                     u3310:
  8761  1ECB  2ECC               	goto	l1585
  8762                           	
  8763  1ECC                     l1584:	
  8764                           	line	86
  8765                           	
  8766  1ECC                     l1585:	
  8767  1ECC  0008               	return
  8768                           	opt stack 0
  8769                           GLOBAL	__end_of_lcd_string
  8770  1ECD                     	__end_of_lcd_string:
  8771 ;; =============== function _lcd_string ends ============
  8772                           
  8773                           	signat	_lcd_string,8312
  8774                           	global	_cria_rosto
  8775                           psect	text961,local,class=CODE,delta=2
  8776                           global __ptext961
  8777  1E02                     __ptext961:
  8778                           
  8779 ;; *************** function _cria_rosto *****************
  8780 ;; Defined at:
  8781 ;;		line 136 in file "main.c"
  8782 ;; Parameters:    Size  Location     Type
  8783 ;;  coluna          1    wreg     unsigned char 
  8784 ;;  linha           1   17[BANK0 ] unsigned char 
  8785 ;; Auto vars:     Size  Location     Type
  8786 ;;  coluna          1   19[BANK0 ] unsigned char 
  8787 ;; Return value:  Size  Location     Type
  8788 ;;		None               void
  8789 ;; Registers used:
  8790 ;;		wreg, fsr0l, fsr0h, status,2, status,0, btemp+1, pclath, cstack
  8791 ;; Tracked objects:
  8792 ;;		On entry : 0/0
  8793 ;;		On exit  : 0/0
  8794 ;;		Unchanged: 0/0
  8795 ;; Data sizes:     COMMON   BANK0   BANK1   BANK3   BANK2
  8796 ;;      Params:         0       1       0       0       0
  8797 ;;      Locals:         0       1       0       0       0
  8798 ;;      Temps:          0       1       0       0       0
  8799 ;;      Totals:         0       3       0       0       0
  8800 ;;Total ram usage:        3 bytes
  8801 ;; Hardware stack levels used:    1
  8802 ;; Hardware stack levels required when called:    4
  8803 ;; This function calls:
  8804 ;;		_lcd_novo_char
  8805 ;;		_lcd_cursor_ddram
  8806 ;;		_lcd_putch
  8807 ;; This function is called by:
  8808 ;;		_main_msg_inicial
  8809 ;; This function uses a non-reentrant model
  8810 ;;
  8811                           psect	text961
  8812                           	file	"main.c"
  8813                           	line	136
  8814                           	global	__size_of_cria_rosto
  8815  0020                     	__size_of_cria_rosto	equ	__end_of_cria_rosto-_cria_rosto
  8816                           	
  8817  1E02                     _cria_rosto:	
  8818                           	opt	stack 2
  8819                           ; Regs used in _cria_rosto: [wreg-fsr0h+status,2+status,0+btemp+1+pclath+cstack]
  8820                           ;cria_rosto@coluna stored from wreg
  8821  1E02  1283               	bcf	status, 5	;RP0=0, select bank0
  8822  1E03  1303               	bcf	status, 6	;RP1=0, select bank0
  8823  1E04  00B3               	movwf	(cria_rosto@coluna)
  8824                           	line	137
  8825                           	
  8826  1E05                     l7848:	
  8827                           ;main.c: 137: lcd_novo_char(0,rosto);
  8828  1E05  301C               	movlw	low(_rosto|8000h)
  8829  1E06  00A3               	movwf	(?_lcd_novo_char)
  8830  1E07  3081               	movlw	high(_rosto|8000h)
  8831  1E08  00A4               	movwf	((?_lcd_novo_char))+1
  8832  1E09  3000               	movlw	(0)
  8833  1E0A  160A  158A  2777   	fcall	_lcd_novo_char
              160A  158A         
  8834                           	line	138
  8835                           ;main.c: 138: lcd_cursor_ddram(coluna, linha);
  8836  1E0F  1283               	bcf	status, 5	;RP0=0, select bank0
  8837  1E10  1303               	bcf	status, 6	;RP1=0, select bank0
  8838  1E11  0831               	movf	(cria_rosto@linha),w
  8839  1E12  00B2               	movwf	(??_cria_rosto+0)+0
  8840  1E13  0832               	movf	(??_cria_rosto+0)+0,w
  8841  1E14  00A3               	movwf	(?_lcd_cursor_ddram)
  8842  1E15  0833               	movf	(cria_rosto@coluna),w
  8843  1E16  160A  118A  20C8   	fcall	_lcd_cursor_ddram
              160A  158A         
  8844                           	line	139
  8845                           	
  8846  1E1B                     l7850:	
  8847                           ;main.c: 139: lcd_putch(0);
  8848  1E1B  3000               	movlw	(0)
  8849  1E1C  160A  158A  256B   	fcall	_lcd_putch
              160A  158A         
  8850                           	line	140
  8851                           	
  8852  1E21                     l813:	
  8853  1E21  0008               	return
  8854                           	opt stack 0
  8855                           GLOBAL	__end_of_cria_rosto
  8856  1E22                     	__end_of_cria_rosto:
  8857 ;; =============== function _cria_rosto ends ============
  8858                           
  8859                           	signat	_cria_rosto,8312
  8860                           	global	_lcd_init
  8861                           psect	text962,local,class=CODE,delta=2
  8862                           global __ptext962
  8863  11E8                     __ptext962:
  8864                           
  8865 ;; *************** function _lcd_init *****************
  8866 ;; Defined at:
  8867 ;;		line 92 in file "lcd.c"
  8868 ;; Parameters:    Size  Location     Type
  8869 ;;		None
  8870 ;; Auto vars:     Size  Location     Type
  8871 ;;		None
  8872 ;; Return value:  Size  Location     Type
  8873 ;;		None               void
  8874 ;; Registers used:
  8875 ;;		wreg, status,2, status,0, pclath, cstack
  8876 ;; Tracked objects:
  8877 ;;		On entry : 0/0
  8878 ;;		On exit  : 0/0
  8879 ;;		Unchanged: 0/0
  8880 ;; Data sizes:     COMMON   BANK0   BANK1   BANK3   BANK2
  8881 ;;      Params:         0       0       0       0       0
  8882 ;;      Locals:         0       0       0       0       0
  8883 ;;      Temps:          0       2       0       0       0
  8884 ;;      Totals:         0       2       0       0       0
  8885 ;;Total ram usage:        2 bytes
  8886 ;; Hardware stack levels used:    1
  8887 ;; Hardware stack levels required when called:    4
  8888 ;; This function calls:
  8889 ;;		_lcd_write
  8890 ;;		_lcd_clear
  8891 ;; This function is called by:
  8892 ;;		_main
  8893 ;; This function uses a non-reentrant model
  8894 ;;
  8895                           psect	text962
  8896                           	file	"lcd.c"
  8897                           	line	92
  8898                           	global	__size_of_lcd_init
  8899  006D                     	__size_of_lcd_init	equ	__end_of_lcd_init-_lcd_init
  8900                           	
  8901  11E8                     _lcd_init:	
  8902                           	opt	stack 3
  8903                           ; Regs used in _lcd_init: [wreg+status,2+status,0+pclath+cstack]
  8904                           	line	93
  8905                           	
  8906  11E8                     l7804:	
  8907                           ;lcd.c: 93: TRISB &= (0x60);
  8908  11E8  3060               	movlw	(060h)
  8909  11E9  1283               	bcf	status, 5	;RP0=0, select bank0
  8910  11EA  1303               	bcf	status, 6	;RP1=0, select bank0
  8911  11EB  00A5               	movwf	(??_lcd_init+0)+0
  8912  11EC  0825               	movf	(??_lcd_init+0)+0,w
  8913  11ED  1683               	bsf	status, 5	;RP0=1, select bank1
  8914  11EE  1303               	bcf	status, 6	;RP1=0, select bank1
  8915  11EF  0586               	andwf	(134)^080h,f	;volatile
  8916                           	line	94
  8917                           ;lcd.c: 94: PORTB &= (0x60);
  8918  11F0  3060               	movlw	(060h)
  8919  11F1  1283               	bcf	status, 5	;RP0=0, select bank0
  8920  11F2  1303               	bcf	status, 6	;RP1=0, select bank0
  8921  11F3  00A5               	movwf	(??_lcd_init+0)+0
  8922  11F4  0825               	movf	(??_lcd_init+0)+0,w
  8923  11F5  0586               	andwf	(6),f	;volatile
  8924                           	line	95
  8925                           	
  8926  11F6                     l7806:	
  8927                           ;lcd.c: 95: RB7 = 0;
  8928  11F6  1386               	bcf	(55/8),(55)&7
  8929                           	line	96
  8930                           	
  8931  11F7                     l7808:	
  8932                           ;lcd.c: 96: RB4 = 0;
  8933  11F7  1206               	bcf	(52/8),(52)&7
  8934                           	line	99
  8935                           	
  8936  11F8                     l7810:	
  8937                           ;lcd.c: 99: _delay((unsigned long)((20)*(20000000/4000.0)));
  8938                           	opt asmopt_off
  8939  11F8  3082               movlw	130
  8940  11F9  00A6               movwf	((??_lcd_init+0)+0+1),f
  8941  11FA  30DD               	movlw	221
  8942  11FB  00A5               movwf	((??_lcd_init+0)+0),f
  8943  11FC                     u3787:
  8944  11FC  0BA5               	decfsz	((??_lcd_init+0)+0),f
  8945  11FD  29FC               	goto	u3787
  8946  11FE  0BA6               	decfsz	((??_lcd_init+0)+0+1),f
  8947  11FF  29FC               	goto	u3787
  8948  1200  2A01               	nop2
  8949                           opt asmopt_on
  8950                           
  8951                           	line	100
  8952                           	
  8953  1201                     l7812:	
  8954                           ;lcd.c: 100: PORTB = (PORTB & 0xF0) | 0x03;
  8955  1201  1283               	bcf	status, 5	;RP0=0, select bank0
  8956  1202  1303               	bcf	status, 6	;RP1=0, select bank0
  8957  1203  0806               	movf	(6),w
  8958  1204  39F0               	andlw	0F0h
  8959  1205  3803               	iorlw	03h
  8960  1206  0086               	movwf	(6)	;volatile
  8961                           	line	101
  8962                           	
  8963  1207                     l7814:	
  8964                           ;lcd.c: 101: ((RB4 = 1),(RB4=0));
  8965  1207  1606               	bsf	(52/8),(52)&7
  8966                           	
  8967  1208                     l7816:	
  8968  1208  1206               	bcf	(52/8),(52)&7
  8969                           	line	102
  8970                           	
  8971  1209                     l7818:	
  8972                           ;lcd.c: 102: _delay((unsigned long)((20)*(20000000/4000.0)));
  8973                           	opt asmopt_off
  8974  1209  3082               movlw	130
  8975  120A  00A6               movwf	((??_lcd_init+0)+0+1),f
  8976  120B  30DD               	movlw	221
  8977  120C  00A5               movwf	((??_lcd_init+0)+0),f
  8978  120D                     u3797:
  8979  120D  0BA5               	decfsz	((??_lcd_init+0)+0),f
  8980  120E  2A0D               	goto	u3797
  8981  120F  0BA6               	decfsz	((??_lcd_init+0)+0+1),f
  8982  1210  2A0D               	goto	u3797
  8983  1211  2A12               	nop2
  8984                           opt asmopt_on
  8985                           
  8986                           	line	103
  8987                           	
  8988  1212                     l7820:	
  8989                           ;lcd.c: 103: ((RB4 = 1),(RB4=0));
  8990  1212  1283               	bcf	status, 5	;RP0=0, select bank0
  8991  1213  1303               	bcf	status, 6	;RP1=0, select bank0
  8992  1214  1606               	bsf	(52/8),(52)&7
  8993                           	
  8994  1215                     l7822:	
  8995  1215  1206               	bcf	(52/8),(52)&7
  8996                           	line	104
  8997                           	
  8998  1216                     l7824:	
  8999                           ;lcd.c: 104: _delay((unsigned long)((20)*(20000000/4000.0)));
  9000                           	opt asmopt_off
  9001  1216  3082               movlw	130
  9002  1217  00A6               movwf	((??_lcd_init+0)+0+1),f
  9003  1218  30DD               	movlw	221
  9004  1219  00A5               movwf	((??_lcd_init+0)+0),f
  9005  121A                     u3807:
  9006  121A  0BA5               	decfsz	((??_lcd_init+0)+0),f
  9007  121B  2A1A               	goto	u3807
  9008  121C  0BA6               	decfsz	((??_lcd_init+0)+0+1),f
  9009  121D  2A1A               	goto	u3807
  9010  121E  2A1F               	nop2
  9011                           opt asmopt_on
  9012                           
  9013                           	line	105
  9014                           	
  9015  121F                     l7826:	
  9016                           ;lcd.c: 105: ((RB4 = 1),(RB4=0));
  9017  121F  1283               	bcf	status, 5	;RP0=0, select bank0
  9018  1220  1303               	bcf	status, 6	;RP1=0, select bank0
  9019  1221  1606               	bsf	(52/8),(52)&7
  9020                           	
  9021  1222                     l7828:	
  9022  1222  1206               	bcf	(52/8),(52)&7
  9023                           	line	106
  9024                           	
  9025  1223                     l7830:	
  9026                           ;lcd.c: 106: _delay((unsigned long)((20)*(20000000/4000.0)));
  9027                           	opt asmopt_off
  9028  1223  3082               movlw	130
  9029  1224  00A6               movwf	((??_lcd_init+0)+0+1),f
  9030  1225  30DD               	movlw	221
  9031  1226  00A5               movwf	((??_lcd_init+0)+0),f
  9032  1227                     u3817:
  9033  1227  0BA5               	decfsz	((??_lcd_init+0)+0),f
  9034  1228  2A27               	goto	u3817
  9035  1229  0BA6               	decfsz	((??_lcd_init+0)+0+1),f
  9036  122A  2A27               	goto	u3817
  9037  122B  2A2C               	nop2
  9038                           opt asmopt_on
  9039                           
  9040                           	line	107
  9041                           	
  9042  122C                     l7832:	
  9043                           ;lcd.c: 107: PORTB = (PORTB & 0xF0) | 2;
  9044  122C  1283               	bcf	status, 5	;RP0=0, select bank0
  9045  122D  1303               	bcf	status, 6	;RP1=0, select bank0
  9046  122E  0806               	movf	(6),w
  9047  122F  39F0               	andlw	0F0h
  9048  1230  3802               	iorlw	02h
  9049  1231  0086               	movwf	(6)	;volatile
  9050                           	line	108
  9051                           	
  9052  1232                     l7834:	
  9053                           ;lcd.c: 108: ((RB4 = 1),(RB4=0));
  9054  1232  1606               	bsf	(52/8),(52)&7
  9055                           	
  9056  1233                     l7836:	
  9057  1233  1206               	bcf	(52/8),(52)&7
  9058                           	line	109
  9059                           	
  9060  1234                     l7838:	
  9061                           ;lcd.c: 109: _delay((unsigned long)((20)*(20000000/4000.0)));
  9062                           	opt asmopt_off
  9063  1234  3082               movlw	130
  9064  1235  00A6               movwf	((??_lcd_init+0)+0+1),f
  9065  1236  30DD               	movlw	221
  9066  1237  00A5               movwf	((??_lcd_init+0)+0),f
  9067  1238                     u3827:
  9068  1238  0BA5               	decfsz	((??_lcd_init+0)+0),f
  9069  1239  2A38               	goto	u3827
  9070  123A  0BA6               	decfsz	((??_lcd_init+0)+0+1),f
  9071  123B  2A38               	goto	u3827
  9072  123C  2A3D               	nop2
  9073                           opt asmopt_on
  9074                           
  9075                           	line	112
  9076                           	
  9077  123D                     l7840:	
  9078                           ;lcd.c: 112: lcd_write(0x28);
  9079  123D  3028               	movlw	(028h)
  9080  123E  160A  158A  2703   	fcall	_lcd_write
              160A  118A         
  9081                           	line	115
  9082                           	
  9083  1243                     l7842:	
  9084                           ;lcd.c: 115: lcd_write(0xC);
  9085  1243  300C               	movlw	(0Ch)
  9086  1244  160A  158A  2703   	fcall	_lcd_write
              160A  118A         
  9087                           	line	117
  9088                           	
  9089  1249                     l7844:	
  9090                           ;lcd.c: 117: lcd_clear();
  9091  1249  160A  158A  25D6   	fcall	_lcd_clear
              160A  118A         
  9092                           	line	118
  9093                           	
  9094  124E                     l7846:	
  9095                           ;lcd.c: 118: lcd_write(0x6);
  9096  124E  3006               	movlw	(06h)
  9097  124F  160A  158A  2703   	fcall	_lcd_write
              160A  118A         
  9098                           	line	119
  9099                           	
  9100  1254                     l1588:	
  9101  1254  0008               	return
  9102                           	opt stack 0
  9103                           GLOBAL	__end_of_lcd_init
  9104  1255                     	__end_of_lcd_init:
  9105 ;; =============== function _lcd_init ends ============
  9106                           
  9107                           	signat	_lcd_init,88
  9108                           	global	_lcd_goto
  9109                           psect	text963,local,class=CODE,delta=2
  9110                           global __ptext963
  9111  1D8E                     __ptext963:
  9112                           
  9113 ;; *************** function _lcd_goto *****************
  9114 ;; Defined at:
  9115 ;;		line 72 in file "lcd.c"
  9116 ;; Parameters:    Size  Location     Type
  9117 ;;  pos             1    wreg     unsigned char 
  9118 ;; Auto vars:     Size  Location     Type
  9119 ;;  pos             1    3[BANK0 ] unsigned char 
  9120 ;; Return value:  Size  Location     Type
  9121 ;;		None               void
  9122 ;; Registers used:
  9123 ;;		wreg, status,2, status,0, pclath, cstack
  9124 ;; Tracked objects:
  9125 ;;		On entry : 0/0
  9126 ;;		On exit  : 0/0
  9127 ;;		Unchanged: 0/0
  9128 ;; Data sizes:     COMMON   BANK0   BANK1   BANK3   BANK2
  9129 ;;      Params:         0       0       0       0       0
  9130 ;;      Locals:         0       1       0       0       0
  9131 ;;      Temps:          0       0       0       0       0
  9132 ;;      Totals:         0       1       0       0       0
  9133 ;;Total ram usage:        1 bytes
  9134 ;; Hardware stack levels used:    1
  9135 ;; Hardware stack levels required when called:    3
  9136 ;; This function calls:
  9137 ;;		_lcd_write
  9138 ;; This function is called by:
  9139 ;;		_lcd_string
  9140 ;;		_lcd_string_len
  9141 ;; This function uses a non-reentrant model
  9142 ;;
  9143                           psect	text963
  9144                           	file	"lcd.c"
  9145                           	line	72
  9146                           	global	__size_of_lcd_goto
  9147  000C                     	__size_of_lcd_goto	equ	__end_of_lcd_goto-_lcd_goto
  9148                           	
  9149  1D8E                     _lcd_goto:	
  9150                           	opt	stack 2
  9151                           ; Regs used in _lcd_goto: [wreg+status,2+status,0+pclath+cstack]
  9152                           ;lcd_goto@pos stored from wreg
  9153  1D8E  1283               	bcf	status, 5	;RP0=0, select bank0
  9154  1D8F  1303               	bcf	status, 6	;RP1=0, select bank0
  9155  1D90  00A3               	movwf	(lcd_goto@pos)
  9156                           	line	73
  9157                           	
  9158  1D91                     l7800:	
  9159                           ;lcd.c: 73: RB7 = 0;
  9160  1D91  1386               	bcf	(55/8),(55)&7
  9161                           	line	74
  9162                           	
  9163  1D92                     l7802:	
  9164                           ;lcd.c: 74: lcd_write(0x80 + pos);
  9165  1D92  0823               	movf	(lcd_goto@pos),w
  9166  1D93  3E80               	addlw	080h
  9167  1D94  160A  158A  2703   	fcall	_lcd_write
              160A  158A         
  9168                           	line	75
  9169                           	
  9170  1D99                     l1579:	
  9171  1D99  0008               	return
  9172                           	opt stack 0
  9173                           GLOBAL	__end_of_lcd_goto
  9174  1D9A                     	__end_of_lcd_goto:
  9175 ;; =============== function _lcd_goto ends ============
  9176                           
  9177                           	signat	_lcd_goto,4216
  9178                           	global	_lcd_clear
  9179                           psect	text964,local,class=CODE,delta=2
  9180                           global __ptext964
  9181  1DD6                     __ptext964:
  9182                           
  9183 ;; *************** function _lcd_clear *****************
  9184 ;; Defined at:
  9185 ;;		line 42 in file "lcd.c"
  9186 ;; Parameters:    Size  Location     Type
  9187 ;;		None
  9188 ;; Auto vars:     Size  Location     Type
  9189 ;;		None
  9190 ;; Return value:  Size  Location     Type
  9191 ;;		None               void
  9192 ;; Registers used:
  9193 ;;		wreg, status,2, status,0, pclath, cstack
  9194 ;; Tracked objects:
  9195 ;;		On entry : 0/0
  9196 ;;		On exit  : 0/0
  9197 ;;		Unchanged: 0/0
  9198 ;; Data sizes:     COMMON   BANK0   BANK1   BANK3   BANK2
  9199 ;;      Params:         0       0       0       0       0
  9200 ;;      Locals:         0       0       0       0       0
  9201 ;;      Temps:          0       2       0       0       0
  9202 ;;      Totals:         0       2       0       0       0
  9203 ;;Total ram usage:        2 bytes
  9204 ;; Hardware stack levels used:    1
  9205 ;; Hardware stack levels required when called:    3
  9206 ;; This function calls:
  9207 ;;		_lcd_write
  9208 ;; This function is called by:
  9209 ;;		_lcd_init
  9210 ;;		_homem_corre_esquerda
  9211 ;;		_homem_vira_direita
  9212 ;;		_homem_corre_direita
  9213 ;;		_homem_vira_esquerda
  9214 ;;		_homem_animacao
  9215 ;; This function uses a non-reentrant model
  9216 ;;
  9217                           psect	text964
  9218                           	file	"lcd.c"
  9219                           	line	42
  9220                           	global	__size_of_lcd_clear
  9221  0015                     	__size_of_lcd_clear	equ	__end_of_lcd_clear-_lcd_clear
  9222                           	
  9223  1DD6                     _lcd_clear:	
  9224                           	opt	stack 2
  9225                           ; Regs used in _lcd_clear: [wreg+status,2+status,0+pclath+cstack]
  9226                           	line	43
  9227                           	
  9228  1DD6                     l7794:	
  9229                           ;lcd.c: 43: RB7 = 0;
  9230  1DD6  1283               	bcf	status, 5	;RP0=0, select bank0
  9231  1DD7  1303               	bcf	status, 6	;RP1=0, select bank0
  9232  1DD8  1386               	bcf	(55/8),(55)&7
  9233                           	line	44
  9234                           	
  9235  1DD9                     l7796:	
  9236                           ;lcd.c: 44: lcd_write(0x1);
  9237  1DD9  3001               	movlw	(01h)
  9238  1DDA  160A  158A  2703   	fcall	_lcd_write
              160A  158A         
  9239                           	line	45
  9240                           	
  9241  1DDF                     l7798:	
  9242                           ;lcd.c: 45: _delay((unsigned long)((20)*(20000000/4000.0)));
  9243                           	opt asmopt_off
  9244  1DDF  3082               movlw	130
  9245  1DE0  1283               	bcf	status, 5	;RP0=0, select bank0
  9246  1DE1  1303               	bcf	status, 6	;RP1=0, select bank0
  9247  1DE2  00A4               movwf	((??_lcd_clear+0)+0+1),f
  9248  1DE3  30DD               	movlw	221
  9249  1DE4  00A3               movwf	((??_lcd_clear+0)+0),f
  9250  1DE5                     u3837:
  9251  1DE5  0BA3               	decfsz	((??_lcd_clear+0)+0),f
  9252  1DE6  2DE5               	goto	u3837
  9253  1DE7  0BA4               	decfsz	((??_lcd_clear+0)+0+1),f
  9254  1DE8  2DE5               	goto	u3837
  9255  1DE9  2DEA               	nop2
  9256                           opt asmopt_on
  9257                           
  9258                           	line	46
  9259                           	
  9260  1DEA                     l1567:	
  9261  1DEA  0008               	return
  9262                           	opt stack 0
  9263                           GLOBAL	__end_of_lcd_clear
  9264  1DEB                     	__end_of_lcd_clear:
  9265 ;; =============== function _lcd_clear ends ============
  9266                           
  9267                           	signat	_lcd_clear,88
  9268                           	global	_lcd_putch
  9269                           psect	text965,local,class=CODE,delta=2
  9270                           global __ptext965
  9271  1D6B                     __ptext965:
  9272                           
  9273 ;; *************** function _lcd_putch *****************
  9274 ;; Defined at:
  9275 ;;		line 63 in file "lcd.c"
  9276 ;; Parameters:    Size  Location     Type
  9277 ;;  c               1    wreg     unsigned char 
  9278 ;; Auto vars:     Size  Location     Type
  9279 ;;  c               1    3[BANK0 ] unsigned char 
  9280 ;; Return value:  Size  Location     Type
  9281 ;;		None               void
  9282 ;; Registers used:
  9283 ;;		wreg, status,2, status,0, pclath, cstack
  9284 ;; Tracked objects:
  9285 ;;		On entry : 0/0
  9286 ;;		On exit  : 0/0
  9287 ;;		Unchanged: 0/0
  9288 ;; Data sizes:     COMMON   BANK0   BANK1   BANK3   BANK2
  9289 ;;      Params:         0       0       0       0       0
  9290 ;;      Locals:         0       1       0       0       0
  9291 ;;      Temps:          0       0       0       0       0
  9292 ;;      Totals:         0       1       0       0       0
  9293 ;;Total ram usage:        1 bytes
  9294 ;; Hardware stack levels used:    1
  9295 ;; Hardware stack levels required when called:    3
  9296 ;; This function calls:
  9297 ;;		_lcd_write
  9298 ;; This function is called by:
  9299 ;;		_cria_rosto
  9300 ;;		_lcd_string
  9301 ;;		_homem_inicio
  9302 ;;		_homem_corre_esquerda
  9303 ;;		_homem_vira_direita
  9304 ;;		_homem_corre_direita
  9305 ;;		_homem_vira_esquerda
  9306 ;;		_lcd_string_len
  9307 ;; This function uses a non-reentrant model
  9308 ;;
  9309                           psect	text965
  9310                           	file	"lcd.c"
  9311                           	line	63
  9312                           	global	__size_of_lcd_putch
  9313  000B                     	__size_of_lcd_putch	equ	__end_of_lcd_putch-_lcd_putch
  9314                           	
  9315  1D6B                     _lcd_putch:	
  9316                           	opt	stack 2
  9317                           ; Regs used in _lcd_putch: [wreg+status,2+status,0+pclath+cstack]
  9318                           ;lcd_putch@c stored from wreg
  9319  1D6B  1283               	bcf	status, 5	;RP0=0, select bank0
  9320  1D6C  1303               	bcf	status, 6	;RP1=0, select bank0
  9321  1D6D  00A3               	movwf	(lcd_putch@c)
  9322                           	line	64
  9323                           	
  9324  1D6E                     l7790:	
  9325                           ;lcd.c: 64: RB7 = 1;
  9326  1D6E  1786               	bsf	(55/8),(55)&7
  9327                           	line	65
  9328                           	
  9329  1D6F                     l7792:	
  9330                           ;lcd.c: 65: lcd_write(c);
  9331  1D6F  0823               	movf	(lcd_putch@c),w
  9332  1D70  160A  158A  2703   	fcall	_lcd_write
              160A  158A         
  9333                           	line	66
  9334                           	
  9335  1D75                     l1576:	
  9336  1D75  0008               	return
  9337                           	opt stack 0
  9338                           GLOBAL	__end_of_lcd_putch
  9339  1D76                     	__end_of_lcd_putch:
  9340 ;; =============== function _lcd_putch ends ============
  9341                           
  9342                           	signat	_lcd_putch,4216
  9343                           	global	_lcd_cursor_ddram
  9344                           psect	text966,local,class=CODE,delta=2
  9345                           global __ptext966
  9346  10C8                     __ptext966:
  9347                           
  9348 ;; *************** function _lcd_cursor_ddram *****************
  9349 ;; Defined at:
  9350 ;;		line 155 in file "lcd.c"
  9351 ;; Parameters:    Size  Location     Type
  9352 ;;  coluna          1    wreg     unsigned char 
  9353 ;;  linha           1    3[BANK0 ] unsigned char 
  9354 ;; Auto vars:     Size  Location     Type
  9355 ;;  coluna          1   16[BANK0 ] unsigned char 
  9356 ;;  row_offsets     8    8[BANK0 ] int [4]
  9357 ;; Return value:  Size  Location     Type
  9358 ;;		None               void
  9359 ;; Registers used:
  9360 ;;		wreg, fsr0l, fsr0h, status,2, status,0, btemp+1, pclath, cstack
  9361 ;; Tracked objects:
  9362 ;;		On entry : 0/0
  9363 ;;		On exit  : 0/0
  9364 ;;		Unchanged: 0/0
  9365 ;; Data sizes:     COMMON   BANK0   BANK1   BANK3   BANK2
  9366 ;;      Params:         0       1       0       0       0
  9367 ;;      Locals:         0       9       0       0       0
  9368 ;;      Temps:          0       4       0       0       0
  9369 ;;      Totals:         0      14       0       0       0
  9370 ;;Total ram usage:       14 bytes
  9371 ;; Hardware stack levels used:    1
  9372 ;; Hardware stack levels required when called:    3
  9373 ;; This function calls:
  9374 ;;		_lcd_write
  9375 ;; This function is called by:
  9376 ;;		_cria_rosto
  9377 ;;		_homem_inicio
  9378 ;;		_homem_corre_esquerda
  9379 ;;		_homem_vira_direita
  9380 ;;		_homem_corre_direita
  9381 ;;		_homem_vira_esquerda
  9382 ;; This function uses a non-reentrant model
  9383 ;;
  9384                           psect	text966
  9385                           	file	"lcd.c"
  9386                           	line	155
  9387                           	global	__size_of_lcd_cursor_ddram
  9388  0055                     	__size_of_lcd_cursor_ddram	equ	__end_of_lcd_cursor_ddram-_lcd_cursor_ddram
  9389                           	
  9390  10C8                     _lcd_cursor_ddram:	
  9391                           	opt	stack 2
  9392                           ; Regs used in _lcd_cursor_ddram: [wreg-fsr0h+status,2+status,0+btemp+1+pclath+cstack]
  9393                           ;lcd_cursor_ddram@coluna stored from wreg
  9394                           	line	157
  9395  10C8  1283               	bcf	status, 5	;RP0=0, select bank0
  9396  10C9  1303               	bcf	status, 6	;RP1=0, select bank0
  9397  10CA  00B0               	movwf	(lcd_cursor_ddram@coluna)
  9398                           	
  9399  10CB                     l7780:	
  9400                           ;lcd.c: 157: int row_offsets[] = { 0x00, 0x40, 0x10, 0x50 };
  9401  10CB  3028               	movlw	(lcd_cursor_ddram@row_offsets)&0ffh
  9402  10CC  0084               	movwf	fsr0
  9403  10CD  3066               	movlw	low(lcd_cursor_ddram@F1078)
  9404  10CE  00A4               	movwf	(??_lcd_cursor_ddram+0)+0
  9405  10CF  0804               	movf	fsr0,w
  9406  10D0  00A5               	movwf	((??_lcd_cursor_ddram+0)+0+1)
  9407  10D1  3008               	movlw	8
  9408  10D2  00A6               	movwf	((??_lcd_cursor_ddram+0)+0+2)
  9409  10D3                     u3290:
  9410  10D3  0824               	movf	(??_lcd_cursor_ddram+0)+0,w
  9411  10D4  0084               	movwf	fsr0
  9412  10D5  1383               	bcf	status, 7	;select IRP bank0
  9413                           	
  9414  10D6  0800               	movf	indf,w
  9415  10D7  00A7               	movwf	((??_lcd_cursor_ddram+0)+0+3)
  9416  10D8  0AA4               	incf	(??_lcd_cursor_ddram+0)+0,f
  9417  10D9  0825               	movf	((??_lcd_cursor_ddram+0)+0+1),w
  9418  10DA  0084               	movwf	fsr0
  9419                           	
  9420  10DB  0827               	movf	((??_lcd_cursor_ddram+0)+0+3),w
  9421  10DC  0080               	movwf	indf
  9422  10DD  0AA5               	incf	((??_lcd_cursor_ddram+0)+0+1),f
  9423  10DE  0BA6               	decfsz	((??_lcd_cursor_ddram+0)+0+2),f
  9424  10DF  28D3               	goto	u3290
  9425                           	line	160
  9426                           	
  9427  10E0                     l7782:	
  9428                           ;lcd.c: 158: const int _numlines = 4;
  9429                           ;lcd.c: 160: if ( linha >= _numlines ) {
  9430  10E0  301A               	movlw	low(lcd_cursor_ddram@_numlines|8000h)
  9431  10E1  0084               	movwf	fsr0
  9432  10E2  3081               	movlw	high(lcd_cursor_ddram@_numlines|8000h)
  9433  10E3  00FF               	movwf	btemp+1
  9434  10E4  120A  118A  2100   	fcall	stringtab
              160A  118A         
  9435  10E9  00A4               	movwf	(??_lcd_cursor_ddram+0)+0
  9436  10EA  120A  118A  2100   	fcall	stringtab
              160A  118A         
  9437  10EF  00A5               	movwf	(??_lcd_cursor_ddram+0)+0+1
  9438  10F0  0825               	movf	1+(??_lcd_cursor_ddram+0)+0,w
  9439  10F1  3A80               	xorlw	80h
  9440  10F2  3C80               	sublw	080h
  9441  10F3  1D03               	skipz
  9442  10F4  28F7               	goto	u3305
  9443  10F5  0824               	movf	0+(??_lcd_cursor_ddram+0)+0,w
  9444  10F6  0223               	subwf	(lcd_cursor_ddram@linha),w
  9445  10F7                     u3305:
  9446                           
  9447  10F7  1C03               	skipc
  9448  10F8  28FA               	goto	u3301
  9449  10F9  28FB               	goto	u3300
  9450  10FA                     u3301:
  9451  10FA  290B               	goto	l7786
  9452  10FB                     u3300:
  9453                           	line	161
  9454                           	
  9455  10FB                     l7784:	
  9456                           ;lcd.c: 161: linha = _numlines-1;
  9457  10FB  301A               	movlw	low(lcd_cursor_ddram@_numlines|8000h)
  9458  10FC  0084               	movwf	fsr0
  9459  10FD  3081               	movlw	high(lcd_cursor_ddram@_numlines|8000h)
  9460  10FE  1283               	bcf	status, 5	;RP0=0, select bank0
  9461  10FF  1303               	bcf	status, 6	;RP1=0, select bank0
  9462  1100  00FF               	movwf	btemp+1
  9463  1101  120A  118A  2100   	fcall	stringtab
              160A  118A         
  9464  1106  3EFF               	addlw	0FFh
  9465  1107  00A4               	movwf	(??_lcd_cursor_ddram+0)+0
  9466  1108  0824               	movf	(??_lcd_cursor_ddram+0)+0,w
  9467  1109  00A3               	movwf	(lcd_cursor_ddram@linha)
  9468  110A  290B               	goto	l7786
  9469                           	line	162
  9470                           	
  9471  110B                     l1611:	
  9472                           	line	164
  9473                           	
  9474  110B                     l7786:	
  9475                           ;lcd.c: 162: }
  9476                           ;lcd.c: 164: RB7 = 0;
  9477  110B  1283               	bcf	status, 5	;RP0=0, select bank0
  9478  110C  1303               	bcf	status, 6	;RP1=0, select bank0
  9479  110D  1386               	bcf	(55/8),(55)&7
  9480                           	line	166
  9481                           	
  9482  110E                     l7788:	
  9483                           ;lcd.c: 166: lcd_write(0x80 | (coluna + row_offsets[linha]));
  9484  110E  0823               	movf	(lcd_cursor_ddram@linha),w
  9485  110F  00A4               	movwf	(??_lcd_cursor_ddram+0)+0
  9486  1110  0724               	addwf	(??_lcd_cursor_ddram+0)+0,w
  9487  1111  3E28               	addlw	lcd_cursor_ddram@row_offsets&0ffh
  9488  1112  0084               	movwf	fsr0
  9489  1113  0830               	movf	(lcd_cursor_ddram@coluna),w
  9490  1114  1383               	bcf	status, 7	;select IRP bank0
  9491  1115  0700               	addwf	indf,w
  9492  1116  3880               	iorlw	080h
  9493  1117  160A  158A  2703   	fcall	_lcd_write
              160A  118A         
  9494                           	line	167
  9495                           	
  9496  111C                     l1612:	
  9497  111C  0008               	return
  9498                           	opt stack 0
  9499                           GLOBAL	__end_of_lcd_cursor_ddram
  9500  111D                     	__end_of_lcd_cursor_ddram:
  9501 ;; =============== function _lcd_cursor_ddram ends ============
  9502                           
  9503                           	signat	_lcd_cursor_ddram,8312
  9504                           	global	_lcd_novo_char
  9505                           psect	text967,local,class=CODE,delta=2
  9506                           global __ptext967
  9507  1F77                     __ptext967:
  9508                           
  9509 ;; *************** function _lcd_novo_char *****************
  9510 ;; Defined at:
  9511 ;;		line 141 in file "lcd.c"
  9512 ;; Parameters:    Size  Location     Type
  9513 ;;  local           1    wreg     unsigned char 
  9514 ;;  bloco           2    3[BANK0 ] PTR const unsigned char 
  9515 ;;		 -> slipF6(8), slipF5(8), slipF4(8), slipF3(8), 
  9516 ;;		 -> slipF2(8), slipF1(8), slipE6(8), slipE5(8), 
  9517 ;;		 -> slipE4(8), slipE3(8), slipE2(8), slipE1(8), 
  9518 ;;		 -> slipD6(8), slipD5(8), slipD4(8), slipD3(8), 
  9519 ;;		 -> slipD2(8), slipD1(8), stepG6(8), stepG5(8), 
  9520 ;;		 -> stepG4(8), stepG3(8), stepG2(8), stepG1(8), 
  9521 ;;		 -> stepF6(8), stepF5(8), stepF4(8), stepF3(8), 
  9522 ;;		 -> stepF2(8), stepF1(8), stepE6(8), stepE5(8), 
  9523 ;;		 -> stepE4(8), stepE3(8), stepE2(8), stepE1(8), 
  9524 ;;		 -> slipC6(8), slipC5(8), slipC4(8), slipC3(8), 
  9525 ;;		 -> slipC2(8), slipC1(8), slipB6(8), slipB5(8), 
  9526 ;;		 -> slipB4(8), slipB3(8), slipB2(8), slipB1(8), 
  9527 ;;		 -> slipA6(8), slipA5(8), slipA4(8), slipA3(8), 
  9528 ;;		 -> slipA2(8), slipA1(8), stepD6(8), stepD5(8), 
  9529 ;;		 -> stepD4(8), stepD3(8), stepD2(8), stepD1(8), 
  9530 ;;		 -> stepC6(8), stepC5(8), stepC4(8), stepC3(8), 
  9531 ;;		 -> stepC2(8), stepC1(8), stepB6(8), stepB5(8), 
  9532 ;;		 -> stepB4(8), stepB3(8), stepB2(8), stepB1(8), 
  9533 ;;		 -> stepA6(8), stepA5(8), stepA4(8), stepA3(8), 
  9534 ;;		 -> stepA2(8), stepA1(8), rosto(8), 
  9535 ;; Auto vars:     Size  Location     Type
  9536 ;;  local           1    6[BANK0 ] unsigned char 
  9537 ;;  i               1    7[BANK0 ] unsigned char 
  9538 ;; Return value:  Size  Location     Type
  9539 ;;		None               void
  9540 ;; Registers used:
  9541 ;;		wreg, fsr0l, fsr0h, status,2, status,0, btemp+1, pclath, cstack
  9542 ;; Tracked objects:
  9543 ;;		On entry : 0/0
  9544 ;;		On exit  : 0/0
  9545 ;;		Unchanged: 0/0
  9546 ;; Data sizes:     COMMON   BANK0   BANK1   BANK3   BANK2
  9547 ;;      Params:         0       2       0       0       0
  9548 ;;      Locals:         0       2       0       0       0
  9549 ;;      Temps:          0       1       0       0       0
  9550 ;;      Totals:         0       5       0       0       0
  9551 ;;Total ram usage:        5 bytes
  9552 ;; Hardware stack levels used:    1
  9553 ;; Hardware stack levels required when called:    3
  9554 ;; This function calls:
  9555 ;;		_lcd_write
  9556 ;; This function is called by:
  9557 ;;		_cria_rosto
  9558 ;;		_homem_inicio
  9559 ;;		_homem_corre_esquerda
  9560 ;;		_homem_vira_direita
  9561 ;;		_homem_corre_direita
  9562 ;;		_homem_vira_esquerda
  9563 ;; This function uses a non-reentrant model
  9564 ;;
  9565                           psect	text967
  9566                           	file	"lcd.c"
  9567                           	line	141
  9568                           	global	__size_of_lcd_novo_char
  9569  0043                     	__size_of_lcd_novo_char	equ	__end_of_lcd_novo_char-_lcd_novo_char
  9570                           	
  9571  1F77                     _lcd_novo_char:	
  9572                           	opt	stack 2
  9573                           ; Regs used in _lcd_novo_char: [wreg-fsr0h+status,2+status,0+btemp+1+pclath+cstack]
  9574                           ;lcd_novo_char@local stored from wreg
  9575                           	line	144
  9576  1F77  1283               	bcf	status, 5	;RP0=0, select bank0
  9577  1F78  1303               	bcf	status, 6	;RP1=0, select bank0
  9578  1F79  00A6               	movwf	(lcd_novo_char@local)
  9579                           	
  9580  1F7A                     l7760:	
  9581                           ;lcd.c: 142: unsigned char i;
  9582                           ;lcd.c: 144: local &= 0x07;
  9583  1F7A  3007               	movlw	(07h)
  9584  1F7B  00A5               	movwf	(??_lcd_novo_char+0)+0
  9585  1F7C  0825               	movf	(??_lcd_novo_char+0)+0,w
  9586  1F7D  05A6               	andwf	(lcd_novo_char@local),f
  9587                           	line	145
  9588                           	
  9589  1F7E                     l7762:	
  9590                           ;lcd.c: 145: RB7 = 0;
  9591  1F7E  1386               	bcf	(55/8),(55)&7
  9592                           	line	146
  9593                           	
  9594  1F7F                     l7764:	
  9595                           ;lcd.c: 146: lcd_write(0x40 | (local << 3));
  9596  1F7F  0826               	movf	(lcd_novo_char@local),w
  9597  1F80  00A5               	movwf	(??_lcd_novo_char+0)+0
  9598  1F81  3002               	movlw	(03h)-1
  9599  1F82                     u3265:
  9600  1F82  1003               	clrc
  9601  1F83  0DA5               	rlf	(??_lcd_novo_char+0)+0,f
  9602  1F84  3EFF               	addlw	-1
  9603  1F85  1D03               	skipz
  9604  1F86  2F82               	goto	u3265
  9605  1F87  1003               	clrc
  9606  1F88  0D25               	rlf	(??_lcd_novo_char+0)+0,w
  9607  1F89  3840               	iorlw	040h
  9608  1F8A  160A  158A  2703   	fcall	_lcd_write
              160A  158A         
  9609                           	line	148
  9610                           	
  9611  1F8F                     l7766:	
  9612                           ;lcd.c: 148: RB7 = 1;
  9613  1F8F  1283               	bcf	status, 5	;RP0=0, select bank0
  9614  1F90  1303               	bcf	status, 6	;RP1=0, select bank0
  9615  1F91  1786               	bsf	(55/8),(55)&7
  9616                           	line	150
  9617                           	
  9618  1F92                     l7768:	
  9619                           ;lcd.c: 150: for(i = 0; i < 8; i++){
  9620  1F92  01A7               	clrf	(lcd_novo_char@i)
  9621                           	
  9622  1F93                     l7770:	
  9623  1F93  3008               	movlw	(08h)
  9624  1F94  0227               	subwf	(lcd_novo_char@i),w
  9625  1F95  1C03               	skipc
  9626  1F96  2F98               	goto	u3271
  9627  1F97  2F99               	goto	u3270
  9628  1F98                     u3271:
  9629  1F98  2F9B               	goto	l7774
  9630  1F99                     u3270:
  9631  1F99  2FB9               	goto	l1604
  9632                           	
  9633  1F9A                     l7772:	
  9634  1F9A  2FB9               	goto	l1604
  9635                           	
  9636  1F9B                     l1602:	
  9637                           	line	151
  9638                           	
  9639  1F9B                     l7774:	
  9640                           ;lcd.c: 151: lcd_write(bloco[i]);
  9641  1F9B  0827               	movf	(lcd_novo_char@i),w
  9642  1F9C  0723               	addwf	(lcd_novo_char@bloco),w
  9643  1F9D  0084               	movwf	fsr0
  9644  1F9E  0824               	movf	(lcd_novo_char@bloco+1),w
  9645  1F9F  1803               	skipnc
  9646  1FA0  0A24               	incf	(lcd_novo_char@bloco+1),w
  9647  1FA1  00FF               	movwf	btemp+1
  9648  1FA2  120A  118A  2100   	fcall	stringtab
              160A  158A         
  9649  1FA7  160A  158A  2703   	fcall	_lcd_write
              160A  158A         
  9650                           	line	150
  9651                           	
  9652  1FAC                     l7776:	
  9653  1FAC  3001               	movlw	(01h)
  9654  1FAD  1283               	bcf	status, 5	;RP0=0, select bank0
  9655  1FAE  1303               	bcf	status, 6	;RP1=0, select bank0
  9656  1FAF  00A5               	movwf	(??_lcd_novo_char+0)+0
  9657  1FB0  0825               	movf	(??_lcd_novo_char+0)+0,w
  9658  1FB1  07A7               	addwf	(lcd_novo_char@i),f
  9659                           	
  9660  1FB2                     l7778:	
  9661  1FB2  3008               	movlw	(08h)
  9662  1FB3  0227               	subwf	(lcd_novo_char@i),w
  9663  1FB4  1C03               	skipc
  9664  1FB5  2FB7               	goto	u3281
  9665  1FB6  2FB8               	goto	u3280
  9666  1FB7                     u3281:
  9667  1FB7  2F9B               	goto	l7774
  9668  1FB8                     u3280:
  9669  1FB8  2FB9               	goto	l1604
  9670                           	
  9671  1FB9                     l1603:	
  9672                           	line	153
  9673                           	
  9674  1FB9                     l1604:	
  9675  1FB9  0008               	return
  9676                           	opt stack 0
  9677                           GLOBAL	__end_of_lcd_novo_char
  9678  1FBA                     	__end_of_lcd_novo_char:
  9679 ;; =============== function _lcd_novo_char ends ============
  9680                           
  9681                           	signat	_lcd_novo_char,8312
  9682                           	global	_p1503_init
  9683                           psect	text968,local,class=CODE,delta=2
  9684                           global __ptext968
  9685  1FBA                     __ptext968:
  9686                           
  9687 ;; *************** function _p1503_init *****************
  9688 ;; Defined at:
  9689 ;;		line 30 in file "p1503.c"
  9690 ;; Parameters:    Size  Location     Type
  9691 ;;		None
  9692 ;; Auto vars:     Size  Location     Type
  9693 ;;		None
  9694 ;; Return value:  Size  Location     Type
  9695 ;;		None               void
  9696 ;; Registers used:
  9697 ;;		wreg, status,2, status,0, pclath, cstack
  9698 ;; Tracked objects:
  9699 ;;		On entry : 0/0
  9700 ;;		On exit  : 0/0
  9701 ;;		Unchanged: 0/0
  9702 ;; Data sizes:     COMMON   BANK0   BANK1   BANK3   BANK2
  9703 ;;      Params:         0       0       0       0       0
  9704 ;;      Locals:         0       0       0       0       0
  9705 ;;      Temps:          0       3       0       0       0
  9706 ;;      Totals:         0       3       0       0       0
  9707 ;;Total ram usage:        3 bytes
  9708 ;; Hardware stack levels used:    1
  9709 ;; Hardware stack levels required when called:    3
  9710 ;; This function calls:
  9711 ;;		_uart_tx_soft
  9712 ;;		_p1503_cmd_arg
  9713 ;;		_p1503_envia_pacote
  9714 ;; This function is called by:
  9715 ;;		_main
  9716 ;; This function uses a non-reentrant model
  9717 ;;
  9718                           psect	text968
  9719                           	file	"p1503.c"
  9720                           	line	30
  9721                           	global	__size_of_p1503_init
  9722  0046                     	__size_of_p1503_init	equ	__end_of_p1503_init-_p1503_init
  9723                           	
  9724  1FBA                     _p1503_init:	
  9725                           	opt	stack 4
  9726                           ; Regs used in _p1503_init: [wreg+status,2+status,0+pclath+cstack]
  9727                           	line	31
  9728                           	
  9729  1FBA                     l7742:	
  9730                           ;p1503.c: 31: p1503.cmd = 0;
  9731  1FBA  1283               	bcf	status, 5	;RP0=0, select bank0
  9732  1FBB  1303               	bcf	status, 6	;RP1=0, select bank0
  9733  1FBC  01C8               	clrf	(_p1503)	;volatile
  9734                           	line	32
  9735                           ;p1503.c: 32: p1503.arg = 0;
  9736  1FBD  01C9               	clrf	0+(_p1503)+01h	;volatile
  9737                           	line	33
  9738                           ;p1503.c: 33: p1503.est = 0;
  9739  1FBE  01CB               	clrf	0+(_p1503)+03h	;volatile
  9740                           	line	34
  9741                           ;p1503.c: 34: p1503.bar = 1;
  9742  1FBF  144C               	bsf	0+(_p1503)+04h,0	;volatile
  9743                           	line	35
  9744                           ;p1503.c: 35: p1503.ret = 0;
  9745  1FC0  01CA               	clrf	0+(_p1503)+02h	;volatile
  9746                           	line	38
  9747                           	
  9748  1FC1                     l7744:	
  9749                           ;p1503.c: 38: uart_tx_soft('d');
  9750  1FC1  3064               	movlw	(064h)
  9751  1FC2  160A  158A  273C   	fcall	_uart_tx_soft
              160A  158A         
  9752                           	line	39
  9753                           	
  9754  1FC7                     l7746:	
  9755                           ;p1503.c: 39: (RC0 = 1);
  9756  1FC7  1283               	bcf	status, 5	;RP0=0, select bank0
  9757  1FC8  1303               	bcf	status, 6	;RP1=0, select bank0
  9758  1FC9  1407               	bsf	(56/8),(56)&7
  9759                           	line	40
  9760                           	
  9761  1FCA                     l7748:	
  9762                           ;p1503.c: 40: _delay((unsigned long)((200)*(20000000/4000.0)));
  9763                           	opt asmopt_off
  9764  1FCA  3006               movlw  6
  9765  1FCB  00A5               movwf	((??_p1503_init+0)+0+2),f
  9766  1FCC  3013               movlw	19
  9767  1FCD  00A4               movwf	((??_p1503_init+0)+0+1),f
  9768  1FCE  30B1               	movlw	177
  9769  1FCF  00A3               movwf	((??_p1503_init+0)+0),f
  9770  1FD0                     u3847:
  9771  1FD0  0BA3               	decfsz	((??_p1503_init+0)+0),f
  9772  1FD1  2FD0               	goto	u3847
  9773  1FD2  0BA4               	decfsz	((??_p1503_init+0)+0+1),f
  9774  1FD3  2FD0               	goto	u3847
  9775  1FD4  0BA5               	decfsz	((??_p1503_init+0)+0+2),f
  9776  1FD5  2FD0               	goto	u3847
  9777  1FD6  2FD7               	nop2
  9778                           opt asmopt_on
  9779                           
  9780                           	line	42
  9781                           	
  9782  1FD7                     l7750:	
  9783                           ;p1503.c: 42: uart_tx_soft('0');
  9784  1FD7  3030               	movlw	(030h)
  9785  1FD8  160A  158A  273C   	fcall	_uart_tx_soft
              160A  158A         
  9786                           	line	43
  9787                           	
  9788  1FDD                     l7752:	
  9789                           ;p1503.c: 43: (RC0 = 0);
  9790  1FDD  1283               	bcf	status, 5	;RP0=0, select bank0
  9791  1FDE  1303               	bcf	status, 6	;RP1=0, select bank0
  9792  1FDF  1007               	bcf	(56/8),(56)&7
  9793                           	line	44
  9794                           ;p1503.c: 44: _delay((unsigned long)((200)*(20000000/4000.0)));
  9795                           	opt asmopt_off
  9796  1FE0  3006               movlw  6
  9797  1FE1  00A5               movwf	((??_p1503_init+0)+0+2),f
  9798  1FE2  3013               movlw	19
  9799  1FE3  00A4               movwf	((??_p1503_init+0)+0+1),f
  9800  1FE4  30B1               	movlw	177
  9801  1FE5  00A3               movwf	((??_p1503_init+0)+0),f
  9802  1FE6                     u3857:
  9803  1FE6  0BA3               	decfsz	((??_p1503_init+0)+0),f
  9804  1FE7  2FE6               	goto	u3857
  9805  1FE8  0BA4               	decfsz	((??_p1503_init+0)+0+1),f
  9806  1FE9  2FE6               	goto	u3857
  9807  1FEA  0BA5               	decfsz	((??_p1503_init+0)+0+2),f
  9808  1FEB  2FE6               	goto	u3857
  9809  1FEC  2FED               	nop2
  9810                           opt asmopt_on
  9811                           
  9812                           	line	46
  9813                           	
  9814  1FED                     l7754:	
  9815                           ;p1503.c: 46: (uart.soft = 0);
  9816  1FED  1279               	bcf	(_uart),4	;volatile
  9817                           	line	49
  9818                           	
  9819  1FEE                     l7756:	
  9820                           ;p1503.c: 49: p1503_cmd_arg('a', '2');
  9821  1FEE  3032               	movlw	(032h)
  9822  1FEF  1283               	bcf	status, 5	;RP0=0, select bank0
  9823  1FF0  1303               	bcf	status, 6	;RP1=0, select bank0
  9824  1FF1  00A3               	movwf	(??_p1503_init+0)+0
  9825  1FF2  0823               	movf	(??_p1503_init+0)+0,w
  9826  1FF3  00A0               	movwf	(?_p1503_cmd_arg)
  9827  1FF4  3061               	movlw	(061h)
  9828  1FF5  160A  158A  2582   	fcall	_p1503_cmd_arg
              160A  158A         
  9829                           	line	50
  9830                           	
  9831  1FFA                     l7758:	
  9832                           ;p1503.c: 50: p1503_envia_pacote();
  9833  1FFA  160A  158A  2542   	fcall	_p1503_envia_pacote
              160A  158A         
  9834                           	line	51
  9835                           	
  9836  1FFF                     l4140:	
  9837  1FFF  0008               	return
  9838                           	opt stack 0
  9839                           GLOBAL	__end_of_p1503_init
  9840  2000                     	__end_of_p1503_init:
  9841 ;; =============== function _p1503_init ends ============
  9842                           
  9843                           	signat	_p1503_init,88
  9844                           	global	_p1503_analogico
  9845                           psect	text969,local,class=CODE,delta=2
  9846                           global __ptext969
  9847  1E22                     __ptext969:
  9848                           
  9849 ;; *************** function _p1503_analogico *****************
  9850 ;; Defined at:
  9851 ;;		line 167 in file "p1503.c"
  9852 ;; Parameters:    Size  Location     Type
  9853 ;;  canal           1    wreg     unsigned char 
  9854 ;; Auto vars:     Size  Location     Type
  9855 ;;  canal           1    4[BANK0 ] unsigned char 
  9856 ;; Return value:  Size  Location     Type
  9857 ;;                  1    wreg      unsigned char 
  9858 ;; Registers used:
  9859 ;;		wreg, fsr0l, fsr0h, status,2, status,0, pclath, cstack
  9860 ;; Tracked objects:
  9861 ;;		On entry : 0/0
  9862 ;;		On exit  : 0/0
  9863 ;;		Unchanged: 0/0
  9864 ;; Data sizes:     COMMON   BANK0   BANK1   BANK3   BANK2
  9865 ;;      Params:         0       0       0       0       0
  9866 ;;      Locals:         0       1       0       0       0
  9867 ;;      Temps:          0       1       0       0       0
  9868 ;;      Totals:         0       2       0       0       0
  9869 ;;Total ram usage:        2 bytes
  9870 ;; Hardware stack levels used:    1
  9871 ;; Hardware stack levels required when called:    3
  9872 ;; This function calls:
  9873 ;;		_p1503_cmd_arg
  9874 ;; This function is called by:
  9875 ;;		_protocolo_ver_cmd
  9876 ;; This function uses a non-reentrant model
  9877 ;;
  9878                           psect	text969
  9879                           	file	"p1503.c"
  9880                           	line	167
  9881                           	global	__size_of_p1503_analogico
  9882  0024                     	__size_of_p1503_analogico	equ	__end_of_p1503_analogico-_p1503_analogico
  9883                           	
  9884  1E22                     _p1503_analogico:	
  9885                           	opt	stack 2
  9886                           ; Regs used in _p1503_analogico: [wreg-fsr0h+status,2+status,0+pclath+cstack]
  9887                           ;p1503_analogico@canal stored from wreg
  9888  1E22  1283               	bcf	status, 5	;RP0=0, select bank0
  9889  1E23  1303               	bcf	status, 6	;RP1=0, select bank0
  9890  1E24  00A4               	movwf	(p1503_analogico@canal)
  9891                           	line	170
  9892                           	
  9893  1E25                     l7728:	
  9894                           ;p1503.c: 168: static unsigned char contexto = 0;
  9895                           ;p1503.c: 170: switch(contexto){
  9896  1E25  2E3D               	goto	l7740
  9897                           	line	171
  9898                           ;p1503.c: 171: case 0:
  9899                           	
  9900  1E26                     l4181:	
  9901                           	line	172
  9902                           	
  9903  1E26                     l7730:	
  9904                           ;p1503.c: 172: p1503_cmd_arg('a', canal + '0');
  9905  1E26  0824               	movf	(p1503_analogico@canal),w
  9906  1E27  3E30               	addlw	030h
  9907  1E28  00A3               	movwf	(??_p1503_analogico+0)+0
  9908  1E29  0823               	movf	(??_p1503_analogico+0)+0,w
  9909  1E2A  00A0               	movwf	(?_p1503_cmd_arg)
  9910  1E2B  3061               	movlw	(061h)
  9911  1E2C  160A  158A  2582   	fcall	_p1503_cmd_arg
              160A  158A         
  9912                           	line	173
  9913                           	
  9914  1E31                     l7732:	
  9915                           ;p1503.c: 173: contexto++;
  9916  1E31  3001               	movlw	(01h)
  9917  1E32  1283               	bcf	status, 5	;RP0=0, select bank0
  9918  1E33  1303               	bcf	status, 6	;RP1=0, select bank0
  9919  1E34  00A3               	movwf	(??_p1503_analogico+0)+0
  9920  1E35  0823               	movf	(??_p1503_analogico+0)+0,w
  9921  1E36  07D0               	addwf	(p1503_analogico@contexto),f
  9922                           	line	174
  9923                           ;p1503.c: 174: break;
  9924  1E37  2E45               	goto	l4184
  9925                           	line	175
  9926                           ;p1503.c: 175: case 1:
  9927                           	
  9928  1E38                     l4183:	
  9929                           	line	176
  9930                           ;p1503.c: 176: contexto = 0;
  9931  1E38  01D0               	clrf	(p1503_analogico@contexto)
  9932                           	line	177
  9933                           	
  9934  1E39                     l7734:	
  9935                           ;p1503.c: 177: return p1503.ret;
  9936                           ;	Return value of _p1503_analogico is never used
  9937  1E39  084A               	movf	0+(_p1503)+02h,w	;volatile
  9938  1E3A  2E45               	goto	l4184
  9939                           	
  9940  1E3B                     l7736:	
  9941  1E3B  2E45               	goto	l4184
  9942                           	line	178
  9943                           	
  9944  1E3C                     l7738:	
  9945                           ;p1503.c: 178: }
  9946  1E3C  2E45               	goto	l4184
  9947                           	line	170
  9948                           	
  9949  1E3D                     l4180:	
  9950                           	
  9951  1E3D                     l7740:	
  9952  1E3D  0850               	movf	(p1503_analogico@contexto),w
  9953                           	; Switch size 1, requested type "space"
  9954                           ; Number of cases is 2, Range of values is 0 to 1
  9955                           ; switch strategies available:
  9956                           ; Name         Instructions Cycles
  9957                           ; simple_byte            7     4 (average)
  9958                           ; direct_byte           14     8 (fixed)
  9959                           ; jumptable            260     6 (fixed)
  9960                           ; rangetable             6     6 (fixed)
  9961                           ; spacedrange           10     9 (fixed)
  9962                           ; locatedrange           2     3 (fixed)
  9963                           ;	Chosen strategy is simple_byte
  9964                           
  9965                           	opt asmopt_off
  9966  1E3E  3A00               	xorlw	0^0	; case 0
  9967  1E3F  1903               	skipnz
  9968  1E40  2E26               	goto	l7730
  9969  1E41  3A01               	xorlw	1^0	; case 1
  9970  1E42  1903               	skipnz
  9971  1E43  2E38               	goto	l4183
  9972  1E44  2E45               	goto	l4184
  9973                           	opt asmopt_on
  9974                           
  9975                           	line	178
  9976                           	
  9977  1E45                     l4182:	
  9978                           	line	180
  9979                           ;p1503.c: 179: return 0;
  9980                           ;	Return value of _p1503_analogico is never used
  9981                           	
  9982  1E45                     l4184:	
  9983  1E45  0008               	return
  9984                           	opt stack 0
  9985                           GLOBAL	__end_of_p1503_analogico
  9986  1E46                     	__end_of_p1503_analogico:
  9987 ;; =============== function _p1503_analogico ends ============
  9988                           
  9989                           	signat	_p1503_analogico,4217
  9990                           	global	_printf
  9991                           psect	text970,local,class=CODE,delta=2
  9992                           global __ptext970
  9993  136D                     __ptext970:
  9994                           
  9995 ;; *************** function _printf *****************
  9996 ;; Defined at:
  9997 ;;		line 461 in file "C:\Program Files (x86)\HI-TECH Software\PICC\9.83\lib\doprnt.c"
  9998 ;; Parameters:    Size  Location     Type
  9999 ;;  f               2    8[BANK0 ] PTR const unsigned char 
 10000 ;;		 -> STR_21(23), STR_19(17), STR_17(35), STR_11(16), 
 10001 ;;		 -> STR_10(14), STR_9(7), STR_8(12), STR_7(7), 
 10002 ;; Auto vars:     Size  Location     Type
 10003 ;;  _val            3   20[BANK0 ] struct .
 10004 ;;  width           2   23[BANK0 ] int 
 10005 ;;  c               1   25[BANK0 ] char 
 10006 ;;  ap              1   19[BANK0 ] PTR void [1]
 10007 ;;		 -> ?_printf(2), 
 10008 ;;  prec            1   18[BANK0 ] char 
 10009 ;;  flag            1   17[BANK0 ] unsigned char 
 10010 ;; Return value:  Size  Location     Type
 10011 ;;                  2    8[BANK0 ] int 
 10012 ;; Registers used:
 10013 ;;		wreg, fsr0l, fsr0h, status,2, status,0, btemp+1, pclath, cstack
 10014 ;; Tracked objects:
 10015 ;;		On entry : 0/0
 10016 ;;		On exit  : 0/0
 10017 ;;		Unchanged: 0/0
 10018 ;; Data sizes:     COMMON   BANK0   BANK1   BANK3   BANK2
 10019 ;;      Params:         0       6       0       0       0
 10020 ;;      Locals:         0       9       0       0       0
 10021 ;;      Temps:          0       3       0       0       0
 10022 ;;      Totals:         0      18       0       0       0
 10023 ;;Total ram usage:       18 bytes
 10024 ;; Hardware stack levels used:    1
 10025 ;; Hardware stack levels required when called:    3
 10026 ;; This function calls:
 10027 ;;		_putch
 10028 ;;		_isdigit
 10029 ;;		___wmul
 10030 ;;		___lwdiv
 10031 ;; This function is called by:
 10032 ;;		_protocolo_cmd
 10033 ;;		_protocolo_ver_cmd
 10034 ;;		_protocolo_lcd
 10035 ;; This function uses a non-reentrant model
 10036 ;;
 10037                           psect	text970
 10038                           	file	"C:\Program Files (x86)\HI-TECH Software\PICC\9.83\sources\doprnt.c"
 10039                           	line	461
 10040                           	global	__size_of_printf
 10041  022F                     	__size_of_printf	equ	__end_of_printf-_printf
 10042                           	
 10043  136D                     _printf:	
 10044                           	opt	stack 2
 10045                           ; Regs used in _printf: [wreg-fsr0h+status,2+status,0+btemp+1+pclath+cstack]
 10046                           	line	537
 10047                           	
 10048  136D                     l7626:	
 10049  136D  302A               	movlw	(?_printf+02h)&0ffh
 10050  136E  1283               	bcf	status, 5	;RP0=0, select bank0
 10051  136F  1303               	bcf	status, 6	;RP1=0, select bank0
 10052  1370  00AE               	movwf	(??_printf+0)+0
 10053  1371  082E               	movf	(??_printf+0)+0,w
 10054  1372  00B3               	movwf	(printf@ap)
 10055                           	line	540
 10056  1373  2D7E               	goto	l7726
 10057                           	
 10058  1374                     l4978:	
 10059                           	line	542
 10060                           	
 10061  1374                     l7628:	
 10062  1374  0839               	movf	(printf@c),w
 10063  1375  3A25               	xorlw	025h
 10064  1376  1903               	skipnz
 10065  1377  2B79               	goto	u3091
 10066  1378  2B7A               	goto	u3090
 10067  1379                     u3091:
 10068  1379  2B81               	goto	l7632
 10069  137A                     u3090:
 10070                           	line	545
 10071                           	
 10072  137A                     l7630:	
 10073  137A  0839               	movf	(printf@c),w
 10074  137B  160A  158A  2576   	fcall	_putch
              160A  118A         
 10075                           	line	546
 10076  1380  2D7E               	goto	l7726
 10077                           	line	547
 10078                           	
 10079  1381                     l4979:	
 10080                           	line	550
 10081                           	
 10082  1381                     l7632:	
 10083  1381  1283               	bcf	status, 5	;RP0=0, select bank0
 10084  1382  1303               	bcf	status, 6	;RP1=0, select bank0
 10085  1383  01B7               	clrf	(printf@width)
 10086  1384  01B8               	clrf	(printf@width+1)
 10087                           	line	552
 10088                           	
 10089  1385                     l7634:	
 10090  1385  01B1               	clrf	(printf@flag)
 10091  1386  2B91               	goto	l7640
 10092                           	line	554
 10093                           	
 10094  1387                     l4980:	
 10095                           	line	555
 10096  1387  2B91               	goto	l7640
 10097                           	line	583
 10098                           	
 10099  1388                     l4982:	
 10100                           	line	584
 10101  1388  1531               	bsf	(printf@flag)+(2/8),(2)&7
 10102                           	line	585
 10103                           	
 10104  1389                     l7636:	
 10105  1389  3001               	movlw	low(01h)
 10106  138A  07A8               	addwf	(printf@f),f
 10107  138B  1803               	skipnc
 10108  138C  0AA9               	incf	(printf@f+1),f
 10109  138D  3000               	movlw	high(01h)
 10110  138E  07A9               	addwf	(printf@f+1),f
 10111                           	line	586
 10112  138F  2B91               	goto	l7640
 10113                           	line	588
 10114                           	
 10115  1390                     l7638:	
 10116  1390  2BA0               	goto	l7642
 10117                           	line	555
 10118                           	
 10119  1391                     l4981:	
 10120                           	
 10121  1391                     l7640:	
 10122  1391  0829               	movf	(printf@f+1),w
 10123  1392  00FF               	movwf	btemp+1
 10124  1393  0828               	movf	(printf@f),w
 10125  1394  0084               	movwf	fsr0
 10126  1395  120A  118A  2100   	fcall	stringtab
              160A  118A         
 10127                           	; Switch size 1, requested type "space"
 10128                           ; Number of cases is 1, Range of values is 48 to 48
 10129                           ; switch strategies available:
 10130                           ; Name         Instructions Cycles
 10131                           ; simple_byte            4     3 (average)
 10132                           ; direct_byte           14    11 (fixed)
 10133                           ; jumptable            263     9 (fixed)
 10134                           ;	Chosen strategy is simple_byte
 10135                           
 10136                           	opt asmopt_off
 10137  139A  3A30               	xorlw	48^0	; case 48
 10138  139B  1903               	skipnz
 10139  139C  2B88               	goto	l4982
 10140  139D  2BA0               	goto	l7642
 10141                           	opt asmopt_on
 10142                           
 10143                           	line	588
 10144                           	
 10145  139E                     l4984:	
 10146                           	line	589
 10147  139E  2BA0               	goto	l7642
 10148                           	line	590
 10149                           	
 10150  139F                     l4983:	
 10151  139F  2B91               	goto	l7640
 10152                           	
 10153  13A0                     l4985:	
 10154                           	line	601
 10155                           	
 10156  13A0                     l7642:	
 10157  13A0  0829               	movf	(printf@f+1),w
 10158  13A1  00FF               	movwf	btemp+1
 10159  13A2  0828               	movf	(printf@f),w
 10160  13A3  0084               	movwf	fsr0
 10161  13A4  120A  118A  2100   	fcall	stringtab
              160A  118A         
 10162  13A9  160A  158A  25EB   	fcall	_isdigit
              160A  118A         
 10163  13AE  1C03               	btfss	status,0
 10164  13AF  2BB1               	goto	u3101
 10165  13B0  2BB2               	goto	u3100
 10166  13B1                     u3101:
 10167  13B1  2C69               	goto	l7678
 10168  13B2                     u3100:
 10169                           	line	602
 10170                           	
 10171  13B2                     l7644:	
 10172  13B2  1283               	bcf	status, 5	;RP0=0, select bank0
 10173  13B3  1303               	bcf	status, 6	;RP1=0, select bank0
 10174  13B4  01B7               	clrf	(printf@width)
 10175  13B5  01B8               	clrf	(printf@width+1)
 10176  13B6  2BB7               	goto	l7646
 10177                           	line	603
 10178                           	
 10179  13B7                     l4987:	
 10180                           	line	604
 10181                           	
 10182  13B7                     l7646:	
 10183  13B7  1283               	bcf	status, 5	;RP0=0, select bank0
 10184  13B8  1303               	bcf	status, 6	;RP1=0, select bank0
 10185  13B9  0838               	movf	(printf@width+1),w
 10186  13BA  01A1               	clrf	(?___wmul+1)
 10187  13BB  07A1               	addwf	(?___wmul+1)
 10188  13BC  0837               	movf	(printf@width),w
 10189  13BD  01A0               	clrf	(?___wmul)
 10190  13BE  07A0               	addwf	(?___wmul)
 10191                           
 10192  13BF  300A               	movlw	low(0Ah)
 10193  13C0  00A2               	movwf	0+(?___wmul)+02h
 10194  13C1  3000               	movlw	high(0Ah)
 10195  13C2  00A3               	movwf	(0+(?___wmul)+02h)+1
 10196  13C3  160A  158A  266D   	fcall	___wmul
              160A  118A         
 10197  13C8  1283               	bcf	status, 5	;RP0=0, select bank0
 10198  13C9  1303               	bcf	status, 6	;RP1=0, select bank0
 10199  13CA  0829               	movf	(printf@f+1),w
 10200  13CB  00FF               	movwf	btemp+1
 10201  13CC  0828               	movf	(printf@f),w
 10202  13CD  0084               	movwf	fsr0
 10203  13CE  120A  118A  2100   	fcall	stringtab
              160A  118A         
 10204  13D3  0720               	addwf	(0+(?___wmul)),w
 10205  13D4  00AE               	movwf	(??_printf+0)+0
 10206  13D5  3000               	movlw	0
 10207  13D6  1803               	skipnc
 10208  13D7  3001               	movlw	1
 10209  13D8  0721               	addwf	(1+(?___wmul)),w
 10210  13D9  00AF               	movwf	1+(??_printf+0)+0
 10211  13DA  082E               	movf	0+(??_printf+0)+0,w
 10212  13DB  3ED0               	addlw	low(0FFD0h)
 10213  13DC  00B7               	movwf	(printf@width)
 10214  13DD  082F               	movf	1+(??_printf+0)+0,w
 10215  13DE  1803               	skipnc
 10216  13DF  3E01               	addlw	1
 10217  13E0  3EFF               	addlw	high(0FFD0h)
 10218  13E1  00B8               	movwf	1+(printf@width)
 10219                           	
 10220  13E2                     l7648:	
 10221  13E2  3001               	movlw	low(01h)
 10222  13E3  07A8               	addwf	(printf@f),f
 10223  13E4  1803               	skipnc
 10224  13E5  0AA9               	incf	(printf@f+1),f
 10225  13E6  3000               	movlw	high(01h)
 10226  13E7  07A9               	addwf	(printf@f+1),f
 10227                           	line	605
 10228                           	
 10229  13E8                     l7650:	
 10230  13E8  0829               	movf	(printf@f+1),w
 10231  13E9  00FF               	movwf	btemp+1
 10232  13EA  0828               	movf	(printf@f),w
 10233  13EB  0084               	movwf	fsr0
 10234  13EC  120A  118A  2100   	fcall	stringtab
              160A  118A         
 10235  13F1  160A  158A  25EB   	fcall	_isdigit
              160A  118A         
 10236  13F6  1803               	btfsc	status,0
 10237  13F7  2BF9               	goto	u3111
 10238  13F8  2BFA               	goto	u3110
 10239  13F9                     u3111:
 10240  13F9  2BB7               	goto	l7646
 10241  13FA                     u3110:
 10242  13FA  2C69               	goto	l7678
 10243                           	
 10244  13FB                     l4988:	
 10245  13FB  2C69               	goto	l7678
 10246                           	line	611
 10247                           	
 10248  13FC                     l4986:	
 10249                           	line	638
 10250  13FC  2C69               	goto	l7678
 10251                           	line	640
 10252                           	
 10253  13FD                     l4990:	
 10254                           	line	641
 10255  13FD  2D9B               	goto	l5022
 10256                           	line	721
 10257                           	
 10258  13FE                     l4992:	
 10259                           	line	726
 10260  13FE  2C87               	goto	l7680
 10261                           	line	753
 10262                           	
 10263  13FF                     l4994:	
 10264                           	line	760
 10265                           	
 10266  13FF                     l7652:	
 10267  13FF  1283               	bcf	status, 5	;RP0=0, select bank0
 10268  1400  1303               	bcf	status, 6	;RP1=0, select bank0
 10269  1401  0838               	movf	(printf@width+1),w
 10270  1402  0236               	subwf	1+(printf@_val)+01h,w
 10271  1403  1D03               	skipz
 10272  1404  2C07               	goto	u3125
 10273  1405  0837               	movf	(printf@width),w
 10274  1406  0235               	subwf	0+(printf@_val)+01h,w
 10275  1407                     u3125:
 10276  1407  1803               	skipnc
 10277  1408  2C0A               	goto	u3121
 10278  1409  2C0B               	goto	u3120
 10279  140A                     u3121:
 10280  140A  2C12               	goto	l7656
 10281  140B                     u3120:
 10282                           	line	761
 10283                           	
 10284  140B                     l7654:	
 10285  140B  0835               	movf	0+(printf@_val)+01h,w
 10286  140C  02B7               	subwf	(printf@width),f
 10287  140D  0836               	movf	1+(printf@_val)+01h,w
 10288  140E  1C03               	skipc
 10289  140F  03B8               	decf	(printf@width+1),f
 10290  1410  02B8               	subwf	(printf@width+1),f
 10291  1411  2C1D               	goto	l7660
 10292                           	line	762
 10293                           	
 10294  1412                     l4995:	
 10295                           	line	763
 10296                           	
 10297  1412                     l7656:	
 10298  1412  01B7               	clrf	(printf@width)
 10299  1413  01B8               	clrf	(printf@width+1)
 10300  1414  2C1D               	goto	l7660
 10301                           	
 10302  1415                     l4996:	
 10303                           	line	767
 10304  1415  2C1D               	goto	l7660
 10305                           	
 10306  1416                     l4998:	
 10307                           	line	768
 10308                           	
 10309  1416                     l7658:	
 10310  1416  3020               	movlw	(020h)
 10311  1417  160A  158A  2576   	fcall	_putch
              160A  118A         
 10312  141C  2C1D               	goto	l7660
 10313                           	
 10314  141D                     l4997:	
 10315                           	line	767
 10316                           	
 10317  141D                     l7660:	
 10318  141D  30FF               	movlw	low(-1)
 10319  141E  1283               	bcf	status, 5	;RP0=0, select bank0
 10320  141F  1303               	bcf	status, 6	;RP1=0, select bank0
 10321  1420  07B7               	addwf	(printf@width),f
 10322  1421  1803               	skipnc
 10323  1422  0AB8               	incf	(printf@width+1),f
 10324  1423  30FF               	movlw	high(-1)
 10325  1424  07B8               	addwf	(printf@width+1),f
 10326  1425  30FF               	movlw	high(-1)
 10327  1426  0638               	xorwf	((printf@width+1)),w
 10328  1427  1D03               	skipz
 10329  1428  2C2B               	goto	u3135
 10330  1429  30FF               	movlw	low(-1)
 10331  142A  0637               	xorwf	((printf@width)),w
 10332  142B                     u3135:
 10333                           
 10334  142B  1D03               	skipz
 10335  142C  2C2E               	goto	u3131
 10336  142D  2C2F               	goto	u3130
 10337  142E                     u3131:
 10338  142E  2C16               	goto	l7658
 10339  142F                     u3130:
 10340  142F  2C41               	goto	l7666
 10341                           	
 10342  1430                     l4999:	
 10343                           	line	770
 10344  1430  2C41               	goto	l7666
 10345                           	
 10346  1431                     l5001:	
 10347                           	line	771
 10348                           	
 10349  1431                     l7662:	
 10350  1431  0834               	movf	(printf@_val),w
 10351  1432  0084               	movwf	fsr0
 10352  1433  1383               	bcf	status, 7	;select IRP bank0
 10353  1434  0800               	movf	indf,w
 10354  1435  160A  158A  2576   	fcall	_putch
              160A  118A         
 10355                           	
 10356  143A                     l7664:	
 10357  143A  3001               	movlw	(01h)
 10358  143B  1283               	bcf	status, 5	;RP0=0, select bank0
 10359  143C  1303               	bcf	status, 6	;RP1=0, select bank0
 10360  143D  00AE               	movwf	(??_printf+0)+0
 10361  143E  082E               	movf	(??_printf+0)+0,w
 10362  143F  07B4               	addwf	(printf@_val),f
 10363  1440  2C41               	goto	l7666
 10364                           	
 10365  1441                     l5000:	
 10366                           	line	770
 10367                           	
 10368  1441                     l7666:	
 10369  1441  3001               	movlw	low(01h)
 10370  1442  02B5               	subwf	0+(printf@_val)+01h,f
 10371  1443  3000               	movlw	high(01h)
 10372  1444  1C03               	skipc
 10373  1445  03B6               	decf	1+(printf@_val)+01h,f
 10374  1446  02B6               	subwf	1+(printf@_val)+01h,f
 10375  1447  30FF               	movlw	high(0FFFFh)
 10376  1448  0636               	xorwf	(1+(printf@_val)+01h),w
 10377  1449  1D03               	skipz
 10378  144A  2C4D               	goto	u3145
 10379  144B  30FF               	movlw	low(0FFFFh)
 10380  144C  0635               	xorwf	(0+(printf@_val)+01h),w
 10381  144D                     u3145:
 10382                           
 10383  144D  1D03               	skipz
 10384  144E  2C50               	goto	u3141
 10385  144F  2C51               	goto	u3140
 10386  1450                     u3141:
 10387  1450  2C31               	goto	l7662
 10388  1451                     u3140:
 10389  1451  2D7E               	goto	l7726
 10390                           	
 10391  1452                     l5002:	
 10392                           	line	777
 10393  1452  2D7E               	goto	l7726
 10394                           	line	787
 10395                           	
 10396  1453                     l5003:	
 10397                           	line	802
 10398                           	
 10399  1453                     l7668:	
 10400  1453  0833               	movf	(printf@ap),w
 10401  1454  0084               	movwf	fsr0
 10402  1455  1383               	bcf	status, 7	;select IRP bank0
 10403  1456  0800               	movf	indf,w
 10404  1457  00AE               	movwf	(??_printf+0)+0
 10405  1458  082E               	movf	(??_printf+0)+0,w
 10406  1459  00B9               	movwf	(printf@c)
 10407                           	
 10408  145A                     l7670:	
 10409  145A  3002               	movlw	(02h)
 10410  145B  00AE               	movwf	(??_printf+0)+0
 10411  145C  082E               	movf	(??_printf+0)+0,w
 10412  145D  07B3               	addwf	(printf@ap),f
 10413  145E  2C5F               	goto	l7672
 10414                           	line	805
 10415                           	
 10416  145F                     l5004:	
 10417                           	line	808
 10418                           	
 10419  145F                     l7672:	
 10420  145F  3039               	movlw	(printf@c)&0ffh
 10421  1460  00AE               	movwf	(??_printf+0)+0
 10422  1461  082E               	movf	(??_printf+0)+0,w
 10423  1462  00B4               	movwf	(printf@_val)
 10424                           	line	809
 10425                           	
 10426  1463                     l7674:	
 10427  1463  3001               	movlw	low(01h)
 10428  1464  00B5               	movwf	0+(printf@_val)+01h
 10429  1465  3000               	movlw	high(01h)
 10430  1466  00B6               	movwf	(0+(printf@_val)+01h)+1
 10431                           	line	810
 10432  1467  2BFF               	goto	l7652
 10433                           	line	825
 10434                           	
 10435  1468                     l7676:	
 10436  1468  2C87               	goto	l7680
 10437                           	line	638
 10438                           	
 10439  1469                     l4989:	
 10440                           	
 10441  1469                     l7678:	
 10442  1469  1283               	bcf	status, 5	;RP0=0, select bank0
 10443  146A  1303               	bcf	status, 6	;RP1=0, select bank0
 10444  146B  0829               	movf	(printf@f+1),w
 10445  146C  00AF               	movwf	(??_printf+0)+0+1
 10446  146D  0828               	movf	(printf@f),w
 10447  146E  00AE               	movwf	(??_printf+0)+0
 10448  146F  3001               	movlw	(01h)
 10449  1470  07A8               	addwf	(printf@f),f
 10450  1471  1803               	skipnc
 10451  1472  0AA9               	incf	(printf@f+1),f
 10452  1473  082F               	movf	1+(??_printf+0)+0,w
 10453  1474  00FF               	movwf	btemp+1
 10454  1475  082E               	movf	0+(??_printf+0)+0,w
 10455  1476  0084               	movwf	fsr0
 10456  1477  120A  118A  2100   	fcall	stringtab
              160A  118A         
 10457  147C  00B9               	movwf	(printf@c)
 10458                           	; Switch size 1, requested type "space"
 10459                           ; Number of cases is 3, Range of values is 0 to 120
 10460                           ; switch strategies available:
 10461                           ; Name         Instructions Cycles
 10462                           ; simple_byte           10     6 (average)
 10463                           ; jumptable            260     6 (fixed)
 10464                           ; rangetable           125     6 (fixed)
 10465                           ; spacedrange          248     9 (fixed)
 10466                           ; locatedrange         121     3 (fixed)
 10467                           ;	Chosen strategy is simple_byte
 10468                           
 10469                           	opt asmopt_off
 10470  147D  3A00               	xorlw	0^0	; case 0
 10471  147E  1903               	skipnz
 10472  147F  2D9B               	goto	l5022
 10473  1480  3A63               	xorlw	99^0	; case 99
 10474  1481  1903               	skipnz
 10475  1482  2C53               	goto	l7668
 10476  1483  3A1B               	xorlw	120^99	; case 120
 10477  1484  1903               	skipnz
 10478  1485  2C87               	goto	l7680
 10479  1486  2C5F               	goto	l7672
 10480                           	opt asmopt_on
 10481                           
 10482                           	line	825
 10483                           	
 10484  1487                     l4993:	
 10485                           	line	1281
 10486                           	
 10487  1487                     l7680:	
 10488  1487  1283               	bcf	status, 5	;RP0=0, select bank0
 10489  1488  1303               	bcf	status, 6	;RP1=0, select bank0
 10490  1489  0833               	movf	(printf@ap),w
 10491  148A  0084               	movwf	fsr0
 10492  148B  1383               	bcf	status, 7	;select IRP bank0
 10493  148C  0800               	movf	indf,w
 10494  148D  00B4               	movwf	(printf@_val)
 10495  148E  0A84               	incf	fsr0,f
 10496  148F  0800               	movf	indf,w
 10497  1490  00B5               	movwf	(printf@_val+1)
 10498                           	
 10499  1491                     l7682:	
 10500  1491  3002               	movlw	(02h)
 10501  1492  00AE               	movwf	(??_printf+0)+0
 10502  1493  082E               	movf	(??_printf+0)+0,w
 10503  1494  07B3               	addwf	(printf@ap),f
 10504                           	line	1311
 10505                           	
 10506  1495                     l7684:	
 10507  1495  01B9               	clrf	(printf@c)
 10508  1496  1403               	bsf	status,0
 10509  1497  0DB9               	rlf	(printf@c),f
 10510                           	
 10511  1498                     l7686:	
 10512  1498  0839               	movf	(printf@c),w
 10513  1499  3A04               	xorlw	04h
 10514  149A  1D03               	skipz
 10515  149B  2C9D               	goto	u3151
 10516  149C  2C9E               	goto	u3150
 10517  149D                     u3151:
 10518  149D  2CA0               	goto	l7690
 10519  149E                     u3150:
 10520  149E  2CCC               	goto	l7698
 10521                           	
 10522  149F                     l7688:	
 10523  149F  2CCC               	goto	l7698
 10524                           	line	1312
 10525                           	
 10526  14A0                     l5005:	
 10527                           	
 10528  14A0                     l7690:	
 10529  14A0  0839               	movf	(printf@c),w
 10530  14A1  00AE               	movwf	(??_printf+0)+0
 10531  14A2  072E               	addwf	(??_printf+0)+0,w
 10532  14A3  3E12               	addlw	low(_hexpowers|8000h)
 10533  14A4  0084               	movwf	fsr0
 10534  14A5  3081               	movlw	high(_hexpowers|8000h)
 10535  14A6  1803               	skipnc
 10536  14A7  3E01               	addlw	1
 10537  14A8  00FF               	movwf	btemp+1
 10538  14A9  120A  118A  2100   	fcall	stringtab
              160A  118A         
 10539  14AE  00AF               	movwf	(??_printf+1)+0
 10540  14AF  120A  118A  2100   	fcall	stringtab
              160A  118A         
 10541  14B4  00B0               	movwf	(??_printf+1)+0+1
 10542  14B5  0830               	movf	1+(??_printf+1)+0,w
 10543  14B6  0235               	subwf	(printf@_val+1),w
 10544  14B7  1D03               	skipz
 10545  14B8  2CBB               	goto	u3165
 10546  14B9  082F               	movf	0+(??_printf+1)+0,w
 10547  14BA  0234               	subwf	(printf@_val),w
 10548  14BB                     u3165:
 10549  14BB  1803               	skipnc
 10550  14BC  2CBE               	goto	u3161
 10551  14BD  2CBF               	goto	u3160
 10552  14BE                     u3161:
 10553  14BE  2CC1               	goto	l7694
 10554  14BF                     u3160:
 10555  14BF  2CCC               	goto	l7698
 10556                           	line	1313
 10557                           	
 10558  14C0                     l7692:	
 10559  14C0  2CCC               	goto	l7698
 10560                           	
 10561  14C1                     l5007:	
 10562                           	line	1311
 10563                           	
 10564  14C1                     l7694:	
 10565  14C1  3001               	movlw	(01h)
 10566  14C2  00AE               	movwf	(??_printf+0)+0
 10567  14C3  082E               	movf	(??_printf+0)+0,w
 10568  14C4  07B9               	addwf	(printf@c),f
 10569                           	
 10570  14C5                     l7696:	
 10571  14C5  0839               	movf	(printf@c),w
 10572  14C6  3A04               	xorlw	04h
 10573  14C7  1D03               	skipz
 10574  14C8  2CCA               	goto	u3171
 10575  14C9  2CCB               	goto	u3170
 10576  14CA                     u3171:
 10577  14CA  2CA0               	goto	l7690
 10578  14CB                     u3170:
 10579  14CB  2CCC               	goto	l7698
 10580                           	
 10581  14CC                     l5006:	
 10582                           	line	1376
 10583                           	
 10584  14CC                     l7698:	
 10585  14CC  0839               	movf	(printf@c),w
 10586  14CD  00AE               	movwf	(??_printf+0)+0
 10587  14CE  01AF               	clrf	(??_printf+0)+0+1
 10588  14CF  1BAE               	btfsc	(??_printf+0)+0,7
 10589  14D0  03AF               	decf	(??_printf+0)+0+1,f
 10590  14D1  082F               	movf	1+(??_printf+0)+0,w
 10591  14D2  3A80               	xorlw	80h
 10592  14D3  00B0               	movwf	(??_printf+2)+0
 10593  14D4  0838               	movf	(printf@width+1),w
 10594  14D5  3A80               	xorlw	80h
 10595  14D6  0230               	subwf	(??_printf+2)+0,w
 10596  14D7  1D03               	skipz
 10597  14D8  2CDB               	goto	u3185
 10598  14D9  0837               	movf	(printf@width),w
 10599  14DA  022E               	subwf	0+(??_printf+0)+0,w
 10600  14DB                     u3185:
 10601                           
 10602  14DB  1803               	skipnc
 10603  14DC  2CDE               	goto	u3181
 10604  14DD  2CDF               	goto	u3180
 10605  14DE                     u3181:
 10606  14DE  2CED               	goto	l7702
 10607  14DF                     u3180:
 10608                           	line	1377
 10609                           	
 10610  14DF                     l7700:	
 10611  14DF  1283               	bcf	status, 5	;RP0=0, select bank0
 10612  14E0  1303               	bcf	status, 6	;RP1=0, select bank0
 10613  14E1  0839               	movf	(printf@c),w
 10614  14E2  00AE               	movwf	(??_printf+0)+0
 10615  14E3  01AF               	clrf	(??_printf+0)+0+1
 10616  14E4  1BAE               	btfsc	(??_printf+0)+0,7
 10617  14E5  03AF               	decf	(??_printf+0)+0+1,f
 10618  14E6  082E               	movf	0+(??_printf+0)+0,w
 10619  14E7  02B7               	subwf	(printf@width),f
 10620  14E8  082F               	movf	1+(??_printf+0)+0,w
 10621  14E9  1C03               	skipc
 10622  14EA  03B8               	decf	(printf@width+1),f
 10623  14EB  02B8               	subwf	(printf@width+1),f
 10624  14EC  2CF2               	goto	l7704
 10625                           	line	1378
 10626                           	
 10627  14ED                     l5008:	
 10628                           	line	1379
 10629                           	
 10630  14ED                     l7702:	
 10631  14ED  1283               	bcf	status, 5	;RP0=0, select bank0
 10632  14EE  1303               	bcf	status, 6	;RP1=0, select bank0
 10633  14EF  01B7               	clrf	(printf@width)
 10634  14F0  01B8               	clrf	(printf@width+1)
 10635  14F1  2CF2               	goto	l7704
 10636                           	
 10637  14F2                     l5009:	
 10638                           	line	1382
 10639                           	
 10640  14F2                     l7704:	
 10641  14F2  1D31               	btfss	(printf@flag),(2)&7
 10642  14F3  2CF5               	goto	u3191
 10643  14F4  2CF6               	goto	u3190
 10644  14F5                     u3191:
 10645  14F5  2D14               	goto	l7712
 10646  14F6                     u3190:
 10647                           	line	1410
 10648                           	
 10649  14F6                     l7706:	
 10650  14F6  0838               	movf	(printf@width+1),w
 10651  14F7  0437               	iorwf	(printf@width),w
 10652  14F8  1903               	skipnz
 10653  14F9  2CFB               	goto	u3201
 10654  14FA  2CFC               	goto	u3200
 10655  14FB                     u3201:
 10656  14FB  2D32               	goto	l7718
 10657  14FC                     u3200:
 10658  14FC  2CFD               	goto	l7708
 10659                           	line	1411
 10660                           	
 10661  14FD                     l5012:	
 10662                           	line	1412
 10663                           	
 10664  14FD                     l7708:	
 10665  14FD  3030               	movlw	(030h)
 10666  14FE  160A  158A  2576   	fcall	_putch
              160A  118A         
 10667                           	line	1413
 10668                           	
 10669  1503                     l7710:	
 10670  1503  30FF               	movlw	low(-1)
 10671  1504  1283               	bcf	status, 5	;RP0=0, select bank0
 10672  1505  1303               	bcf	status, 6	;RP1=0, select bank0
 10673  1506  07B7               	addwf	(printf@width),f
 10674  1507  1803               	skipnc
 10675  1508  0AB8               	incf	(printf@width+1),f
 10676  1509  30FF               	movlw	high(-1)
 10677  150A  07B8               	addwf	(printf@width+1),f
 10678  150B  0838               	movf	(((printf@width+1))),w
 10679  150C  0437               	iorwf	(((printf@width))),w
 10680  150D  1D03               	skipz
 10681  150E  2D10               	goto	u3211
 10682  150F  2D11               	goto	u3210
 10683  1510                     u3211:
 10684  1510  2CFD               	goto	l7708
 10685  1511                     u3210:
 10686  1511  2D32               	goto	l7718
 10687                           	
 10688  1512                     l5013:	
 10689  1512  2D32               	goto	l7718
 10690                           	
 10691  1513                     l5011:	
 10692                           	line	1415
 10693  1513  2D32               	goto	l7718
 10694                           	
 10695  1514                     l5010:	
 10696                           	line	1423
 10697                           	
 10698  1514                     l7712:	
 10699  1514  0838               	movf	(printf@width+1),w
 10700  1515  0437               	iorwf	(printf@width),w
 10701  1516  1903               	skipnz
 10702  1517  2D19               	goto	u3221
 10703  1518  2D1A               	goto	u3220
 10704  1519                     u3221:
 10705  1519  2D32               	goto	l7718
 10706  151A                     u3220:
 10707  151A  2D1B               	goto	l7714
 10708                           	line	1424
 10709                           	
 10710  151B                     l5016:	
 10711                           	line	1425
 10712                           	
 10713  151B                     l7714:	
 10714  151B  3020               	movlw	(020h)
 10715  151C  160A  158A  2576   	fcall	_putch
              160A  118A         
 10716                           	line	1426
 10717                           	
 10718  1521                     l7716:	
 10719  1521  30FF               	movlw	low(-1)
 10720  1522  1283               	bcf	status, 5	;RP0=0, select bank0
 10721  1523  1303               	bcf	status, 6	;RP1=0, select bank0
 10722  1524  07B7               	addwf	(printf@width),f
 10723  1525  1803               	skipnc
 10724  1526  0AB8               	incf	(printf@width+1),f
 10725  1527  30FF               	movlw	high(-1)
 10726  1528  07B8               	addwf	(printf@width+1),f
 10727  1529  0838               	movf	(((printf@width+1))),w
 10728  152A  0437               	iorwf	(((printf@width))),w
 10729  152B  1D03               	skipz
 10730  152C  2D2E               	goto	u3231
 10731  152D  2D2F               	goto	u3230
 10732  152E                     u3231:
 10733  152E  2D1B               	goto	l7714
 10734  152F                     u3230:
 10735  152F  2D32               	goto	l7718
 10736                           	
 10737  1530                     l5017:	
 10738  1530  2D32               	goto	l7718
 10739                           	
 10740  1531                     l5015:	
 10741  1531  2D32               	goto	l7718
 10742                           	line	1464
 10743                           	
 10744  1532                     l5014:	
 10745                           	line	1467
 10746                           	
 10747  1532                     l7718:	
 10748  1532  0839               	movf	(printf@c),w
 10749  1533  00AE               	movwf	(??_printf+0)+0
 10750  1534  082E               	movf	(??_printf+0)+0,w
 10751  1535  00B2               	movwf	(printf@prec)
 10752                           	line	1469
 10753  1536  2D70               	goto	l7724
 10754                           	
 10755  1537                     l5019:	
 10756                           	line	1499
 10757                           	
 10758  1537                     l7720:	
 10759  1537  0832               	movf	(printf@prec),w
 10760  1538  00AE               	movwf	(??_printf+0)+0
 10761  1539  072E               	addwf	(??_printf+0)+0,w
 10762  153A  3E12               	addlw	low(_hexpowers|8000h)
 10763  153B  0084               	movwf	fsr0
 10764  153C  3081               	movlw	high(_hexpowers|8000h)
 10765  153D  1803               	skipnc
 10766  153E  3E01               	addlw	1
 10767  153F  00FF               	movwf	btemp+1
 10768  1540  120A  118A  2100   	fcall	stringtab
              160A  118A         
 10769  1545  00A0               	movwf	(?___lwdiv)
 10770  1546  120A  118A  2100   	fcall	stringtab
              160A  118A         
 10771  154B  00A1               	movwf	(?___lwdiv+1)
 10772  154C  0835               	movf	(printf@_val+1),w
 10773  154D  01A3               	clrf	1+(?___lwdiv)+02h
 10774  154E  07A3               	addwf	1+(?___lwdiv)+02h
 10775  154F  0834               	movf	(printf@_val),w
 10776  1550  01A2               	clrf	0+(?___lwdiv)+02h
 10777  1551  07A2               	addwf	0+(?___lwdiv)+02h
 10778                           
 10779  1552  160A  118A  2078   	fcall	___lwdiv
              160A  118A         
 10780  1557  1283               	bcf	status, 5	;RP0=0, select bank0
 10781  1558  1303               	bcf	status, 6	;RP1=0, select bank0
 10782  1559  0820               	movf	(0+(?___lwdiv)),w
 10783  155A  390F               	andlw	0Fh
 10784  155B  3ECE               	addlw	low(STR_37|8000h)
 10785  155C  0084               	movwf	fsr0
 10786  155D  3083               	movlw	high(STR_37|8000h)
 10787  155E  1803               	skipnc
 10788  155F  3E01               	addlw	1
 10789  1560  00FF               	movwf	btemp+1
 10790  1561  120A  118A  2100   	fcall	stringtab
              160A  118A         
 10791  1566  00AF               	movwf	(??_printf+1)+0
 10792  1567  082F               	movf	(??_printf+1)+0,w
 10793  1568  00B9               	movwf	(printf@c)
 10794                           	line	1516
 10795                           	
 10796  1569                     l7722:	
 10797  1569  0839               	movf	(printf@c),w
 10798  156A  160A  158A  2576   	fcall	_putch
              160A  118A         
 10799  156F  2D70               	goto	l7724
 10800                           	line	1517
 10801                           	
 10802  1570                     l5018:	
 10803                           	line	1469
 10804                           	
 10805  1570                     l7724:	
 10806  1570  30FF               	movlw	(-1)
 10807  1571  1283               	bcf	status, 5	;RP0=0, select bank0
 10808  1572  1303               	bcf	status, 6	;RP1=0, select bank0
 10809  1573  00AE               	movwf	(??_printf+0)+0
 10810  1574  082E               	movf	(??_printf+0)+0,w
 10811  1575  07B2               	addwf	(printf@prec),f
 10812  1576  0832               	movf	((printf@prec)),w
 10813  1577  3AFF               	xorlw	-1
 10814  1578  1D03               	skipz
 10815  1579  2D7B               	goto	u3241
 10816  157A  2D7C               	goto	u3240
 10817  157B                     u3241:
 10818  157B  2D37               	goto	l7720
 10819  157C                     u3240:
 10820  157C  2D7E               	goto	l7726
 10821                           	
 10822  157D                     l5020:	
 10823  157D  2D7E               	goto	l7726
 10824                           	line	1525
 10825                           	
 10826  157E                     l4977:	
 10827                           	line	540
 10828                           	
 10829  157E                     l7726:	
 10830  157E  1283               	bcf	status, 5	;RP0=0, select bank0
 10831  157F  1303               	bcf	status, 6	;RP1=0, select bank0
 10832  1580  0829               	movf	(printf@f+1),w
 10833  1581  00AF               	movwf	(??_printf+0)+0+1
 10834  1582  0828               	movf	(printf@f),w
 10835  1583  00AE               	movwf	(??_printf+0)+0
 10836  1584  3001               	movlw	(01h)
 10837  1585  07A8               	addwf	(printf@f),f
 10838  1586  1803               	skipnc
 10839  1587  0AA9               	incf	(printf@f+1),f
 10840  1588  082F               	movf	1+(??_printf+0)+0,w
 10841  1589  00FF               	movwf	btemp+1
 10842  158A  082E               	movf	0+(??_printf+0)+0,w
 10843  158B  0084               	movwf	fsr0
 10844  158C  120A  118A  2100   	fcall	stringtab
              160A  118A         
 10845  1591  00B0               	movwf	(??_printf+2)+0
 10846  1592  0830               	movf	(??_printf+2)+0,w
 10847  1593  00B9               	movwf	(printf@c)
 10848  1594  08B9               	movf	((printf@c)),f
 10849  1595  1D03               	skipz
 10850  1596  2D98               	goto	u3251
 10851  1597  2D99               	goto	u3250
 10852  1598                     u3251:
 10853  1598  2B74               	goto	l7628
 10854  1599                     u3250:
 10855  1599  2D9B               	goto	l5022
 10856                           	
 10857  159A                     l5021:	
 10858  159A  2D9B               	goto	l5022
 10859                           	line	1527
 10860                           	
 10861  159B                     l4991:	
 10862                           	line	1533
 10863                           ;	Return value of _printf is never used
 10864                           	
 10865  159B                     l5022:	
 10866  159B  0008               	return
 10867                           	opt stack 0
 10868                           GLOBAL	__end_of_printf
 10869  159C                     	__end_of_printf:
 10870 ;; =============== function _printf ends ============
 10871                           
 10872                           	signat	_printf,602
 10873                           	global	_uart_tx_soft
 10874                           psect	text971,local,class=CODE,delta=2
 10875                           global __ptext971
 10876  1F3C                     __ptext971:
 10877                           
 10878 ;; *************** function _uart_tx_soft *****************
 10879 ;; Defined at:
 10880 ;;		line 115 in file "uart.c"
 10881 ;; Parameters:    Size  Location     Type
 10882 ;;  data            1    wreg     unsigned char 
 10883 ;; Auto vars:     Size  Location     Type
 10884 ;;  data            1    1[BANK0 ] unsigned char 
 10885 ;;  mask            1    2[BANK0 ] volatile unsigned char 
 10886 ;; Return value:  Size  Location     Type
 10887 ;;		None               void
 10888 ;; Registers used:
 10889 ;;		wreg, status,2, status,0
 10890 ;; Tracked objects:
 10891 ;;		On entry : 0/0
 10892 ;;		On exit  : 0/0
 10893 ;;		Unchanged: 0/0
 10894 ;; Data sizes:     COMMON   BANK0   BANK1   BANK3   BANK2
 10895 ;;      Params:         0       0       0       0       0
 10896 ;;      Locals:         0       2       0       0       0
 10897 ;;      Temps:          0       1       0       0       0
 10898 ;;      Totals:         0       3       0       0       0
 10899 ;;Total ram usage:        3 bytes
 10900 ;; Hardware stack levels used:    1
 10901 ;; Hardware stack levels required when called:    2
 10902 ;; This function calls:
 10903 ;;		Nothing
 10904 ;; This function is called by:
 10905 ;;		_p1503_init
 10906 ;;		_p1503_loop
 10907 ;; This function uses a non-reentrant model
 10908 ;;
 10909                           psect	text971
 10910                           	file	"uart.c"
 10911                           	line	115
 10912                           	global	__size_of_uart_tx_soft
 10913  003B                     	__size_of_uart_tx_soft	equ	__end_of_uart_tx_soft-_uart_tx_soft
 10914                           	
 10915  1F3C                     _uart_tx_soft:	
 10916                           	opt	stack 4
 10917                           ; Regs used in _uart_tx_soft: [wreg+status,2+status,0]
 10918                           ;uart_tx_soft@data stored from wreg
 10919                           	line	119
 10920  1F3C  1283               	bcf	status, 5	;RP0=0, select bank0
 10921  1F3D  1303               	bcf	status, 6	;RP1=0, select bank0
 10922  1F3E  00A1               	movwf	(uart_tx_soft@data)
 10923                           	
 10924  1F3F                     l7604:	
 10925                           ;uart.c: 116: volatile unsigned char mask;
 10926                           ;uart.c: 119: INTCONbits.GIE = 0;
 10927  1F3F  138B               	bcf	(11),7	;volatile
 10928                           	line	121
 10929                           ;uart.c: 121: RB6 = 0;
 10930  1F40  1306               	bcf	(54/8),(54)&7
 10931                           	line	123
 10932                           	
 10933  1F41                     l7606:	
 10934                           ;uart.c: 123: _delay((unsigned long)((188)*(20000000/4000000.0)));
 10935                           	opt asmopt_off
 10936  1F41  30EA               movlw	234
 10937  1F42  00A0               movwf	(??_uart_tx_soft+0)+0,f
 10938  1F43                     u3867:
 10939  1F43  0064               	clrwdt
 10940  1F44  0BA0               decfsz	(??_uart_tx_soft+0)+0,f
 10941  1F45  2F43               	goto	u3867
 10942  1F46  2F47               	nop2	;nop
 10943  1F47  0064               	clrwdt
 10944                           opt asmopt_on
 10945                           
 10946                           	line	124
 10947                           	
 10948  1F48                     l7608:	
 10949                           ;uart.c: 124: for (mask = 0x01; mask > 0; mask <<= 1) {
 10950  1F48  1283               	bcf	status, 5	;RP0=0, select bank0
 10951  1F49  1303               	bcf	status, 6	;RP1=0, select bank0
 10952  1F4A  01A2               	clrf	(uart_tx_soft@mask)	;volatile
 10953  1F4B  1403               	bsf	status,0
 10954  1F4C  0DA2               	rlf	(uart_tx_soft@mask),f	;volatile
 10955                           	
 10956  1F4D                     l7610:	
 10957  1F4D  08A2               	movf	(uart_tx_soft@mask),f
 10958  1F4E  1D03               	skipz	;volatile
 10959  1F4F  2F51               	goto	u3061
 10960  1F50  2F52               	goto	u3060
 10961  1F51                     u3061:
 10962  1F51  2F54               	goto	l7614
 10963  1F52                     u3060:
 10964  1F52  2F6D               	goto	l2242
 10965                           	
 10966  1F53                     l7612:	
 10967  1F53  2F6D               	goto	l2242
 10968                           	
 10969  1F54                     l2241:	
 10970                           	line	125
 10971                           	
 10972  1F54                     l7614:	
 10973                           ;uart.c: 125: if (data & mask) {
 10974  1F54  0821               	movf	(uart_tx_soft@data),w
 10975  1F55  0522               	andwf	(uart_tx_soft@mask),w	;volatile
 10976  1F56  1903               	btfsc	status,2
 10977  1F57  2F59               	goto	u3071
 10978  1F58  2F5A               	goto	u3070
 10979  1F59                     u3071:
 10980  1F59  2F5C               	goto	l2243
 10981  1F5A                     u3070:
 10982                           	line	126
 10983                           	
 10984  1F5A                     l7616:	
 10985                           ;uart.c: 126: RB6 = 1;
 10986  1F5A  1706               	bsf	(54/8),(54)&7
 10987                           	line	127
 10988                           ;uart.c: 127: } else {
 10989  1F5B  2F5E               	goto	l7618
 10990                           	
 10991  1F5C                     l2243:	
 10992                           	line	128
 10993                           ;uart.c: 128: RB6 = 0;
 10994  1F5C  1306               	bcf	(54/8),(54)&7
 10995  1F5D  2F5E               	goto	l7618
 10996                           	line	129
 10997                           	
 10998  1F5E                     l2244:	
 10999                           	line	130
 11000                           	
 11001  1F5E                     l7618:	
 11002                           ;uart.c: 129: }
 11003                           ;uart.c: 130: _delay((unsigned long)((188 + 10)*(20000000/4000000.0)));
 11004                           	opt asmopt_off
 11005  1F5E  30F7               movlw	247
 11006  1F5F  00A0               movwf	(??_uart_tx_soft+0)+0,f
 11007  1F60                     u3877:
 11008  1F60  0064               	clrwdt
 11009  1F61  0BA0               decfsz	(??_uart_tx_soft+0)+0,f
 11010  1F62  2F60               	goto	u3877
 11011  1F63  0064               	clrwdt
 11012                           opt asmopt_on
 11013                           
 11014                           	line	124
 11015  1F64  1003               	clrc
 11016  1F65  1283               	bcf	status, 5	;RP0=0, select bank0
 11017  1F66  1303               	bcf	status, 6	;RP1=0, select bank0
 11018  1F67  0DA2               	rlf	(uart_tx_soft@mask),f	;volatile
 11019                           
 11020                           	
 11021  1F68                     l7620:	
 11022  1F68  08A2               	movf	(uart_tx_soft@mask),f
 11023  1F69  1D03               	skipz	;volatile
 11024  1F6A  2F6C               	goto	u3081
 11025  1F6B  2F6D               	goto	u3080
 11026  1F6C                     u3081:
 11027  1F6C  2F54               	goto	l7614
 11028  1F6D                     u3080:
 11029                           	
 11030  1F6D                     l2242:	
 11031                           	line	133
 11032                           ;uart.c: 131: }
 11033                           ;uart.c: 133: RB6 = 1;
 11034  1F6D  1706               	bsf	(54/8),(54)&7
 11035                           	line	135
 11036                           	
 11037  1F6E                     l7622:	
 11038                           ;uart.c: 135: _delay((unsigned long)((188)*(20000000/4000000.0)));
 11039                           	opt asmopt_off
 11040  1F6E  30EA               movlw	234
 11041  1F6F  00A0               movwf	(??_uart_tx_soft+0)+0,f
 11042  1F70                     u3887:
 11043  1F70  0064               	clrwdt
 11044  1F71  0BA0               decfsz	(??_uart_tx_soft+0)+0,f
 11045  1F72  2F70               	goto	u3887
 11046  1F73  2F74               	nop2	;nop
 11047  1F74  0064               	clrwdt
 11048                           opt asmopt_on
 11049                           
 11050                           	line	138
 11051                           	
 11052  1F75                     l7624:	
 11053                           ;uart.c: 138: INTCONbits.GIE = 1;
 11054  1F75  178B               	bsf	(11),7	;volatile
 11055                           	line	139
 11056                           	
 11057  1F76                     l2245:	
 11058  1F76  0008               	return
 11059                           	opt stack 0
 11060                           GLOBAL	__end_of_uart_tx_soft
 11061  1F77                     	__end_of_uart_tx_soft:
 11062 ;; =============== function _uart_tx_soft ends ============
 11063                           
 11064                           	signat	_uart_tx_soft,4216
 11065                           	global	_lcd_write
 11066                           psect	text972,local,class=CODE,delta=2
 11067                           global __ptext972
 11068  1F03                     __ptext972:
 11069                           
 11070 ;; *************** function _lcd_write *****************
 11071 ;; Defined at:
 11072 ;;		line 27 in file "lcd.c"
 11073 ;; Parameters:    Size  Location     Type
 11074 ;;  c               1    wreg     unsigned char 
 11075 ;; Auto vars:     Size  Location     Type
 11076 ;;  c               1    2[BANK0 ] unsigned char 
 11077 ;; Return value:  Size  Location     Type
 11078 ;;		None               void
 11079 ;; Registers used:
 11080 ;;		wreg, status,2, status,0
 11081 ;; Tracked objects:
 11082 ;;		On entry : 0/0
 11083 ;;		On exit  : 0/0
 11084 ;;		Unchanged: 0/0
 11085 ;; Data sizes:     COMMON   BANK0   BANK1   BANK3   BANK2
 11086 ;;      Params:         0       0       0       0       0
 11087 ;;      Locals:         0       1       0       0       0
 11088 ;;      Temps:          0       2       0       0       0
 11089 ;;      Totals:         0       3       0       0       0
 11090 ;;Total ram usage:        3 bytes
 11091 ;; Hardware stack levels used:    1
 11092 ;; Hardware stack levels required when called:    2
 11093 ;; This function calls:
 11094 ;;		Nothing
 11095 ;; This function is called by:
 11096 ;;		_lcd_clear
 11097 ;;		_lcd_putch
 11098 ;;		_lcd_goto
 11099 ;;		_lcd_init
 11100 ;;		_lcd_novo_char
 11101 ;;		_lcd_cursor_ddram
 11102 ;;		_lcd_puts
 11103 ;;		_lcd_modo
 11104 ;; This function uses a non-reentrant model
 11105 ;;
 11106                           psect	text972
 11107                           	file	"lcd.c"
 11108                           	line	27
 11109                           	global	__size_of_lcd_write
 11110  0039                     	__size_of_lcd_write	equ	__end_of_lcd_write-_lcd_write
 11111                           	
 11112  1F03                     _lcd_write:	
 11113                           	opt	stack 2
 11114                           ; Regs used in _lcd_write: [wreg+status,2+status,0]
 11115                           ;lcd_write@c stored from wreg
 11116  1F03  1283               	bcf	status, 5	;RP0=0, select bank0
 11117  1F04  1303               	bcf	status, 6	;RP1=0, select bank0
 11118  1F05  00A2               	movwf	(lcd_write@c)
 11119                           	line	28
 11120                           	
 11121  1F06                     l7586:	
 11122                           ;lcd.c: 28: _delay((unsigned long)((50)*(20000000/4000000.0)));
 11123                           	opt asmopt_off
 11124  1F06  3053               movlw	83
 11125  1F07  00A0               movwf	(??_lcd_write+0)+0,f
 11126  1F08                     u3897:
 11127  1F08  0BA0               decfsz	(??_lcd_write+0)+0,f
 11128  1F09  2F08               	goto	u3897
 11129                           opt asmopt_on
 11130                           
 11131                           	line	29
 11132                           	
 11133  1F0A                     l7588:	
 11134                           ;lcd.c: 29: PORTB = ((PORTB & 0xF0) | ((c >> 4) & 0x0F));
 11135  1F0A  1283               	bcf	status, 5	;RP0=0, select bank0
 11136  1F0B  1303               	bcf	status, 6	;RP1=0, select bank0
 11137  1F0C  0822               	movf	(lcd_write@c),w
 11138  1F0D  00A0               	movwf	(??_lcd_write+0)+0
 11139  1F0E  3004               	movlw	04h
 11140  1F0F                     u3055:
 11141  1F0F  1003               	clrc
 11142  1F10  0CA0               	rrf	(??_lcd_write+0)+0,f
 11143  1F11  3EFF               	addlw	-1
 11144  1F12  1D03               	skipz
 11145  1F13  2F0F               	goto	u3055
 11146  1F14  300F               	movlw	(0Fh)
 11147  1F15  0520               	andwf	0+(??_lcd_write+0)+0,w
 11148  1F16  00A1               	movwf	(??_lcd_write+1)+0
 11149  1F17  0806               	movf	(6),w
 11150  1F18  39F0               	andlw	0F0h
 11151  1F19  0421               	iorwf	0+(??_lcd_write+1)+0,w
 11152  1F1A  0086               	movwf	(6)	;volatile
 11153                           	line	30
 11154                           	
 11155  1F1B                     l7590:	
 11156                           ;lcd.c: 30: _delay((unsigned long)((10)*(20000000/4000000.0)));
 11157                           	opt asmopt_off
 11158  1F1B  3010               movlw	16
 11159  1F1C  00A0               movwf	(??_lcd_write+0)+0,f
 11160  1F1D                     u3907:
 11161  1F1D  0BA0               decfsz	(??_lcd_write+0)+0,f
 11162  1F1E  2F1D               	goto	u3907
 11163  1F1F  0064               	clrwdt
 11164                           opt asmopt_on
 11165                           
 11166                           	line	31
 11167                           	
 11168  1F20                     l7592:	
 11169                           ;lcd.c: 31: ((RB4 = 1),(RB4=0));
 11170  1F20  1283               	bcf	status, 5	;RP0=0, select bank0
 11171  1F21  1303               	bcf	status, 6	;RP1=0, select bank0
 11172  1F22  1606               	bsf	(52/8),(52)&7
 11173                           	
 11174  1F23                     l7594:	
 11175  1F23  1206               	bcf	(52/8),(52)&7
 11176                           	line	32
 11177                           	
 11178  1F24                     l7596:	
 11179                           ;lcd.c: 32: _delay((unsigned long)((10)*(20000000/4000000.0)));
 11180                           	opt asmopt_off
 11181  1F24  3010               movlw	16
 11182  1F25  00A0               movwf	(??_lcd_write+0)+0,f
 11183  1F26                     u3917:
 11184  1F26  0BA0               decfsz	(??_lcd_write+0)+0,f
 11185  1F27  2F26               	goto	u3917
 11186  1F28  0064               	clrwdt
 11187                           opt asmopt_on
 11188                           
 11189                           	line	33
 11190                           	
 11191  1F29                     l7598:	
 11192                           ;lcd.c: 33: PORTB = ((PORTB & 0xF0) | (c & 0x0F));
 11193  1F29  300F               	movlw	(0Fh)
 11194  1F2A  1283               	bcf	status, 5	;RP0=0, select bank0
 11195  1F2B  1303               	bcf	status, 6	;RP1=0, select bank0
 11196  1F2C  0522               	andwf	(lcd_write@c),w
 11197  1F2D  00A0               	movwf	(??_lcd_write+0)+0
 11198  1F2E  0806               	movf	(6),w
 11199  1F2F  39F0               	andlw	0F0h
 11200  1F30  0420               	iorwf	0+(??_lcd_write+0)+0,w
 11201  1F31  0086               	movwf	(6)	;volatile
 11202                           	line	34
 11203                           ;lcd.c: 34: _delay((unsigned long)((10)*(20000000/4000000.0)));
 11204                           	opt asmopt_off
 11205  1F32  3010               movlw	16
 11206  1F33  00A0               movwf	(??_lcd_write+0)+0,f
 11207  1F34                     u3927:
 11208  1F34  0BA0               decfsz	(??_lcd_write+0)+0,f
 11209  1F35  2F34               	goto	u3927
 11210  1F36  0064               	clrwdt
 11211                           opt asmopt_on
 11212                           
 11213                           	line	35
 11214                           	
 11215  1F37                     l7600:	
 11216                           ;lcd.c: 35: ((RB4 = 1),(RB4=0));
 11217  1F37  1283               	bcf	status, 5	;RP0=0, select bank0
 11218  1F38  1303               	bcf	status, 6	;RP1=0, select bank0
 11219  1F39  1606               	bsf	(52/8),(52)&7
 11220                           	
 11221  1F3A                     l7602:	
 11222  1F3A  1206               	bcf	(52/8),(52)&7
 11223                           	line	36
 11224                           	
 11225  1F3B                     l1564:	
 11226  1F3B  0008               	return
 11227                           	opt stack 0
 11228                           GLOBAL	__end_of_lcd_write
 11229  1F3C                     	__end_of_lcd_write:
 11230 ;; =============== function _lcd_write ends ============
 11231                           
 11232                           	signat	_lcd_write,4216
 11233                           	global	_uart_init
 11234                           psect	text973,local,class=CODE,delta=2
 11235                           global __ptext973
 11236  1DB4                     __ptext973:
 11237                           
 11238 ;; *************** function _uart_init *****************
 11239 ;; Defined at:
 11240 ;;		line 22 in file "uart.c"
 11241 ;; Parameters:    Size  Location     Type
 11242 ;;		None
 11243 ;; Auto vars:     Size  Location     Type
 11244 ;;		None
 11245 ;; Return value:  Size  Location     Type
 11246 ;;		None               void
 11247 ;; Registers used:
 11248 ;;		wreg, status,2, status,0, pclath, cstack
 11249 ;; Tracked objects:
 11250 ;;		On entry : 0/0
 11251 ;;		On exit  : 0/0
 11252 ;;		Unchanged: 0/0
 11253 ;; Data sizes:     COMMON   BANK0   BANK1   BANK3   BANK2
 11254 ;;      Params:         0       0       0       0       0
 11255 ;;      Locals:         0       0       0       0       0
 11256 ;;      Temps:          0       0       0       0       0
 11257 ;;      Totals:         0       0       0       0       0
 11258 ;;Total ram usage:        0 bytes
 11259 ;; Hardware stack levels used:    1
 11260 ;; Hardware stack levels required when called:    3
 11261 ;; This function calls:
 11262 ;;		_uart_init_hardware
 11263 ;;		_uart_init_software
 11264 ;; This function is called by:
 11265 ;;		_main
 11266 ;; This function uses a non-reentrant model
 11267 ;;
 11268                           psect	text973
 11269                           	file	"uart.c"
 11270                           	line	22
 11271                           	global	__size_of_uart_init
 11272  000F                     	__size_of_uart_init	equ	__end_of_uart_init-_uart_init
 11273                           	
 11274  1DB4                     _uart_init:	
 11275                           	opt	stack 4
 11276                           ; Regs used in _uart_init: [wreg+status,2+status,0+pclath+cstack]
 11277                           	line	23
 11278                           	
 11279  1DB4                     l7580:	
 11280                           ;uart.c: 23: (uart.overflow = 0);
 11281  1DB4  1079               	bcf	(_uart),0	;volatile
 11282                           	line	24
 11283                           ;uart.c: 24: (uart.novo = 0);
 11284  1DB5  1179               	bcf	(_uart),2	;volatile
 11285                           	line	25
 11286                           ;uart.c: 25: (uart.proc = 0);
 11287  1DB6  11F9               	bcf	(_uart),3	;volatile
 11288                           	line	26
 11289                           ;uart.c: 26: (uart.soft = 0);
 11290  1DB7  1279               	bcf	(_uart),4	;volatile
 11291                           	line	28
 11292                           	
 11293  1DB8                     l7582:	
 11294                           ;uart.c: 28: uart_init_hardware();
 11295  1DB8  120A  158A  2000   	fcall	_uart_init_hardware
              160A  158A         
 11296                           	line	29
 11297                           	
 11298  1DBD                     l7584:	
 11299                           ;uart.c: 29: uart_init_software();
 11300  1DBD  160A  158A  2561   	fcall	_uart_init_software
              160A  158A         
 11301                           	line	30
 11302                           	
 11303  1DC2                     l2219:	
 11304  1DC2  0008               	return
 11305                           	opt stack 0
 11306                           GLOBAL	__end_of_uart_init
 11307  1DC3                     	__end_of_uart_init:
 11308 ;; =============== function _uart_init ends ============
 11309                           
 11310                           	signat	_uart_init,88
 11311                           	global	___lwdiv
 11312                           psect	text974,local,class=CODE,delta=2
 11313                           global __ptext974
 11314  1078                     __ptext974:
 11315                           
 11316 ;; *************** function ___lwdiv *****************
 11317 ;; Defined at:
 11318 ;;		line 5 in file "C:\Program Files (x86)\HI-TECH Software\PICC\9.83\sources\lwdiv.c"
 11319 ;; Parameters:    Size  Location     Type
 11320 ;;  divisor         2    0[BANK0 ] unsigned int 
 11321 ;;  dividend        2    2[BANK0 ] unsigned int 
 11322 ;; Auto vars:     Size  Location     Type
 11323 ;;  quotient        2    5[BANK0 ] unsigned int 
 11324 ;;  counter         1    7[BANK0 ] unsigned char 
 11325 ;; Return value:  Size  Location     Type
 11326 ;;                  2    0[BANK0 ] unsigned int 
 11327 ;; Registers used:
 11328 ;;		wreg, status,2, status,0
 11329 ;; Tracked objects:
 11330 ;;		On entry : 0/0
 11331 ;;		On exit  : 0/0
 11332 ;;		Unchanged: 0/0
 11333 ;; Data sizes:     COMMON   BANK0   BANK1   BANK3   BANK2
 11334 ;;      Params:         0       4       0       0       0
 11335 ;;      Locals:         0       3       0       0       0
 11336 ;;      Temps:          0       1       0       0       0
 11337 ;;      Totals:         0       8       0       0       0
 11338 ;;Total ram usage:        8 bytes
 11339 ;; Hardware stack levels used:    1
 11340 ;; Hardware stack levels required when called:    2
 11341 ;; This function calls:
 11342 ;;		Nothing
 11343 ;; This function is called by:
 11344 ;;		_printf
 11345 ;; This function uses a non-reentrant model
 11346 ;;
 11347                           psect	text974
 11348                           	file	"C:\Program Files (x86)\HI-TECH Software\PICC\9.83\sources\lwdiv.c"
 11349                           	line	5
 11350                           	global	__size_of___lwdiv
 11351  0050                     	__size_of___lwdiv	equ	__end_of___lwdiv-___lwdiv
 11352                           	
 11353  1078                     ___lwdiv:	
 11354                           	opt	stack 2
 11355                           ; Regs used in ___lwdiv: [wreg+status,2+status,0]
 11356                           	line	9
 11357                           	
 11358  1078                     l7554:	
 11359  1078  1283               	bcf	status, 5	;RP0=0, select bank0
 11360  1079  1303               	bcf	status, 6	;RP1=0, select bank0
 11361  107A  01A5               	clrf	(___lwdiv@quotient)
 11362  107B  01A6               	clrf	(___lwdiv@quotient+1)
 11363                           	line	10
 11364                           	
 11365  107C                     l7556:	
 11366  107C  0821               	movf	(___lwdiv@divisor+1),w
 11367  107D  0420               	iorwf	(___lwdiv@divisor),w
 11368  107E  1903               	skipnz
 11369  107F  2881               	goto	u2981
 11370  1080  2882               	goto	u2980
 11371  1081                     u2981:
 11372  1081  28C0               	goto	l7576
 11373  1082                     u2980:
 11374                           	line	11
 11375                           	
 11376  1082                     l7558:	
 11377  1082  01A7               	clrf	(___lwdiv@counter)
 11378  1083  1403               	bsf	status,0
 11379  1084  0DA7               	rlf	(___lwdiv@counter),f
 11380                           	line	12
 11381  1085  2892               	goto	l7564
 11382                           	
 11383  1086                     l5044:	
 11384                           	line	13
 11385                           	
 11386  1086                     l7560:	
 11387  1086  3001               	movlw	01h
 11388                           	
 11389  1087                     u2995:
 11390  1087  1003               	clrc
 11391  1088  0DA0               	rlf	(___lwdiv@divisor),f
 11392  1089  0DA1               	rlf	(___lwdiv@divisor+1),f
 11393  108A  3EFF               	addlw	-1
 11394  108B  1D03               	skipz
 11395  108C  2887               	goto	u2995
 11396                           	line	14
 11397                           	
 11398  108D                     l7562:	
 11399  108D  3001               	movlw	(01h)
 11400  108E  00A4               	movwf	(??___lwdiv+0)+0
 11401  108F  0824               	movf	(??___lwdiv+0)+0,w
 11402  1090  07A7               	addwf	(___lwdiv@counter),f
 11403  1091  2892               	goto	l7564
 11404                           	line	15
 11405                           	
 11406  1092                     l5043:	
 11407                           	line	12
 11408                           	
 11409  1092                     l7564:	
 11410  1092  1FA1               	btfss	(___lwdiv@divisor+1),(15)&7
 11411  1093  2895               	goto	u3001
 11412  1094  2896               	goto	u3000
 11413  1095                     u3001:
 11414  1095  2886               	goto	l7560
 11415  1096                     u3000:
 11416  1096  2898               	goto	l7566
 11417                           	
 11418  1097                     l5045:	
 11419  1097  2898               	goto	l7566
 11420                           	line	16
 11421                           	
 11422  1098                     l5046:	
 11423                           	line	17
 11424                           	
 11425  1098                     l7566:	
 11426  1098  3001               	movlw	01h
 11427                           	
 11428  1099                     u3015:
 11429  1099  1003               	clrc
 11430  109A  0DA5               	rlf	(___lwdiv@quotient),f
 11431  109B  0DA6               	rlf	(___lwdiv@quotient+1),f
 11432  109C  3EFF               	addlw	-1
 11433  109D  1D03               	skipz
 11434  109E  2899               	goto	u3015
 11435                           	line	18
 11436  109F  0821               	movf	(___lwdiv@divisor+1),w
 11437  10A0  0223               	subwf	(___lwdiv@dividend+1),w
 11438  10A1  1D03               	skipz
 11439  10A2  28A5               	goto	u3025
 11440  10A3  0820               	movf	(___lwdiv@divisor),w
 11441  10A4  0222               	subwf	(___lwdiv@dividend),w
 11442  10A5                     u3025:
 11443  10A5  1C03               	skipc
 11444  10A6  28A8               	goto	u3021
 11445  10A7  28A9               	goto	u3020
 11446  10A8                     u3021:
 11447  10A8  28B1               	goto	l7572
 11448  10A9                     u3020:
 11449                           	line	19
 11450                           	
 11451  10A9                     l7568:	
 11452  10A9  0820               	movf	(___lwdiv@divisor),w
 11453  10AA  02A2               	subwf	(___lwdiv@dividend),f
 11454  10AB  0821               	movf	(___lwdiv@divisor+1),w
 11455  10AC  1C03               	skipc
 11456  10AD  03A3               	decf	(___lwdiv@dividend+1),f
 11457  10AE  02A3               	subwf	(___lwdiv@dividend+1),f
 11458                           	line	20
 11459                           	
 11460  10AF                     l7570:	
 11461  10AF  1425               	bsf	(___lwdiv@quotient)+(0/8),(0)&7
 11462  10B0  28B1               	goto	l7572
 11463                           	line	21
 11464                           	
 11465  10B1                     l5047:	
 11466                           	line	22
 11467                           	
 11468  10B1                     l7572:	
 11469  10B1  3001               	movlw	01h
 11470                           	
 11471  10B2                     u3035:
 11472  10B2  1003               	clrc
 11473  10B3  0CA1               	rrf	(___lwdiv@divisor+1),f
 11474  10B4  0CA0               	rrf	(___lwdiv@divisor),f
 11475  10B5  3EFF               	addlw	-1
 11476  10B6  1D03               	skipz
 11477  10B7  28B2               	goto	u3035
 11478                           	line	23
 11479                           	
 11480  10B8                     l7574:	
 11481  10B8  3001               	movlw	low(01h)
 11482  10B9  02A7               	subwf	(___lwdiv@counter),f
 11483  10BA  1D03               	btfss	status,2
 11484  10BB  28BD               	goto	u3041
 11485  10BC  28BE               	goto	u3040
 11486  10BD                     u3041:
 11487  10BD  2898               	goto	l7566
 11488  10BE                     u3040:
 11489  10BE  28C0               	goto	l7576
 11490                           	
 11491  10BF                     l5048:	
 11492  10BF  28C0               	goto	l7576
 11493                           	line	24
 11494                           	
 11495  10C0                     l5042:	
 11496                           	line	25
 11497                           	
 11498  10C0                     l7576:	
 11499  10C0  0826               	movf	(___lwdiv@quotient+1),w
 11500  10C1  01A1               	clrf	(?___lwdiv+1)
 11501  10C2  07A1               	addwf	(?___lwdiv+1)
 11502  10C3  0825               	movf	(___lwdiv@quotient),w
 11503  10C4  01A0               	clrf	(?___lwdiv)
 11504  10C5  07A0               	addwf	(?___lwdiv)
 11505                           
 11506  10C6  28C7               	goto	l5049
 11507                           	
 11508  10C7                     l7578:	
 11509                           	line	26
 11510                           	
 11511  10C7                     l5049:	
 11512  10C7  0008               	return
 11513                           	opt stack 0
 11514                           GLOBAL	__end_of___lwdiv
 11515  10C8                     	__end_of___lwdiv:
 11516 ;; =============== function ___lwdiv ends ============
 11517                           
 11518                           	signat	___lwdiv,8314
 11519                           	global	___wmul
 11520                           psect	text975,local,class=CODE,delta=2
 11521                           global __ptext975
 11522  1E6D                     __ptext975:
 11523                           
 11524 ;; *************** function ___wmul *****************
 11525 ;; Defined at:
 11526 ;;		line 3 in file "C:\Program Files (x86)\HI-TECH Software\PICC\9.83\sources\wmul.c"
 11527 ;; Parameters:    Size  Location     Type
 11528 ;;  multiplier      2    0[BANK0 ] unsigned int 
 11529 ;;  multiplicand    2    2[BANK0 ] unsigned int 
 11530 ;; Auto vars:     Size  Location     Type
 11531 ;;  product         2    4[BANK0 ] unsigned int 
 11532 ;; Return value:  Size  Location     Type
 11533 ;;                  2    0[BANK0 ] unsigned int 
 11534 ;; Registers used:
 11535 ;;		wreg, status,2, status,0
 11536 ;; Tracked objects:
 11537 ;;		On entry : 0/0
 11538 ;;		On exit  : 0/0
 11539 ;;		Unchanged: 0/0
 11540 ;; Data sizes:     COMMON   BANK0   BANK1   BANK3   BANK2
 11541 ;;      Params:         0       4       0       0       0
 11542 ;;      Locals:         0       2       0       0       0
 11543 ;;      Temps:          0       0       0       0       0
 11544 ;;      Totals:         0       6       0       0       0
 11545 ;;Total ram usage:        6 bytes
 11546 ;; Hardware stack levels used:    1
 11547 ;; Hardware stack levels required when called:    2
 11548 ;; This function calls:
 11549 ;;		Nothing
 11550 ;; This function is called by:
 11551 ;;		_printf
 11552 ;; This function uses a non-reentrant model
 11553 ;;
 11554                           psect	text975
 11555                           	file	"C:\Program Files (x86)\HI-TECH Software\PICC\9.83\sources\wmul.c"
 11556                           	line	3
 11557                           	global	__size_of___wmul
 11558  002C                     	__size_of___wmul	equ	__end_of___wmul-___wmul
 11559                           	
 11560  1E6D                     ___wmul:	
 11561                           	opt	stack 2
 11562                           ; Regs used in ___wmul: [wreg+status,2+status,0]
 11563                           	line	4
 11564                           	
 11565  1E6D                     l7542:	
 11566  1E6D  1283               	bcf	status, 5	;RP0=0, select bank0
 11567  1E6E  1303               	bcf	status, 6	;RP1=0, select bank0
 11568  1E6F  01A4               	clrf	(___wmul@product)
 11569  1E70  01A5               	clrf	(___wmul@product+1)
 11570  1E71  2E72               	goto	l7544
 11571                           	line	6
 11572                           	
 11573  1E72                     l5036:	
 11574                           	line	7
 11575                           	
 11576  1E72                     l7544:	
 11577  1E72  1C20               	btfss	(___wmul@multiplier),(0)&7
 11578  1E73  2E75               	goto	u2941
 11579  1E74  2E76               	goto	u2940
 11580  1E75                     u2941:
 11581  1E75  2E7C               	goto	l5037
 11582  1E76                     u2940:
 11583                           	line	8
 11584                           	
 11585  1E76                     l7546:	
 11586  1E76  0822               	movf	(___wmul@multiplicand),w
 11587  1E77  07A4               	addwf	(___wmul@product),f
 11588  1E78  1803               	skipnc
 11589  1E79  0AA5               	incf	(___wmul@product+1),f
 11590  1E7A  0823               	movf	(___wmul@multiplicand+1),w
 11591  1E7B  07A5               	addwf	(___wmul@product+1),f
 11592                           	
 11593  1E7C                     l5037:	
 11594                           	line	9
 11595  1E7C  3001               	movlw	01h
 11596                           	
 11597  1E7D                     u2955:
 11598  1E7D  1003               	clrc
 11599  1E7E  0DA2               	rlf	(___wmul@multiplicand),f
 11600  1E7F  0DA3               	rlf	(___wmul@multiplicand+1),f
 11601  1E80  3EFF               	addlw	-1
 11602  1E81  1D03               	skipz
 11603  1E82  2E7D               	goto	u2955
 11604                           	line	10
 11605                           	
 11606  1E83                     l7548:	
 11607  1E83  3001               	movlw	01h
 11608                           	
 11609  1E84                     u2965:
 11610  1E84  1003               	clrc
 11611  1E85  0CA1               	rrf	(___wmul@multiplier+1),f
 11612  1E86  0CA0               	rrf	(___wmul@multiplier),f
 11613  1E87  3EFF               	addlw	-1
 11614  1E88  1D03               	skipz
 11615  1E89  2E84               	goto	u2965
 11616                           	line	11
 11617  1E8A  0821               	movf	((___wmul@multiplier+1)),w
 11618  1E8B  0420               	iorwf	((___wmul@multiplier)),w
 11619  1E8C  1D03               	skipz
 11620  1E8D  2E8F               	goto	u2971
 11621  1E8E  2E90               	goto	u2970
 11622  1E8F                     u2971:
 11623  1E8F  2E72               	goto	l7544
 11624  1E90                     u2970:
 11625  1E90  2E91               	goto	l7550
 11626                           	
 11627  1E91                     l5038:	
 11628                           	line	12
 11629                           	
 11630  1E91                     l7550:	
 11631  1E91  0825               	movf	(___wmul@product+1),w
 11632  1E92  01A1               	clrf	(?___wmul+1)
 11633  1E93  07A1               	addwf	(?___wmul+1)
 11634  1E94  0824               	movf	(___wmul@product),w
 11635  1E95  01A0               	clrf	(?___wmul)
 11636  1E96  07A0               	addwf	(?___wmul)
 11637                           
 11638  1E97  2E98               	goto	l5039
 11639                           	
 11640  1E98                     l7552:	
 11641                           	line	13
 11642                           	
 11643  1E98                     l5039:	
 11644  1E98  0008               	return
 11645                           	opt stack 0
 11646                           GLOBAL	__end_of___wmul
 11647  1E99                     	__end_of___wmul:
 11648 ;; =============== function ___wmul ends ============
 11649                           
 11650                           	signat	___wmul,8314
 11651                           	global	_isdigit
 11652                           psect	text976,local,class=CODE,delta=2
 11653                           global __ptext976
 11654  1DEB                     __ptext976:
 11655                           
 11656 ;; *************** function _isdigit *****************
 11657 ;; Defined at:
 11658 ;;		line 13 in file "../../common/isdigit.c"
 11659 ;; Parameters:    Size  Location     Type
 11660 ;;  c               1    wreg     unsigned char 
 11661 ;; Auto vars:     Size  Location     Type
 11662 ;;  c               1    1[BANK0 ] unsigned char 
 11663 ;; Return value:  Size  Location     Type
 11664 ;;		None               void
 11665 ;; Registers used:
 11666 ;;		wreg, status,2, status,0
 11667 ;; Tracked objects:
 11668 ;;		On entry : 0/0
 11669 ;;		On exit  : 0/0
 11670 ;;		Unchanged: 0/0
 11671 ;; Data sizes:     COMMON   BANK0   BANK1   BANK3   BANK2
 11672 ;;      Params:         0       0       0       0       0
 11673 ;;      Locals:         0       2       0       0       0
 11674 ;;      Temps:          0       0       0       0       0
 11675 ;;      Totals:         0       2       0       0       0
 11676 ;;Total ram usage:        2 bytes
 11677 ;; Hardware stack levels used:    1
 11678 ;; Hardware stack levels required when called:    2
 11679 ;; This function calls:
 11680 ;;		Nothing
 11681 ;; This function is called by:
 11682 ;;		_printf
 11683 ;; This function uses a non-reentrant model
 11684 ;;
 11685                           psect	text976
 11686                           	file	"C:\Program Files (x86)\HI-TECH Software\PICC\9.83\sources\isdigit.c"
 11687                           	global	__size_of_isdigit
 11688  0017                     	__size_of_isdigit	equ	__end_of_isdigit-_isdigit
 11689                           	
 11690  1DEB                     _isdigit:	
 11691                           	opt	stack 2
 11692                           ; Regs used in _isdigit: [wreg+status,2+status,0]
 11693                           ;isdigit@c stored from wreg
 11694  1DEB  1283               	bcf	status, 5	;RP0=0, select bank0
 11695  1DEC  1303               	bcf	status, 6	;RP1=0, select bank0
 11696  1DED  00A1               	movwf	(isdigit@c)
 11697                           	line	14
 11698                           	
 11699  1DEE                     l7530:	
 11700  1DEE  01A0               	clrf	(_isdigit$6085)
 11701                           	
 11702  1DEF                     l7532:	
 11703  1DEF  303A               	movlw	(03Ah)
 11704  1DF0  0221               	subwf	(isdigit@c),w
 11705  1DF1  1803               	skipnc
 11706  1DF2  2DF4               	goto	u2921
 11707  1DF3  2DF5               	goto	u2920
 11708  1DF4                     u2921:
 11709  1DF4  2DFF               	goto	l7538
 11710  1DF5                     u2920:
 11711                           	
 11712  1DF5                     l7534:	
 11713  1DF5  3030               	movlw	(030h)
 11714  1DF6  0221               	subwf	(isdigit@c),w
 11715  1DF7  1C03               	skipc
 11716  1DF8  2DFA               	goto	u2931
 11717  1DF9  2DFB               	goto	u2930
 11718  1DFA                     u2931:
 11719  1DFA  2DFF               	goto	l7538
 11720  1DFB                     u2930:
 11721                           	
 11722  1DFB                     l7536:	
 11723  1DFB  01A0               	clrf	(_isdigit$6085)
 11724  1DFC  1403               	bsf	status,0
 11725  1DFD  0DA0               	rlf	(_isdigit$6085),f
 11726  1DFE  2DFF               	goto	l7538
 11727                           	
 11728  1DFF                     l5026:	
 11729                           	
 11730  1DFF                     l7538:	
 11731  1DFF  0C20               	rrf	(_isdigit$6085),w
 11732                           	
 11733  1E00  2E01               	goto	l5027
 11734                           	
 11735  1E01                     l7540:	
 11736                           	line	15
 11737                           	
 11738  1E01                     l5027:	
 11739  1E01  0008               	return
 11740                           	opt stack 0
 11741                           GLOBAL	__end_of_isdigit
 11742  1E02                     	__end_of_isdigit:
 11743 ;; =============== function _isdigit ends ============
 11744                           
 11745                           	signat	_isdigit,4216
 11746                           	global	_p1503_envia_pacote
 11747                           psect	text977,local,class=CODE,delta=2
 11748                           global __ptext977
 11749  1D42                     __ptext977:
 11750                           
 11751 ;; *************** function _p1503_envia_pacote *****************
 11752 ;; Defined at:
 11753 ;;		line 137 in file "p1503.c"
 11754 ;; Parameters:    Size  Location     Type
 11755 ;;		None
 11756 ;; Auto vars:     Size  Location     Type
 11757 ;;		None
 11758 ;; Return value:  Size  Location     Type
 11759 ;;		None               void
 11760 ;; Registers used:
 11761 ;;		wreg
 11762 ;; Tracked objects:
 11763 ;;		On entry : 0/0
 11764 ;;		On exit  : 0/0
 11765 ;;		Unchanged: 0/0
 11766 ;; Data sizes:     COMMON   BANK0   BANK1   BANK3   BANK2
 11767 ;;      Params:         0       0       0       0       0
 11768 ;;      Locals:         0       0       0       0       0
 11769 ;;      Temps:          0       1       0       0       0
 11770 ;;      Totals:         0       1       0       0       0
 11771 ;;Total ram usage:        1 bytes
 11772 ;; Hardware stack levels used:    1
 11773 ;; Hardware stack levels required when called:    2
 11774 ;; This function calls:
 11775 ;;		Nothing
 11776 ;; This function is called by:
 11777 ;;		_p1503_init
 11778 ;; This function uses a non-reentrant model
 11779 ;;
 11780                           psect	text977
 11781                           	file	"p1503.c"
 11782                           	line	137
 11783                           	global	__size_of_p1503_envia_pacote
 11784  0007                     	__size_of_p1503_envia_pacote	equ	__end_of_p1503_envia_pacote-_p1503_envia_pacote
 11785                           	
 11786  1D42                     _p1503_envia_pacote:	
 11787                           	opt	stack 4
 11788                           ; Regs used in _p1503_envia_pacote: [wreg]
 11789                           	line	138
 11790                           	
 11791  1D42                     l7524:	
 11792                           ;p1503.c: 138: p1503.est = 1;
 11793  1D42  3001               	movlw	(01h)
 11794  1D43  1283               	bcf	status, 5	;RP0=0, select bank0
 11795  1D44  1303               	bcf	status, 6	;RP1=0, select bank0
 11796  1D45  00A0               	movwf	(??_p1503_envia_pacote+0)+0
 11797  1D46  0820               	movf	(??_p1503_envia_pacote+0)+0,w
 11798  1D47  00CB               	movwf	0+(_p1503)+03h	;volatile
 11799                           	line	139
 11800                           	
 11801  1D48                     l4169:	
 11802  1D48  0008               	return
 11803                           	opt stack 0
 11804                           GLOBAL	__end_of_p1503_envia_pacote
 11805  1D49                     	__end_of_p1503_envia_pacote:
 11806 ;; =============== function _p1503_envia_pacote ends ============
 11807                           
 11808                           	signat	_p1503_envia_pacote,88
 11809                           	global	_p1503_cmd_arg
 11810                           psect	text978,local,class=CODE,delta=2
 11811                           global __ptext978
 11812  1D82                     __ptext978:
 11813                           
 11814 ;; *************** function _p1503_cmd_arg *****************
 11815 ;; Defined at:
 11816 ;;		line 128 in file "p1503.c"
 11817 ;; Parameters:    Size  Location     Type
 11818 ;;  cmd             1    wreg     unsigned char 
 11819 ;;  arg             1    0[BANK0 ] unsigned char 
 11820 ;; Auto vars:     Size  Location     Type
 11821 ;;  cmd             1    2[BANK0 ] unsigned char 
 11822 ;; Return value:  Size  Location     Type
 11823 ;;		None               void
 11824 ;; Registers used:
 11825 ;;		wreg
 11826 ;; Tracked objects:
 11827 ;;		On entry : 0/0
 11828 ;;		On exit  : 0/0
 11829 ;;		Unchanged: 0/0
 11830 ;; Data sizes:     COMMON   BANK0   BANK1   BANK3   BANK2
 11831 ;;      Params:         0       1       0       0       0
 11832 ;;      Locals:         0       1       0       0       0
 11833 ;;      Temps:          0       1       0       0       0
 11834 ;;      Totals:         0       3       0       0       0
 11835 ;;Total ram usage:        3 bytes
 11836 ;; Hardware stack levels used:    1
 11837 ;; Hardware stack levels required when called:    2
 11838 ;; This function calls:
 11839 ;;		Nothing
 11840 ;; This function is called by:
 11841 ;;		_p1503_init
 11842 ;;		_p1503_analogico
 11843 ;; This function uses a non-reentrant model
 11844 ;;
 11845                           psect	text978
 11846                           	file	"p1503.c"
 11847                           	line	128
 11848                           	global	__size_of_p1503_cmd_arg
 11849  000C                     	__size_of_p1503_cmd_arg	equ	__end_of_p1503_cmd_arg-_p1503_cmd_arg
 11850                           	
 11851  1D82                     _p1503_cmd_arg:	
 11852                           	opt	stack 2
 11853                           ; Regs used in _p1503_cmd_arg: [wreg]
 11854                           ;p1503_cmd_arg@cmd stored from wreg
 11855  1D82  1283               	bcf	status, 5	;RP0=0, select bank0
 11856  1D83  1303               	bcf	status, 6	;RP1=0, select bank0
 11857  1D84  00A2               	movwf	(p1503_cmd_arg@cmd)
 11858                           	line	129
 11859                           	
 11860  1D85                     l7522:	
 11861                           ;p1503.c: 129: p1503.cmd = cmd;
 11862  1D85  0822               	movf	(p1503_cmd_arg@cmd),w
 11863  1D86  00A1               	movwf	(??_p1503_cmd_arg+0)+0
 11864  1D87  0821               	movf	(??_p1503_cmd_arg+0)+0,w
 11865  1D88  00C8               	movwf	(_p1503)	;volatile
 11866                           	line	130
 11867                           ;p1503.c: 130: p1503.arg = arg;
 11868  1D89  0820               	movf	(p1503_cmd_arg@arg),w
 11869  1D8A  00A1               	movwf	(??_p1503_cmd_arg+0)+0
 11870  1D8B  0821               	movf	(??_p1503_cmd_arg+0)+0,w
 11871  1D8C  00C9               	movwf	0+(_p1503)+01h	;volatile
 11872                           	line	131
 11873                           	
 11874  1D8D                     l4166:	
 11875  1D8D  0008               	return
 11876                           	opt stack 0
 11877                           GLOBAL	__end_of_p1503_cmd_arg
 11878  1D8E                     	__end_of_p1503_cmd_arg:
 11879 ;; =============== function _p1503_cmd_arg ends ============
 11880                           
 11881                           	signat	_p1503_cmd_arg,8312
 11882                           	global	_reles_cmd_arg
 11883                           psect	text979,local,class=CODE,delta=2
 11884                           global __ptext979
 11885  1DA7                     __ptext979:
 11886                           
 11887 ;; *************** function _reles_cmd_arg *****************
 11888 ;; Defined at:
 11889 ;;		line 59 in file "reles.c"
 11890 ;; Parameters:    Size  Location     Type
 11891 ;;  cmd             1    wreg     unsigned char 
 11892 ;;  arg             1    0[BANK0 ] unsigned char 
 11893 ;; Auto vars:     Size  Location     Type
 11894 ;;  cmd             1    1[BANK0 ] unsigned char 
 11895 ;; Return value:  Size  Location     Type
 11896 ;;		None               void
 11897 ;; Registers used:
 11898 ;;		wreg
 11899 ;; Tracked objects:
 11900 ;;		On entry : 0/0
 11901 ;;		On exit  : 0/0
 11902 ;;		Unchanged: 0/0
 11903 ;; Data sizes:     COMMON   BANK0   BANK1   BANK3   BANK2
 11904 ;;      Params:         0       1       0       0       0
 11905 ;;      Locals:         0       1       0       0       0
 11906 ;;      Temps:          0       0       0       0       0
 11907 ;;      Totals:         0       2       0       0       0
 11908 ;;Total ram usage:        2 bytes
 11909 ;; Hardware stack levels used:    1
 11910 ;; Hardware stack levels required when called:    2
 11911 ;; This function calls:
 11912 ;;		Nothing
 11913 ;; This function is called by:
 11914 ;;		_protocolo_ver_cmd
 11915 ;; This function uses a non-reentrant model
 11916 ;;
 11917                           psect	text979
 11918                           	file	"reles.c"
 11919                           	line	59
 11920                           	global	__size_of_reles_cmd_arg
 11921  000D                     	__size_of_reles_cmd_arg	equ	__end_of_reles_cmd_arg-_reles_cmd_arg
 11922                           	
 11923  1DA7                     _reles_cmd_arg:	
 11924                           	opt	stack 3
 11925                           ; Regs used in _reles_cmd_arg: [wreg]
 11926                           ;reles_cmd_arg@cmd stored from wreg
 11927  1DA7  1283               	bcf	status, 5	;RP0=0, select bank0
 11928  1DA8  1303               	bcf	status, 6	;RP1=0, select bank0
 11929  1DA9  00A1               	movwf	(reles_cmd_arg@cmd)
 11930                           	line	60
 11931                           	
 11932  1DAA                     l7518:	
 11933                           ;reles.c: 60: if(cmd == 10){ PORTD = arg; }
 11934  1DAA  0821               	movf	(reles_cmd_arg@cmd),w
 11935  1DAB  3A0A               	xorlw	0Ah
 11936  1DAC  1D03               	skipz
 11937  1DAD  2DAF               	goto	u2911
 11938  1DAE  2DB0               	goto	u2910
 11939  1DAF                     u2911:
 11940  1DAF  2DB3               	goto	l3529
 11941  1DB0                     u2910:
 11942                           	
 11943  1DB0                     l7520:	
 11944  1DB0  0820               	movf	(reles_cmd_arg@arg),w
 11945  1DB1  0088               	movwf	(8)	;volatile
 11946  1DB2  2DB3               	goto	l3529
 11947                           	
 11948  1DB3                     l3528:	
 11949                           	line	61
 11950                           	
 11951  1DB3                     l3529:	
 11952  1DB3  0008               	return
 11953                           	opt stack 0
 11954                           GLOBAL	__end_of_reles_cmd_arg
 11955  1DB4                     	__end_of_reles_cmd_arg:
 11956 ;; =============== function _reles_cmd_arg ends ============
 11957                           
 11958                           	signat	_reles_cmd_arg,8312
 11959                           	global	_p1503_barramento
 11960                           psect	text980,local,class=CODE,delta=2
 11961                           global __ptext980
 11962  1D3C                     __ptext980:
 11963                           
 11964 ;; *************** function _p1503_barramento *****************
 11965 ;; Defined at:
 11966 ;;		line 147 in file "p1503.c"
 11967 ;; Parameters:    Size  Location     Type
 11968 ;;		None
 11969 ;; Auto vars:     Size  Location     Type
 11970 ;;		None
 11971 ;; Return value:  Size  Location     Type
 11972 ;;                  1    wreg      unsigned char 
 11973 ;; Registers used:
 11974 ;;		wreg, status,2, status,0
 11975 ;; Tracked objects:
 11976 ;;		On entry : 0/0
 11977 ;;		On exit  : 0/0
 11978 ;;		Unchanged: 0/0
 11979 ;; Data sizes:     COMMON   BANK0   BANK1   BANK3   BANK2
 11980 ;;      Params:         0       0       0       0       0
 11981 ;;      Locals:         0       0       0       0       0
 11982 ;;      Temps:          0       0       0       0       0
 11983 ;;      Totals:         0       0       0       0       0
 11984 ;;Total ram usage:        0 bytes
 11985 ;; Hardware stack levels used:    1
 11986 ;; Hardware stack levels required when called:    2
 11987 ;; This function calls:
 11988 ;;		Nothing
 11989 ;; This function is called by:
 11990 ;;		_protocolo_ver_cmd
 11991 ;; This function uses a non-reentrant model
 11992 ;;
 11993                           psect	text980
 11994                           	file	"p1503.c"
 11995                           	line	147
 11996                           	global	__size_of_p1503_barramento
 11997  0006                     	__size_of_p1503_barramento	equ	__end_of_p1503_barramento-_p1503_barramento
 11998                           	
 11999  1D3C                     _p1503_barramento:	
 12000                           	opt	stack 3
 12001                           ; Regs used in _p1503_barramento: [wreg+status,2+status,0]
 12002                           	line	148
 12003                           	
 12004  1D3C                     l7514:	
 12005                           ;p1503.c: 148: return (unsigned char)p1503.bar;
 12006  1D3C  1283               	bcf	status, 5	;RP0=0, select bank0
 12007  1D3D  1303               	bcf	status, 6	;RP1=0, select bank0
 12008  1D3E  084C               	movf	0+(_p1503)+04h,w	;volatile
 12009  1D3F  3901               	andlw	(1<<1)-1
 12010  1D40  2D41               	goto	l4172
 12011                           	
 12012  1D41                     l7516:	
 12013                           	line	149
 12014                           	
 12015  1D41                     l4172:	
 12016  1D41  0008               	return
 12017                           	opt stack 0
 12018                           GLOBAL	__end_of_p1503_barramento
 12019  1D42                     	__end_of_p1503_barramento:
 12020 ;; =============== function _p1503_barramento ends ============
 12021                           
 12022                           	signat	_p1503_barramento,89
 12023                           	global	_putch
 12024                           psect	text981,local,class=CODE,delta=2
 12025                           global __ptext981
 12026  1D76                     __ptext981:
 12027                           
 12028 ;; *************** function _putch *****************
 12029 ;; Defined at:
 12030 ;;		line 60 in file "uart.c"
 12031 ;; Parameters:    Size  Location     Type
 12032 ;;  byte            1    wreg     unsigned char 
 12033 ;; Auto vars:     Size  Location     Type
 12034 ;;  byte            1    0[BANK0 ] unsigned char 
 12035 ;; Return value:  Size  Location     Type
 12036 ;;		None               void
 12037 ;; Registers used:
 12038 ;;		wreg
 12039 ;; Tracked objects:
 12040 ;;		On entry : 0/0
 12041 ;;		On exit  : 0/0
 12042 ;;		Unchanged: 0/0
 12043 ;; Data sizes:     COMMON   BANK0   BANK1   BANK3   BANK2
 12044 ;;      Params:         0       0       0       0       0
 12045 ;;      Locals:         0       1       0       0       0
 12046 ;;      Temps:          0       0       0       0       0
 12047 ;;      Totals:         0       1       0       0       0
 12048 ;;Total ram usage:        1 bytes
 12049 ;; Hardware stack levels used:    1
 12050 ;; Hardware stack levels required when called:    2
 12051 ;; This function calls:
 12052 ;;		Nothing
 12053 ;; This function is called by:
 12054 ;;		_uart_hard_fim
 12055 ;;		_printf
 12056 ;; This function uses a non-reentrant model
 12057 ;;
 12058                           psect	text981
 12059                           	file	"uart.c"
 12060                           	line	60
 12061                           	global	__size_of_putch
 12062  000C                     	__size_of_putch	equ	__end_of_putch-_putch
 12063                           	
 12064  1D76                     _putch:	
 12065                           	opt	stack 4
 12066                           ; Regs used in _putch: [wreg]
 12067                           ;putch@byte stored from wreg
 12068  1D76  1283               	bcf	status, 5	;RP0=0, select bank0
 12069  1D77  1303               	bcf	status, 6	;RP1=0, select bank0
 12070  1D78  00A0               	movwf	(putch@byte)
 12071                           	line	62
 12072                           	
 12073  1D79                     l7504:	
 12074                           ;uart.c: 62: while (!TXIF){
 12075  1D79  2D7A               	goto	l2228
 12076                           	
 12077  1D7A                     l2229:	
 12078                           	line	64
 12079                           ;uart.c: 63: continue;
 12080                           	
 12081  1D7A                     l2228:	
 12082                           	line	62
 12083  1D7A  1E0C               	btfss	(100/8),(100)&7
 12084  1D7B  2D7D               	goto	u2891
 12085  1D7C  2D7E               	goto	u2890
 12086  1D7D                     u2891:
 12087  1D7D  2D7A               	goto	l2228
 12088  1D7E                     u2890:
 12089  1D7E  2D7F               	goto	l7506
 12090                           	
 12091  1D7F                     l2230:	
 12092                           	line	65
 12093                           	
 12094  1D7F                     l7506:	
 12095                           ;uart.c: 64: }
 12096                           ;uart.c: 65: TXREG = byte;
 12097  1D7F  0820               	movf	(putch@byte),w
 12098  1D80  0099               	movwf	(25)	;volatile
 12099                           	line	66
 12100                           	
 12101  1D81                     l2231:	
 12102  1D81  0008               	return
 12103                           	opt stack 0
 12104                           GLOBAL	__end_of_putch
 12105  1D82                     	__end_of_putch:
 12106 ;; =============== function _putch ends ============
 12107                           
 12108                           	signat	_putch,4216
 12109                           	global	_uart_init_software
 12110                           psect	text982,local,class=CODE,delta=2
 12111                           global __ptext982
 12112  1D61                     __ptext982:
 12113                           
 12114 ;; *************** function _uart_init_software *****************
 12115 ;; Defined at:
 12116 ;;		line 46 in file "uart.c"
 12117 ;; Parameters:    Size  Location     Type
 12118 ;;		None
 12119 ;; Auto vars:     Size  Location     Type
 12120 ;;		None
 12121 ;; Return value:  Size  Location     Type
 12122 ;;		None               void
 12123 ;; Registers used:
 12124 ;;		None
 12125 ;; Tracked objects:
 12126 ;;		On entry : 0/0
 12127 ;;		On exit  : 0/0
 12128 ;;		Unchanged: 0/0
 12129 ;; Data sizes:     COMMON   BANK0   BANK1   BANK3   BANK2
 12130 ;;      Params:         0       0       0       0       0
 12131 ;;      Locals:         0       0       0       0       0
 12132 ;;      Temps:          0       0       0       0       0
 12133 ;;      Totals:         0       0       0       0       0
 12134 ;;Total ram usage:        0 bytes
 12135 ;; Hardware stack levels used:    1
 12136 ;; Hardware stack levels required when called:    2
 12137 ;; This function calls:
 12138 ;;		Nothing
 12139 ;; This function is called by:
 12140 ;;		_uart_init
 12141 ;; This function uses a non-reentrant model
 12142 ;;
 12143                           psect	text982
 12144                           	file	"uart.c"
 12145                           	line	46
 12146                           	global	__size_of_uart_init_software
 12147  000A                     	__size_of_uart_init_software	equ	__end_of_uart_init_software-_uart_init_software
 12148                           	
 12149  1D61                     _uart_init_software:	
 12150                           	opt	stack 4
 12151                           ; Regs used in _uart_init_software: []
 12152                           	line	47
 12153                           	
 12154  1D61                     l7502:	
 12155                           ;uart.c: 47: TRISB6 = 0;
 12156  1D61  1683               	bsf	status, 5	;RP0=1, select bank1
 12157  1D62  1303               	bcf	status, 6	;RP1=0, select bank1
 12158  1D63  1306               	bcf	(1078/8)^080h,(1078)&7
 12159                           	line	48
 12160                           ;uart.c: 48: TRISB5 = 1;
 12161  1D64  1686               	bsf	(1077/8)^080h,(1077)&7
 12162                           	line	50
 12163                           ;uart.c: 50: INTCONbits.RBIE = 1;
 12164  1D65  158B               	bsf	(11),3	;volatile
 12165                           	line	51
 12166                           ;uart.c: 51: INTCONbits.RBIF = 0;
 12167  1D66  100B               	bcf	(11),0	;volatile
 12168                           	line	54
 12169                           ;uart.c: 54: RB6 = 1;
 12170  1D67  1283               	bcf	status, 5	;RP0=0, select bank0
 12171  1D68  1303               	bcf	status, 6	;RP1=0, select bank0
 12172  1D69  1706               	bsf	(54/8),(54)&7
 12173                           	line	55
 12174                           	
 12175  1D6A                     l2225:	
 12176  1D6A  0008               	return
 12177                           	opt stack 0
 12178                           GLOBAL	__end_of_uart_init_software
 12179  1D6B                     	__end_of_uart_init_software:
 12180 ;; =============== function _uart_init_software ends ============
 12181                           
 12182                           	signat	_uart_init_software,88
 12183                           	global	_uart_init_hardware
 12184                           psect	text983,local,class=CODE,delta=2
 12185                           global __ptext983
 12186  0800                     __ptext983:
 12187                           
 12188 ;; *************** function _uart_init_hardware *****************
 12189 ;; Defined at:
 12190 ;;		line 33 in file "uart.c"
 12191 ;; Parameters:    Size  Location     Type
 12192 ;;		None
 12193 ;; Auto vars:     Size  Location     Type
 12194 ;;		None
 12195 ;; Return value:  Size  Location     Type
 12196 ;;		None               void
 12197 ;; Registers used:
 12198 ;;		wreg
 12199 ;; Tracked objects:
 12200 ;;		On entry : 0/0
 12201 ;;		On exit  : 0/0
 12202 ;;		Unchanged: 0/0
 12203 ;; Data sizes:     COMMON   BANK0   BANK1   BANK3   BANK2
 12204 ;;      Params:         0       0       0       0       0
 12205 ;;      Locals:         0       0       0       0       0
 12206 ;;      Temps:          0       0       0       0       0
 12207 ;;      Totals:         0       0       0       0       0
 12208 ;;Total ram usage:        0 bytes
 12209 ;; Hardware stack levels used:    1
 12210 ;; Hardware stack levels required when called:    2
 12211 ;; This function calls:
 12212 ;;		Nothing
 12213 ;; This function is called by:
 12214 ;;		_uart_init
 12215 ;; This function uses a non-reentrant model
 12216 ;;
 12217                           psect	text983
 12218                           	file	"uart.c"
 12219                           	line	33
 12220                           	global	__size_of_uart_init_hardware
 12221  0010                     	__size_of_uart_init_hardware	equ	__end_of_uart_init_hardware-_uart_init_hardware
 12222                           	
 12223  0800                     _uart_init_hardware:	
 12224                           	opt	stack 4
 12225                           ; Regs used in _uart_init_hardware: [wreg]
 12226                           	line	35
 12227                           	
 12228  0800                     l7496:	
 12229                           ;uart.c: 35: TRISC7 = 1;
 12230  0800  1683               	bsf	status, 5	;RP0=1, select bank1
 12231  0801  1303               	bcf	status, 6	;RP1=0, select bank1
 12232  0802  1787               	bsf	(1087/8)^080h,(1087)&7
 12233                           	line	36
 12234                           ;uart.c: 36: TRISC6 = 1;
 12235  0803  1707               	bsf	(1086/8)^080h,(1086)&7
 12236                           	line	37
 12237                           	
 12238  0804                     l7498:	
 12239                           ;uart.c: 37: SPBRG = ((int)(20000000/(64UL * 4800) -1));
 12240  0804  3040               	movlw	(040h)
 12241  0805  0099               	movwf	(153)^080h	;volatile
 12242                           	line	38
 12243                           ;uart.c: 38: RCSTA = (0|0x90);
 12244  0806  3090               	movlw	(090h)
 12245  0807  1283               	bcf	status, 5	;RP0=0, select bank0
 12246  0808  1303               	bcf	status, 6	;RP1=0, select bank0
 12247  0809  0098               	movwf	(24)	;volatile
 12248                           	line	39
 12249                           ;uart.c: 39: TXSTA = (0|0|0x20);
 12250  080A  3020               	movlw	(020h)
 12251  080B  1683               	bsf	status, 5	;RP0=1, select bank1
 12252  080C  1303               	bcf	status, 6	;RP1=0, select bank1
 12253  080D  0098               	movwf	(152)^080h	;volatile
 12254                           	line	42
 12255                           	
 12256  080E                     l7500:	
 12257                           ;uart.c: 42: PIE1bits.RCIE = 1;
 12258  080E  168C               	bsf	(140)^080h,5	;volatile
 12259                           	line	43
 12260                           	
 12261  080F                     l2222:	
 12262  080F  0008               	return
 12263                           	opt stack 0
 12264                           GLOBAL	__end_of_uart_init_hardware
 12265  0810                     	__end_of_uart_init_hardware:
 12266 ;; =============== function _uart_init_hardware ends ============
 12267                           
 12268                           	signat	_uart_init_hardware,88
 12269                           	global	_reles_init
 12270                           psect	text984,local,class=CODE,delta=2
 12271                           global __ptext984
 12272  1D9A                     __ptext984:
 12273                           
 12274 ;; *************** function _reles_init *****************
 12275 ;; Defined at:
 12276 ;;		line 16 in file "reles.c"
 12277 ;; Parameters:    Size  Location     Type
 12278 ;;		None
 12279 ;; Auto vars:     Size  Location     Type
 12280 ;;		None
 12281 ;; Return value:  Size  Location     Type
 12282 ;;		None               void
 12283 ;; Registers used:
 12284 ;;		wreg, status,2
 12285 ;; Tracked objects:
 12286 ;;		On entry : 0/0
 12287 ;;		On exit  : 0/0
 12288 ;;		Unchanged: 0/0
 12289 ;; Data sizes:     COMMON   BANK0   BANK1   BANK3   BANK2
 12290 ;;      Params:         0       0       0       0       0
 12291 ;;      Locals:         0       0       0       0       0
 12292 ;;      Temps:          0       0       0       0       0
 12293 ;;      Totals:         0       0       0       0       0
 12294 ;;Total ram usage:        0 bytes
 12295 ;; Hardware stack levels used:    1
 12296 ;; Hardware stack levels required when called:    2
 12297 ;; This function calls:
 12298 ;;		Nothing
 12299 ;; This function is called by:
 12300 ;;		_main
 12301 ;; This function uses a non-reentrant model
 12302 ;;
 12303                           psect	text984
 12304                           	file	"reles.c"
 12305                           	line	16
 12306                           	global	__size_of_reles_init
 12307  000D                     	__size_of_reles_init	equ	__end_of_reles_init-_reles_init
 12308                           	
 12309  1D9A                     _reles_init:	
 12310                           	opt	stack 5
 12311                           ; Regs used in _reles_init: [wreg+status,2]
 12312                           	line	17
 12313                           	
 12314  1D9A                     l7458:	
 12315                           ;reles.c: 17: ADCON1 = 0x06;
 12316  1D9A  3006               	movlw	(06h)
 12317  1D9B  1683               	bsf	status, 5	;RP0=1, select bank1
 12318  1D9C  1303               	bcf	status, 6	;RP1=0, select bank1
 12319  1D9D  009F               	movwf	(159)^080h	;volatile
 12320                           	line	18
 12321                           	
 12322  1D9E                     l7460:	
 12323                           ;reles.c: 18: PORTD = 0;
 12324  1D9E  1283               	bcf	status, 5	;RP0=0, select bank0
 12325  1D9F  1303               	bcf	status, 6	;RP1=0, select bank0
 12326  1DA0  0188               	clrf	(8)	;volatile
 12327                           	line	19
 12328                           	
 12329  1DA1                     l7462:	
 12330                           ;reles.c: 19: PORTE = 0;
 12331  1DA1  0189               	clrf	(9)	;volatile
 12332                           	line	20
 12333                           	
 12334  1DA2                     l7464:	
 12335                           ;reles.c: 20: TRISD = 0x00;
 12336  1DA2  1683               	bsf	status, 5	;RP0=1, select bank1
 12337  1DA3  1303               	bcf	status, 6	;RP1=0, select bank1
 12338  1DA4  0188               	clrf	(136)^080h	;volatile
 12339                           	line	21
 12340                           	
 12341  1DA5                     l7466:	
 12342                           ;reles.c: 21: TRISE = 0x00;
 12343  1DA5  0189               	clrf	(137)^080h	;volatile
 12344                           	line	22
 12345                           	
 12346  1DA6                     l3525:	
 12347  1DA6  0008               	return
 12348                           	opt stack 0
 12349                           GLOBAL	__end_of_reles_init
 12350  1DA7                     	__end_of_reles_init:
 12351 ;; =============== function _reles_init ends ============
 12352                           
 12353                           	signat	_reles_init,88
 12354                           	global	_debug_init
 12355                           psect	text985,local,class=CODE,delta=2
 12356                           global __ptext985
 12357  1D49                     __ptext985:
 12358                           
 12359 ;; *************** function _debug_init *****************
 12360 ;; Defined at:
 12361 ;;		line 40 in file "debug.c"
 12362 ;; Parameters:    Size  Location     Type
 12363 ;;		None
 12364 ;; Auto vars:     Size  Location     Type
 12365 ;;		None
 12366 ;; Return value:  Size  Location     Type
 12367 ;;		None               void
 12368 ;; Registers used:
 12369 ;;		None
 12370 ;; Tracked objects:
 12371 ;;		On entry : 0/0
 12372 ;;		On exit  : 0/0
 12373 ;;		Unchanged: 0/0
 12374 ;; Data sizes:     COMMON   BANK0   BANK1   BANK3   BANK2
 12375 ;;      Params:         0       0       0       0       0
 12376 ;;      Locals:         0       0       0       0       0
 12377 ;;      Temps:          0       0       0       0       0
 12378 ;;      Totals:         0       0       0       0       0
 12379 ;;Total ram usage:        0 bytes
 12380 ;; Hardware stack levels used:    1
 12381 ;; Hardware stack levels required when called:    2
 12382 ;; This function calls:
 12383 ;;		Nothing
 12384 ;; This function is called by:
 12385 ;;		_main
 12386 ;; This function uses a non-reentrant model
 12387 ;;
 12388                           psect	text985
 12389                           	file	"debug.c"
 12390                           	line	40
 12391                           	global	__size_of_debug_init
 12392  0008                     	__size_of_debug_init	equ	__end_of_debug_init-_debug_init
 12393                           	
 12394  1D49                     _debug_init:	
 12395                           	opt	stack 5
 12396                           ; Regs used in _debug_init: []
 12397                           	line	42
 12398                           	
 12399  1D49                     l7456:	
 12400                           ;debug.c: 42: {(debug.uart = 0); (debug.lcd = 0); (debug.main = 0); (debug.protocolo = 0
                                 ); (debug.rele = 0); };
 12401  1D49  1683               	bsf	status, 5	;RP0=1, select bank1
 12402  1D4A  1303               	bcf	status, 6	;RP1=0, select bank1
 12403  1D4B  1020               	bcf	(_debug)^080h,0	;volatile
 12404  1D4C  10A0               	bcf	(_debug)^080h,1	;volatile
 12405  1D4D  1120               	bcf	(_debug)^080h,2	;volatile
 12406  1D4E  11A0               	bcf	(_debug)^080h,3	;volatile
 12407  1D4F  12A0               	bcf	(_debug)^080h,5	;volatile
 12408                           	line	43
 12409                           	
 12410  1D50                     l2271:	
 12411  1D50  0008               	return
 12412                           	opt stack 0
 12413                           GLOBAL	__end_of_debug_init
 12414  1D51                     	__end_of_debug_init:
 12415 ;; =============== function _debug_init ends ============
 12416                           
 12417                           	signat	_debug_init,88
 12418                           	global	__isr
 12419                           psect	text986,local,class=CODE,delta=2
 12420                           global __ptext986
 12421  1ECD                     __ptext986:
 12422                           
 12423 ;; *************** function __isr *****************
 12424 ;; Defined at:
 12425 ;;		line 55 in file "main.c"
 12426 ;; Parameters:    Size  Location     Type
 12427 ;;		None
 12428 ;; Auto vars:     Size  Location     Type
 12429 ;;		None
 12430 ;; Return value:  Size  Location     Type
 12431 ;;		None               void
 12432 ;; Registers used:
 12433 ;;		wreg, fsr0l, fsr0h, fsr1l, fsr1h, status,2, status,0, btemp+1, pclath, cstack
 12434 ;; Tracked objects:
 12435 ;;		On entry : 0/0
 12436 ;;		On exit  : 0/0
 12437 ;;		Unchanged: 0/0
 12438 ;; Data sizes:     COMMON   BANK0   BANK1   BANK3   BANK2
 12439 ;;      Params:         0       0       0       0       0
 12440 ;;      Locals:         0       0       0       0       0
 12441 ;;      Temps:          5       0       0       0       0
 12442 ;;      Totals:         5       0       0       0       0
 12443 ;;Total ram usage:        5 bytes
 12444 ;; Hardware stack levels used:    1
 12445 ;; Hardware stack levels required when called:    1
 12446 ;; This function calls:
 12447 ;;		_uart_rx_soft
 12448 ;; This function is called by:
 12449 ;;		Interrupt level 1
 12450 ;; This function uses a non-reentrant model
 12451 ;;
 12452                           psect	text986
 12453                           	file	"main.c"
 12454                           	line	55
 12455                           	global	__size_of__isr
 12456  0036                     	__size_of__isr	equ	__end_of__isr-__isr
 12457                           	
 12458  1ECD                     __isr:	
 12459                           	opt	stack 0
 12460                           ; Regs used in __isr: [allreg]
 12461                           psect	intentry,class=CODE,delta=2
 12462                           global __pintentry
 12463  0004                     __pintentry:
 12464                           global interrupt_function
 12465  0004                     interrupt_function:
 12466                           	global saved_w
 12467  007E                     	saved_w	set	btemp+0
 12468  0004  00FE               	movwf	saved_w
 12469  0005  0E03               	swapf	status,w
 12470  0006  00F5               	movwf	(??__isr+1)
 12471  0007  0804               	movf	fsr0,w
 12472  0008  00F6               	movwf	(??__isr+2)
 12473  0009  080A               	movf	pclath,w
 12474  000A  00F7               	movwf	(??__isr+3)
 12475  000B  1283               	bcf	status, 5	;RP0=0, select bank0
 12476  000C  1303               	bcf	status, 6	;RP1=0, select bank0
 12477  000D  087F               	movf	btemp+1,w
 12478  000E  00F8               	movwf	(??__isr+4)
 12479  000F  160A  158A  2ECD   	ljmp	__isr
 12480                           psect	text986
 12481                           	line	57
 12482                           	
 12483  1ECD                     i1l5428:	
 12484                           ;main.c: 57: if(INTCONbits.RBIF){ if (!RB5 && !(uart.soft)) { uart.buffer_soft = uart_rx
                                 _soft(); (uart.soft = 1); } INTCONbits.RBIF = 0; };
 12485  1ECD  1C0B               	btfss	(11),0	;volatile
 12486  1ECE  2ED0               	goto	u1_21
 12487  1ECF  2ED1               	goto	u1_20
 12488  1ED0                     u1_21:
 12489  1ED0  2EE5               	goto	i1l5440
 12490  1ED1                     u1_20:
 12491                           	
 12492  1ED1                     i1l5430:	
 12493  1ED1  1A86               	btfsc	(53/8),(53)&7
 12494  1ED2  2ED4               	goto	u2_21
 12495  1ED3  2ED5               	goto	u2_20
 12496  1ED4                     u2_21:
 12497  1ED4  2EE3               	goto	i1l5438
 12498  1ED5                     u2_20:
 12499                           	
 12500  1ED5                     i1l5432:	
 12501  1ED5  1A79               	btfsc	(_uart),4	;volatile
 12502  1ED6  2ED8               	goto	u3_21
 12503  1ED7  2ED9               	goto	u3_20
 12504  1ED8                     u3_21:
 12505  1ED8  2EE3               	goto	i1l5438
 12506  1ED9                     u3_20:
 12507                           	
 12508  1ED9                     i1l5434:	
 12509  1ED9  160A  118A  2030   	fcall	_uart_rx_soft
              160A  158A         
 12510  1EDE  00F4               	movwf	(??__isr+0)+0
 12511  1EDF  0874               	movf	(??__isr+0)+0,w
 12512  1EE0  00FB               	movwf	0+(_uart)+02h	;volatile
 12513                           	
 12514  1EE1                     i1l5436:	
 12515  1EE1  1679               	bsf	(_uart),4	;volatile
 12516  1EE2  2EE3               	goto	i1l5438
 12517                           	
 12518  1EE3                     i1l796:	
 12519                           	
 12520  1EE3                     i1l5438:	
 12521  1EE3  100B               	bcf	(11),0	;volatile
 12522  1EE4  2EE5               	goto	i1l5440
 12523                           	
 12524  1EE5                     i1l795:	
 12525                           	line	60
 12526                           	
 12527  1EE5                     i1l5440:	
 12528                           ;main.c: 60: if(RCIF){ uart.buffer = RCREG; if(uart.novo == 0){ uart.novo = 1; } else { 
                                 uart.overflow = 1; } RCIF = 0; };
 12529  1EE5  1283               	bcf	status, 5	;RP0=0, select bank0
 12530  1EE6  1303               	bcf	status, 6	;RP1=0, select bank0
 12531  1EE7  1E8C               	btfss	(101/8),(101)&7
 12532  1EE8  2EEA               	goto	u4_21
 12533  1EE9  2EEB               	goto	u4_20
 12534  1EEA                     u4_21:
 12535  1EEA  2EF8               	goto	i1l800
 12536  1EEB                     u4_20:
 12537                           	
 12538  1EEB                     i1l5442:	
 12539  1EEB  081A               	movf	(26),w	;volatile
 12540  1EEC  00F4               	movwf	(??__isr+0)+0
 12541  1EED  0874               	movf	(??__isr+0)+0,w
 12542  1EEE  00FA               	movwf	0+(_uart)+01h	;volatile
 12543                           	
 12544  1EEF                     i1l5444:	
 12545  1EEF  1979               	btfsc	(_uart),2	;volatile
 12546  1EF0  2EF2               	goto	u5_21
 12547  1EF1  2EF3               	goto	u5_20
 12548  1EF2                     u5_21:
 12549  1EF2  2EF5               	goto	i1l798
 12550  1EF3                     u5_20:
 12551                           	
 12552  1EF3                     i1l5446:	
 12553  1EF3  1579               	bsf	(_uart),2	;volatile
 12554  1EF4  2EF6               	goto	i1l799
 12555                           	
 12556  1EF5                     i1l798:	
 12557  1EF5  1479               	bsf	(_uart),0	;volatile
 12558                           	
 12559  1EF6                     i1l799:	
 12560  1EF6  128C               	bcf	(101/8),(101)&7
 12561  1EF7  2EF8               	goto	i1l800
 12562                           	
 12563  1EF8                     i1l797:	
 12564                           	line	64
 12565                           	
 12566  1EF8                     i1l800:	
 12567  1EF8  0878               	movf	(??__isr+4),w
 12568  1EF9  00FF               	movwf	btemp+1
 12569  1EFA  0877               	movf	(??__isr+3),w
 12570  1EFB  008A               	movwf	pclath
 12571  1EFC  0876               	movf	(??__isr+2),w
 12572  1EFD  0084               	movwf	fsr0
 12573  1EFE  0E75               	swapf	(??__isr+1)^0FFFFFF80h,w
 12574  1EFF  0083               	movwf	status
 12575  1F00  0EFE               	swapf	saved_w,f
 12576  1F01  0E7E               	swapf	saved_w,w
 12577  1F02  0009               	retfie
 12578                           	opt stack 0
 12579                           GLOBAL	__end_of__isr
 12580  1F03                     	__end_of__isr:
 12581 ;; =============== function __isr ends ============
 12582                           
 12583                           	signat	__isr,88
 12584                           	global	_uart_rx_soft
 12585                           psect	text987,local,class=CODE,delta=2
 12586                           global __ptext987
 12587  1030                     __ptext987:
 12588                           
 12589 ;; *************** function _uart_rx_soft *****************
 12590 ;; Defined at:
 12591 ;;		line 142 in file "uart.c"
 12592 ;; Parameters:    Size  Location     Type
 12593 ;;		None
 12594 ;; Auto vars:     Size  Location     Type
 12595 ;;  offset          1    3[COMMON] unsigned char 
 12596 ;;  val             1    2[COMMON] unsigned char 
 12597 ;; Return value:  Size  Location     Type
 12598 ;;                  1    wreg      unsigned char 
 12599 ;; Registers used:
 12600 ;;		wreg, status,2, status,0
 12601 ;; Tracked objects:
 12602 ;;		On entry : 0/0
 12603 ;;		On exit  : 0/0
 12604 ;;		Unchanged: 0/0
 12605 ;; Data sizes:     COMMON   BANK0   BANK1   BANK3   BANK2
 12606 ;;      Params:         0       0       0       0       0
 12607 ;;      Locals:         2       0       0       0       0
 12608 ;;      Temps:          2       0       0       0       0
 12609 ;;      Totals:         4       0       0       0       0
 12610 ;;Total ram usage:        4 bytes
 12611 ;; Hardware stack levels used:    1
 12612 ;; This function calls:
 12613 ;;		Nothing
 12614 ;; This function is called by:
 12615 ;;		__isr
 12616 ;; This function uses a non-reentrant model
 12617 ;;
 12618                           psect	text987
 12619                           	file	"uart.c"
 12620                           	line	142
 12621                           	global	__size_of_uart_rx_soft
 12622  0048                     	__size_of_uart_rx_soft	equ	__end_of_uart_rx_soft-_uart_rx_soft
 12623                           	
 12624  1030                     _uart_rx_soft:	
 12625                           	opt	stack 0
 12626                           ; Regs used in _uart_rx_soft: [wreg+status,2+status,0]
 12627                           	line	143
 12628                           	
 12629  1030                     i1l5448:	
 12630                           ;uart.c: 143: unsigned char val = 0;
 12631  1030  01F2               	clrf	(uart_rx_soft@val)
 12632                           	line	144
 12633                           ;uart.c: 144: unsigned char offset = 0;
 12634  1031  01F3               	clrf	(uart_rx_soft@offset)
 12635                           	line	146
 12636                           ;uart.c: 146: if (RB5 == 0) {
 12637  1032  1283               	bcf	status, 5	;RP0=0, select bank0
 12638  1033  1303               	bcf	status, 6	;RP1=0, select bank0
 12639  1034  1A86               	btfsc	(53/8),(53)&7
 12640  1035  2837               	goto	u6_21
 12641  1036  2838               	goto	u6_20
 12642  1037                     u6_21:
 12643  1037  2875               	goto	i1l5466
 12644  1038                     u6_20:
 12645                           	line	150
 12646                           	
 12647  1038                     i1l5450:	
 12648                           ;uart.c: 150: _delay((unsigned long)((94)*(20000000/4000000.0)));
 12649                           	opt asmopt_off
 12650  1038  309C               movlw	156
 12651  1039  00F0               movwf	(??_uart_rx_soft+0)+0,f
 12652  103A                     u393_27:
 12653  103A  0BF0               decfsz	(??_uart_rx_soft+0)+0,f
 12654  103B  283A               	goto	u393_27
 12655  103C  0064               	clrwdt
 12656                           opt asmopt_on
 12657                           
 12658                           	line	151
 12659                           	
 12660  103D                     i1l5452:	
 12661                           ;uart.c: 151: for (offset = 0; offset < 8; offset++) {
 12662  103D  01F3               	clrf	(uart_rx_soft@offset)
 12663  103E  3008               	movlw	(08h)
 12664  103F  0273               	subwf	(uart_rx_soft@offset),w
 12665  1040  1C03               	skipc
 12666  1041  2843               	goto	u7_21
 12667  1042  2844               	goto	u7_20
 12668  1043                     u7_21:
 12669  1043  2846               	goto	i1l5456
 12670  1044                     u7_20:
 12671  1044  2869               	goto	i1l5462
 12672                           	
 12673  1045                     i1l5454:	
 12674  1045  2869               	goto	i1l5462
 12675                           	
 12676  1046                     i1l2249:	
 12677                           	line	152
 12678                           	
 12679  1046                     i1l5456:	
 12680                           ;uart.c: 152: _delay((unsigned long)((188)*(20000000/4000000.0)));
 12681                           	opt asmopt_off
 12682  1046  30EA               movlw	234
 12683  1047  00F0               movwf	(??_uart_rx_soft+0)+0,f
 12684  1048                     u394_27:
 12685  1048  0064               	clrwdt
 12686  1049  0BF0               decfsz	(??_uart_rx_soft+0)+0,f
 12687  104A  2848               	goto	u394_27
 12688  104B  284C               	nop2	;nop
 12689  104C  0064               	clrwdt
 12690                           opt asmopt_on
 12691                           
 12692                           	line	153
 12693                           	
 12694  104D                     i1l5458:	
 12695                           ;uart.c: 153: val |= RB5 << offset;
 12696  104D  3000               	movlw	0
 12697  104E  1283               	bcf	status, 5	;RP0=0, select bank0
 12698  104F  1303               	bcf	status, 6	;RP1=0, select bank0
 12699  1050  1A86               	btfsc	(53/8),(53)&7
 12700  1051  3001               	movlw	1
 12701  1052  00F0               	movwf	(??_uart_rx_soft+0)+0
 12702  1053  0A73               	incf	(uart_rx_soft@offset),w
 12703  1054  2857               	goto	u8_24
 12704  1055                     u8_25:
 12705  1055  1003               	clrc
 12706  1056  0DF0               	rlf	(??_uart_rx_soft+0)+0,f
 12707  1057                     u8_24:
 12708  1057  3EFF               	addlw	-1
 12709  1058  1D03               	skipz
 12710  1059  2855               	goto	u8_25
 12711  105A  0870               	movf	0+(??_uart_rx_soft+0)+0,w
 12712  105B  00F1               	movwf	(??_uart_rx_soft+1)+0
 12713  105C  0871               	movf	(??_uart_rx_soft+1)+0,w
 12714  105D  04F2               	iorwf	(uart_rx_soft@val),f
 12715                           	line	151
 12716                           	
 12717  105E                     i1l5460:	
 12718  105E  3001               	movlw	(01h)
 12719  105F  00F0               	movwf	(??_uart_rx_soft+0)+0
 12720  1060  0870               	movf	(??_uart_rx_soft+0)+0,w
 12721  1061  07F3               	addwf	(uart_rx_soft@offset),f
 12722  1062  3008               	movlw	(08h)
 12723  1063  0273               	subwf	(uart_rx_soft@offset),w
 12724  1064  1C03               	skipc
 12725  1065  2867               	goto	u9_21
 12726  1066  2868               	goto	u9_20
 12727  1067                     u9_21:
 12728  1067  2846               	goto	i1l5456
 12729  1068                     u9_20:
 12730  1068  2869               	goto	i1l5462
 12731                           	
 12732  1069                     i1l2250:	
 12733                           	line	156
 12734                           	
 12735  1069                     i1l5462:	
 12736                           ;uart.c: 154: }
 12737                           ;uart.c: 156: _delay((unsigned long)((188 + 188)*(20000000/4000000.0)));
 12738                           	opt asmopt_off
 12739  1069  3003               movlw	3
 12740  106A  00F1               movwf	((??_uart_rx_soft+0)+0+1),f
 12741  106B  306F               	movlw	111
 12742  106C  00F0               movwf	((??_uart_rx_soft+0)+0),f
 12743  106D                     u395_27:
 12744  106D  0BF0               	decfsz	((??_uart_rx_soft+0)+0),f
 12745  106E  286D               	goto	u395_27
 12746  106F  0BF1               	decfsz	((??_uart_rx_soft+0)+0+1),f
 12747  1070  286D               	goto	u395_27
 12748  1071  2872               	nop2
 12749                           opt asmopt_on
 12750                           
 12751                           	line	157
 12752                           ;uart.c: 157: return val;
 12753  1072  0872               	movf	(uart_rx_soft@val),w
 12754  1073  2877               	goto	i1l2251
 12755                           	
 12756  1074                     i1l5464:	
 12757  1074  2877               	goto	i1l2251
 12758                           	line	158
 12759                           	
 12760  1075                     i1l2248:	
 12761                           	line	159
 12762                           	
 12763  1075                     i1l5466:	
 12764                           ;uart.c: 158: }
 12765                           ;uart.c: 159: return 0xFF;
 12766  1075  30FF               	movlw	(0FFh)
 12767  1076  2877               	goto	i1l2251
 12768                           	
 12769  1077                     i1l5468:	
 12770                           	line	160
 12771                           	
 12772  1077                     i1l2251:	
 12773  1077  0008               	return
 12774                           	opt stack 0
 12775                           GLOBAL	__end_of_uart_rx_soft
 12776  1078                     	__end_of_uart_rx_soft:
 12777 ;; =============== function _uart_rx_soft ends ============
 12778                           
 12779                           	signat	_uart_rx_soft,89
 12780                           psect	text988,local,class=CODE,delta=2
 12781                           global __ptext988
 12782  0000                     __ptext988:
 12783                           	global	btemp
 12784  007E                     	btemp set 07Eh
 12785                           
 12786                           	DABS	1,126,2	;btemp
 12787                           	global	wtemp0
 12788  007E                     	wtemp0 set btemp


HI-TECH Software PICC Macro Assembler V9.83 build 10920 
Symbol Table                                                                                   Mon Jun 25 10:10:24 2012

                   _p1503_init 1FBA                              pc 0002                     _p1503_loop 12CD  
              ??_uart_hard_fim 002D            homem_vira_direita@a 0038            homem_vira_direita@b 0034  
          homem_vira_direita@c 0036               uart_tx_soft@data 0021    __size_of_p1503_envia_pacote 0007  
             uart_tx_soft@mask 0022                             fsr 0004            ___wmul@multiplicand 0022  
                          l810 00FE                            l803 11C8                            l804 11D4  
                          l813 1E21                            l805 11E4                            l806 11E5  
                          l807 11E5                            _GIE 005F                            _RC0 0038  
                          _RC1 0039                            _RB4 0034                            _RB5 0035  
                          _RB6 0036                            _RB7 0037                 ?_lcd_novo_char 0023  
        ??_homem_corre_direita 0031                            fsr0 0004                            indf 0000  
                  lcd_goto@pos 0023       __end_of_main_msg_inicial 00FF                           l2222 080F  
                         l2230 1D7F                           l2231 1D81                  _p1503_cmd_arg 1D82  
                         l2225 1D6A                           l2241 1F54                           l2242 1F6D  
                         l1602 1F9B                           l2234 1164                           l2219 1DC2  
                         l2243 1F5C                           l1603 1FB9                           l1611 110B  
                         l2235 117D                           l2228 1D7A                           l2244 1F5E  
                         l1604 1FB9                           l1612 111C                           l2236 117C  
                         l2229 1D7A                           l2245 1F76                           l2237 1179  
                         l2238 117D                           l2271 1D50                           l2263 07FD  
                         l5000 1441                           l2264 07FD                           l5001 1431  
                         l5010 1514                           l5002 1452                           l5011 1513  
                         l5003 1453                           l1564 1F3B                           l5020 157D  
                         l5012 14FD                           l5004 145F                           l4140 1FFF  
                         l5021 159A                           l5013 1512                           l5005 14A0  
                         l5014 1532                           l5006 14CC                           l5022 159B  
                         l1582 1EBB                           l4150 12E4                           l5015 1531  
                         l5007 14C1                           l1567 1DEA                           l1583 1EA2  
                         l4151 12FA                           l5016 151B                           l5008 14ED  
                         l1576 1D75                           l1584 1ECC                           l4160 1333  
                         l4152 12F3                           l5017 1530                           l5009 14F2  
                         l1585 1ECC                           l4145 136C                           l4161 1335  
                         l4153 12F8                           l5026 1DFF                           l5042 10C0  
                         l5018 1570                           l4146 1357                           l4162 1353  
                         l4154 130A                           l5027 1E01                           l5043 1092  
                         l5019 1537                           l1579 1D99                           l4155 1309  
                         l4147 12D5                           l4163 136C                           l4172 1D41  
                         l5036 1E72                           l5044 1086                           l4180 1E3D  
                         l1588 1254                           l4148 136B                           l4156 130B  
                         l2900 00AA                           l3525 1DA6                           l5037 1E7C  
                         l5045 1097                           l4181 1E26                           l4157 1319  
                         l4149 12D6                           l2901 00AB                           l4166 1D8D  
                         l5038 1E91                           l5046 1098                           l4182 1E45  
                         l4158 1324                           l2910 0833                           l2902 00BC  
                         l5039 1E98                           l5047 10B1                           l4183 1E38  
                         l4159 1334                           l2911 0840                           l3528 1DB3  
                         l5048 10BF                           l4184 1E45                           l2920 08D9  
                         l2912 087A                           l3529 1DB3                           l4169 1D48  
                         l5049 10C7                           l2905 090D                           l2921 08EA  
                         l2913 0887                           l2930 12B9                           l2914 0892  
                         l2922 0938                           l2906 0811                           l2907 0938  
                         l2915 0899                           l2916 089A                           l2908 0819  
                         l2925 1265                           l2917 08A7                           l2909 0826  
                         l2926 12CC                           l2918 08B0                           l2927 12A0  
                         l2919 08B8                           l2928 127E                           l8000 09BE  
                         l2929 12CC                           l8010 09E9                           l8002 09C9  
                         l2890 00C8                           l2891 0016                           l8100 0B94  
                         l8020 0A0F                           l8012 09EF                           l8004 09CF  
                         l2892 001C                           l2893 00D6                           l8110 0BC3  
                         l8102 0B9F                           l8030 0A41                           l8022 0A18  
                         l8014 09F8                           l8006 09D8                           l2894 002C  
                         l2895 0060                           l8120 0BFB                           l8112 0BC8  
                         l8104 0BA5                           l8040 0A7D                           l8032 0A4D  
                         l8024 0A1E                           l8016 09FE                           l8008 09DE  
                         l8200 166E                           l2896 00D6                           l2897 0061  
                         l8130 0C30                           l8122 0C07                           l8114 0BD7  
                         l8106 0BAE                           l8050 0AA9                           l8042 0A89  
                         l8034 0A59                           l8026 0A2D                           l8018 0A09  
                         l8210 1704                           l8202 167D                           l2898 0067  
                         l2899 0076                           l7500 080E                           l8140 0C59  
                         l8132 0C39                           l8124 0C13                           l8116 0BE3  
                         l8108 0BB4                           l8060 0AD4                           l8052 0AB4  
                         l8044 0A94                           l8036 0A65                           l8028 0A32  
                         l8220 1739                           l8212 1713                           l8204 16E4  
                         l8300 0D6F                           l7502 1D61                           l8150 0C7F  
                         l8142 0C5F                           l8134 0C3F                           l8126 0C1F  
                         l8118 0BEF                           l8070 0AFD                           l8062 0ADA  
                         l8054 0ABA                           l8046 0A9A                           l8038 0A71  
                         l4950 0C9B                           l8230 1778                           l8222 1748  
                         l8214 1719                           l8206 16EA                           l8310 0D98  
                         l8302 0D75                           l7504 1D79                           l7520 1DB0  
                         l7600 1F37                           l8152 0C94                           l8144 0C6A  
                         l8136 0C4A                           l8128 0C2A                           l8080 0B3C  
                         l8072 0B0C                           l8064 0AE3                           l8056 0AC3  
                         l8048 0AA3                           l8240 17AA                           l8232 1784  
                         l8224 1754                           l8216 172A                           l8208 16F9  
                         l8160 15B2                           l8400 0F55                           l8320 0DD7  
                         l8312 0DA7                           l8304 0D7E                           l4945 07D5  
                         l4953 17FF                           l4961 070B                           l7506 1D7F  
                         l7514 1D3C                           l7522 1D85                           l7530 1DEE  
                         l7602 1F3A                           l7610 1F4D                           l8146 0C70  
                         l8138 0C50                           l8090 0B6E                           l8082 0B48  
                         l8074 0B18                           l8066 0AE9                           l8058 0AC9  
                         l8250 17D0                           l8242 17B0                           l8234 1790  
                         l8226 1760                           l8218 1733                           l8170 15EA  
                         l8162 15B7                           l8154 159C                           l8410 0F90  
                         l8402 0F61                           l8330 0E09                           l8322 0DE3  
                         l8314 0DB3                           l8306 0D84                           l7460 1D9E  
                         l7516 1D41                           l7524 1D42                           l7540 1E01  
                         l7532 1DEF                           l7620 1F68                           l7612 1F53  
                         l7604 1F3F                           l7700 14DF                           l4980 1387  
                         l8148 0C79                           l8092 0B74                           l8084 0B54  
                         l8076 0B24                           l8068 0AF8                           l4948 0944  
                         l8252 17DB                           l8244 17BB                           l8236 179B  
                         l8228 176C                           l8180 161F                           l8172 15F6  
                         l8164 15C6                           l8156 15A2                           l8420 0FB6  
                         l8412 0F96                           l8404 0F6D                           l8340 0E2F  
                         l8332 0E0F                           l8324 0DEF                           l8316 0DBF  
                         l8308 0D93                           l4956 0CAA                           l8260 0C9C  
                         l8500 063F                           l4964 102F                           l4981 1391  
                         l4949 0C9B                           l4957 0FFF                           l7462 1DA1  
                         l7518 1DAA                           l7534 1DF5                           l7550 1E91  
                         l7542 1E6D                           l7622 1F6E                           l7614 1F54  
                         l7606 1F41                           l7710 1503                           l7702 14ED  
                         l4990 13FD                           l4982 1388                           l7630 137A  
                         l8094 0B7F                           l8086 0B5F                           l8078 0B30  
                         l8254 17E1                           l8246 17C1                           l8238 17A1  
                         l8190 1648                           l8182 1628                           l8174 1602  
                         l8166 15D2                           l8158 15AA                           l8430 0FDF  
                         l8422 0FBF                           l8414 0F9F                           l8406 0F79  
                         l8350 0E5E                           l8342 0E3A                           l8334 0E1A  
                         l8326 0DFA                           l8318 0DCB                           l8270 0CDC  
                         l8262 0CA9                           l4958 0FFF                           l8510 0678  
                         l8502 0645                           l4991 159B                           l4983 139F  
                         l7456 1D49                           l7464 1DA2                           l7536 1DFB  
                         l7552 1E98                           l7544 1E72                           l7560 1086  
                         l7624 1F75                           l7616 1F5A                           l7608 1F48  
                         l7720 1537                           l7712 1514                           l7704 14F2  
                         l4992 13FE                           l4984 139E                           l7640 1391  
                         l7632 1381                           l7800 1D91                           l8096 0B85  
                         l8088 0B65                           l8256 17EA                           l8248 17CA  
                         l8192 164E                           l8184 162E                           l8176 160E  
                         l8168 15DE                           l8432 0FE5                           l8424 0FC5  
                         l8416 0FA5                           l8408 0F85                           l8360 0E96  
                         l8352 0E63                           l8344 0E40                           l8336 0E20  
                         l8328 0E00                           l8280 0D18                           l8272 0CE8  
                         l8264 0CAA                           l8520 06AD                           l8512 0684  
                         l8504 0654                           l8440 04B6                           l8600 0840  
                         l4977 157E                           l4993 1487                           l4985 13A0  
                         l7466 1DA5                           l7458 1D9A                           l7538 1DFF  
                         l7546 1E76                           l7570 10AF                           l7562 108D  
                         l7554 1078                           l7618 1F5E                           l7722 1569  
                         l7714 151B                           l7706 14F6                           l4994 13FF  
                         l4986 13FC                           l7650 13E8                           l7642 13A0  
                         l7634 1385                           l4978 1374                           l7626 136D  
                         l7730 1E26                           l7802 1D92                           l7810 11F8  
                         l8098 0B8E                           l8258 17F0                           l8194 1659  
                         l8186 1639                           l8178 1619                           l8434 0FF8  
                         l8426 0FD0                           l8418 0FB0                           l8370 0ECB  
                         l8362 0EA2                           l8354 0E72                           l8346 0E49  
                         l8338 0E29                           l8290 0D44                           l8282 0D24  
                         l8274 0CF4                           l8266 0CC8                           l8530 06D6  
                         l8522 06B6                           l8514 0690                           l8506 0660  
                         l8450 04EA                           l8442 04BE                           l8610 089A  
                         l8602 087A                           l4995 1412                           l4987 13B7  
                         l4979 1381                           l7548 1E83                           l7572 10B1  
                         l7564 1092                           l7556 107C                           l7580 1DB4  
                         l7724 1570                           l7716 1521                           l7708 14FD  
                         l4996 1415                           l7660 141D                           l7652 13FF  
                         l4988 13FB                           l7644 13B2                           l7636 1389  
                         l7628 1374                           l7732 1E31                           l7740 1E3D  
                         l7820 1212                           l7812 1201                           l7804 11E8  
                         l7900 1339                           l8196 165F                           l8188 163F  
                         l8428 0FD6                           l8380 0EF4                           l8372 0ED4  
                         l8364 0EAE                           l8356 0E7E                           l8348 0E4F  
                         l8292 0D4F                           l8284 0D2F                           l8276 0D00  
                         l8268 0CCD                           l8540 06FC                           l8532 06DC  
                         l8524 06BC                           l8516 069C                           l8508 066C  
                         l8460 0525                           l8452 04F6                           l8444 04C3  
                         l8436 04A8                           l8620 090C                           l8612 08B8  
                         l8604 0880                           l8700 11CE                           l4989 1469  
                         l4997 141D                           l7574 10B8                           l7566 1098  
                         l7558 1082                           l7582 1DB8                           l7590 1F1B  
                         l7718 1532                           l7670 145A                           l7662 1431  
                         l4998 1416                           l7654 140B                           l7646 13B7  
                         l7638 1390                           l7726 157E                           l7734 1E39  
                         l7750 1FD7                           l7742 1FBA                           l7830 1223  
                         l7822 1215                           l7814 1207                           l7806 11F6  
                         l7902 1343                           l7910 07DE                           l8198 1668  
                         l8390 0F1A                           l8382 0EFA                           l8374 0EDA  
                         l8366 0EBA                           l8358 0E8A                           l8294 0D55  
                         l8286 0D35                           l8278 0D0C                           l8534 06E7  
                         l8526 06C7                           l8518 06A7                           l8470 054B  
                         l8462 052B                           l8454 0502                           l8446 04D2  
                         l8438 04AE                           l8550 1016                           l8542 1002  
                         l8614 08D5                           l8606 0887                           l8622 090D  
                         l8630 0021                           l8702 11CF                           l4999 1430  
                         l7496 0800                           l7568 10A9                           l7576 10C0  
                         l7584 1DBD                           l7592 1F20                           l7672 145F  
                         l7664 143A                           l7656 1412                           l7680 1487  
                         l7648 13E2                           l7736 1E3B                           l7728 1E25  
                         l7752 1FDD                           l7744 1FC1                           l7760 1F7A  
                         l7840 123D                           l7832 122C                           l7824 1216  
                         l7816 1208                           l7808 11F7                           l7904 1356  
                         l7920 1273                           l7912 1258                           l8392 0F29  
                         l8384 0F05                           l8376 0EE5                           l8368 0EC5  
                         l8296 0D5E                           l8288 0D3E                           l8536 06ED  
                         l8528 06CD                           l8480 0574                           l8472 0554  
                         l8464 0534                           l8456 050E                           l8448 04DE  
                         l8552 101B                           l8544 1007                           l8560 113C  
                         l8616 08DF                           l8608 0892                           l8640 003B  
                         l8632 0028                           l8624 0015                           l7498 0804  
                         l7578 10C7                           l7594 1F23                           l7586 1F06  
                         l7690 14A0                           l7682 1491                           l7674 1463  
                         l7666 1441                           l7658 1416                           l7738 1E3C  
                         l7754 1FED                           l7746 1FC7                           l7770 1F93  
                         l7762 1F7E                           l7842 1243                           l7834 1232  
                         l7826 121F                           l7818 1209                           l7850 1E1B  
                         l7906 1357                           l7930 12C7                           l7922 129C  
                         l7914 1264                           l8394 0F2E                           l8386 0F0B  
                         l8378 0EEB                           l8298 0D64                           l8538 06F6  
                         l8490 0605                           l8482 057A                           l8474 055A  
                         l8466 053A                           l8458 051A                           l8554 1020  
                         l8546 100C                           l8570 1151                           l8562 113D  
                         l8618 0908                           l8650 0075                           l8642 0066  
                         l8634 002B                           l8626 001B                           l7596 1F24  
                         l7588 1F0A                           l7692 14C0                           l7684 1495  
                         l7676 1468                           l7668 1453                           l7756 1FEE  
                         l7748 1FCA                           l7772 1F9A                           l7764 1F7F  
                         l7780 10CB                           l7844 1249                           l7836 1233  
                         l7828 1222                           l7852 1E99                           l7860 00D7  
                         l7908 07D6                           l7924 12A6                           l7916 1265  
                         l7940 072D                           l7932 070C                           l8396 0F3D  
                         l8388 0F14                           l8492 0610                           l8484 0589  
                         l8476 0565                           l8468 0545                           l8548 1011  
                         l8580 1179                           l8572 1160                           l8564 113E  
                         l8556 111D                           l8660 00B1                           l8652 0076  
                         l8644 0067                           l8636 002C                           l8628 001D  
                         l7598 1F29                           l7694 14C1                           l7686 1498  
                         l7678 1469                           l7758 1FFA                           l7774 1F9B  
                         l7766 1F8F                           l7782 10E0                           l7790 1D6E  
                         l7846 124E                           l7838 1234                           l7854 1EA2  
                         l7870 12DF                           l7862 12CD                           l7926 12B9  
                         l7918 126D                           l7950 0769                           l7942 0739  
                         l7934 0710                           l8398 0F49                           l8494 061F  
                         l8486 05F0                           l8478 056B                           l8582 117A  
                         l8574 1168                           l8566 113F                           l8558 1121  
                         l8590 081F                           l8662 00C1                           l8654 007F  
                         l8646 006B                           l8638 0035                           l8670 117E  
                         l7696 14C5                           l7688 149F                           l7776 1FAC  
                         l7768 1F92                           l7784 10FB                           l7792 1D6F  
                         l7848 1E05                           l7856 1EB2                           l7872 12E8  
                         l7880 12FA                           l7864 12D4                           l7928 12C3  
                         l7960 0795                           l7952 0775                           l7944 0745  
                         l7936 0718                           l8496 0625                           l8488 05F6  
                         l8576 116C                           l8568 1142                           l8592 0826  
                         l8584 0810                           l8664 00C5                           l8656 0085  
                         l8648 0072                           l8680 119C                           l8672 118D  
                         l7698 14CC                           l7778 1FB2                           l7786 110B  
                         l7794 1DD6                           l7858 1EBB                           l7890 131D  
                         l7882 1304                           l7874 12EE                           l7866 12D6  
                         l7970 07C0                           l7962 07A0                           l7954 0780  
                         l7946 0751                           l7938 0720                           l8498 0636  
                         l8578 1172                           l8594 082C                           l8586 0812  
                         l8666 00C7                           l8658 00AB                           l8690 11AD  
                         l8682 11A1                           l8674 1190                           l7788 110E  
                         l7796 1DD9                           l7892 1321                           l7884 130B  
                         l7876 12F3                           l7868 12DC                           l7972 07C6  
                         l7964 07A6                           l7956 0786                           l7948 075D  
                         l7980 0943                           l8596 0833                           l8588 0819  
                         l8668 00C8                           l8692 11B2                           l8684 11A6  
                         l8676 1193                           l7798 1DDF                           l7894 1322  
                         l7886 1311                           l7878 12F8                           l7974 07CF  
                         l7966 07AF                           l7958 078F                           l7990 0982  
                         l7982 0944                           l8598 0839                           l8694 11B7  
                         l8686 11AB                           l8678 1198                           l7896 1324  
                         l7888 1314                           l7968 07B5                           l7992 098E  
                         l7984 0962                           l7976 0939                           l8696 11BA  
                         l8688 11AC                           l7898 132E                           l7994 099A  
                         l7986 0967                           l7978 093C                           l8698 11C8  
                         l7996 09A6                           l7988 0976                           l7998 09B2  
                         STR_1 0423                           STR_2 0434                           STR_3 0489  
                         STR_4 0412                           STR_5 0412                           STR_7 049A  
                         STR_8 047D                           STR_9 04A1                           u3000 1096  
                         u3001 1095                           u3020 10A9                           u3100 13B2  
                         u3021 10A8                           u3101 13B1                           u3110 13FA  
                         u3015 1099                           u3111 13F9                           u3040 10BE  
                         u3200 14FC                           u3120 140B                           u3041 10BD  
                         u3025 10A5                           u3201 14FB                           u3121 140A  
                         u3210 1511                           u3130 142F                           u3035 10B2  
                         u3211 1510                           u3131 142E                           u3060 1F52  
                         u3220 151A                           u3140 1451                           u3300 10FB  
                         u3061 1F51                           u3221 1519                           u3141 1450  
                         u3125 1407                           u3301 10FA                           u3070 1F5A  
                         u3230 152F                           u3150 149E                           u3310 1ECB  
                         u3055 1F0F                           u3071 1F59                           u3231 152E  
                         u3151 149D                           u3135 142B                           u3311 1ECA  
                         u3080 1F6D                           u3240 157C                           u3160 14BF  
                         u3320 12D3                           u3400 126D                           u3081 1F6C  
                         u3241 157B                           u3161 14BE                           u3145 144D  
                         u3305 10F7                           u3321 12D2                           u3401 126C  
                         u3250 1599                           u3170 14CB                           u3090 137A  
                         u3330 12E8                           u3410 1273                           u3251 1598  
                         u3171 14CA                           u3091 1379                           u3331 12E7  
                         u3411 1272                           u3180 14DF                           u3340 12EE  
                         u3420 12A6                           u3500 1172                           u3181 14DE  
                         u3165 14BB                           u3341 12ED                           u3421 12A5  
                         u3501 1171                           u3190 14F6                           u3270 1F99  
                         u3350 1304                           u3430 0942                           u3510 08DF  
                         u3191 14F5                           u3271 1F98                           u3351 1303  
                         u3431 0941                           u3511 08DE                           u3280 1FB8  
                         u3360 131D                           u3440 0C9A                           u3520 001A  
                         u3185 14DB                           u3281 1FB7                           u3265 1F82  
                         u3361 131C                           u3441 0C99                           u3521 0019  
                         u3290 10D3                           u3370 132E                           u3450 0CA8  
                         u3530 0028                           u3371 132D                           u3451 0CA7  
                         u3531 0027                           u3380 07DE                           u3460 0FFE  
                         u3540 003B                           u3381 07DD                           u3461 0FFD  
                         u3541 003A                           u2910 1DB0                           u3390 1263  
                         u3470 1121                           u3550 0065                           u2911 1DAF  
                         u3391 1262                           u3471 1120                           u3551 0064  
                         u3607 1186                           u2920 1DF5                           u3480 1168  
                         u3560 0072                           u2921 1DF4                           u3481 1167  
                         u3561 0071                           u3617 11C0                           u2930 1DFB  
                         u3490 116C                           u3570 0085                           u2931 1DFA  
                         u3707 1676                           u3491 116B                           u3627 114A  
                         u3571 0084                           _PEIE 005E                           u2940 1E76  
                         u3580 00B1                           u2941 1E75                           u3717 1741  
                         u3637 0582                           u3581 00B0                           u3590 11CE  
                         u3807 121A                           u3727 17F8                           u3647 064D  
                         u3591 11CD                           u3817 1227                           u3737 0A26  
                         u3657 0704                           u2890 1D7E                           u2970 1E90  
                         u2891 1D7D                           u2971 1E8F                           u2955 1E7D  
                         u3907 1F1D                           u3827 1238                           u3747 0AF1  
                         u3667 0D8C                           u2980 1082                           _RCIF 0065  
                         u2965 1E84                           u2981 1081                           u3917 1F26  
                         u3837 1DE5                           u3757 0BBC                           u3677 0E57  
                         u3927 1F34                           u3847 1FD0                           u3767 0C87  
                         u3687 0F22                           u3857 1FE6                           u3777 134B  
                         u3697 0FED                           u2995 1087                           u3867 1F43  
                         u3787 11FC                           u3877 1F60                           u3797 120D  
                         u3887 1F70                           u3897 1F08                           _TXIF 0064  
                         u1_20 1ED1                           u1_21 1ED0                           u2_20 1ED5  
                         u2_21 1ED4                           u3_20 1ED9                           u3_21 1ED8  
                         u4_20 1EEB                           u4_21 1EEA                           u5_20 1EF3  
                         u5_21 1EF2                           u6_20 1038                           u6_21 1037  
                         u7_20 1044                           u7_21 1043                           u8_24 1057  
                         u8_25 1055                           u9_20 1068                           u9_21 1067  
                         __isr 1ECD                           _main 117E                           _uart 0079  
                         btemp 007E                           start 0012                    lcd_string@s 0024  
        lcd_cursor_ddram@F1078 0066         ??_homem_corre_esquerda 0031                  _protocolo_cmd 0015  
                _protocolo_lcd 1255           homem_vira_esquerda@a 0038           homem_vira_esquerda@b 0034  
         homem_vira_esquerda@c 0036                          ?__isr 0070                          ?_main 0070  
                        STR_10 0463                          STR_11 0445                          STR_20 0412  
                        STR_12 0412                          STR_13 0412                          STR_21 03B7  
                        STR_14 0412                          STR_30 03DF                          STR_22 0455  
                        STR_15 0412                          STR_31 03DF                          STR_23 03DF  
                        STR_32 03DF                          STR_24 03DF                          STR_16 0401  
                        STR_33 03DF                          STR_25 03DF                          STR_17 0394  
                        STR_34 03DF                          STR_26 03DF                          STR_18 0471  
                        STR_35 03DF                          STR_27 03DF                          STR_19 03F0  
                        STR_28 03DF                          STR_36 0492                          STR_29 03DF  
                        STR_37 03CE          lcd_cursor_ddram@linha 0023                __end_of___lwdiv 10C8  
                        i1l800 1EF8                          i1l795 1EE5                          i1l796 1EE3  
                        i1l797 1EF8                          i1l798 1EF5                          i1l799 1EF6  
                        _RCREG 001A                          _RCSTA 0018                          _SPBRG 0099  
                        _PORTB 0006                          _PORTD 0008                          _PORTE 0009  
                        _TRISB 0086                          _TRISD 0088                          _TRISE 0089  
                        _p1503 0048                          _TXREG 0019                          _TXSTA 0098  
                        _debug 00A0                 ?_p1503_cmd_arg 0020                __end_of_isdigit 1E02  
                        _putch 1D76                          _rosto 011C                          pclath 000A  
        __end_of_reles_cmd_arg 1DB4                          status 0003                          wtemp0 007E  
  __size_of_uart_init_hardware 0010              p1503_loop@timeout 0051      __size_of_p1503_barramento 0006  
                 __end_of__isr 1F03                   __end_of_main 11E8     __end_of_homem_vira_direita 1800  
                  ?_p1503_init 0070                    ?_p1503_loop 0070                 ?_protocolo_cmd 0070  
               ?_protocolo_lcd 0070                ??_lcd_novo_char 0025                         ??__isr 0074  
                       ??_main 0045                  ?_homem_inicio 0070    __size_of_uart_init_software 000A  
              _p1503_analogico 1E22                         _ADCON1 009F         lcd_cursor_ddram@coluna 0030  
                       ?_putch 0070                         i1l2250 1069                         i1l2251 1077  
                       i1l2248 1075                         i1l2249 1046                         i1l5430 1ED1  
                       i1l5432 1ED5                         i1l5440 1EE5                         i1l5450 1038  
                       i1l5442 1EEB                         i1l5434 1ED9                         i1l5460 105E  
                       i1l5452 103D                         i1l5444 1EEF                         i1l5436 1EE1  
                       i1l5428 1ECD                         i1l5454 1045                         i1l5462 1069  
                       i1l5446 1EF3                         i1l5438 1EE3                         i1l5464 1074  
                       i1l5456 1046                         i1l5448 1030                         i1l5458 104D  
                       i1l5466 1075                         i1l5468 1077                         u393_27 103A  
                       u394_27 1048                         u395_27 106D                         _TRISC0 0438  
                       _TRISB5 0435                         _TRISB6 0436                         _TRISC6 043E  
                       _TRISC7 043F             lcd_novo_char@bloco 0023             lcd_novo_char@local 0026  
             __end_of_lcd_init 1255               __end_of_lcd_goto 1D9A                         ___wmul 1E6D  
                    ??___lwdiv 0024                         _buffer 0053                         _slipA1 0124  
                       _slipA2 012C                         _slipB1 0154                         _slipA3 0134  
                       _slipB2 015C                         _slipA4 013C                         _slipC1 0184  
                       _slipB3 0164                         _slipA5 0144                         _slipC2 018C  
                       _slipB4 016C                         _slipA6 014C                         _slipD1 01B4  
                       _slipC3 0194                         _slipB5 0174                         _slipD2 01BC  
                       _slipC4 019C                         _slipB6 017C                         _slipE1 01E4  
                       _slipD3 01C4                         _slipC5 01A4                         _slipE2 01EC  
                       _slipD4 01CC                         _slipC6 01AC                         _slipF1 0214  
                       _slipE3 01F4                         _slipD5 01D4                         _slipF2 021C  
                       _slipE4 01FC                         _slipD6 01DC                         _slipF3 0224  
                       _slipE5 0204                         _slipF4 022C                         _slipE6 020C  
                       _slipF5 0234                         _slipF6 023C                         _stepA1 0244  
                       _stepA2 024C                         _stepB1 0274                         _stepA3 0254  
                       _stepB2 027C                         _stepA4 025C                         _stepC1 02A4  
                       _stepB3 0284                         _stepA5 0264                         _stepC2 02AC  
                       _stepB4 028C                         _stepA6 026C                         _stepD1 02D4  
                       _stepC3 02B4                         _stepB5 0294                         _stepD2 02DC  
                       _stepC4 02BC                         _stepB6 029C                         _stepE1 0304  
                       _stepD3 02E4                         _stepC5 02C4                         _stepE2 030C  
                       _stepD4 02EC                         _stepC6 02CC                         _stepF1 0334  
                       _stepE3 0314                         _stepD5 02F4                         _stepF2 033C  
                       _stepE4 031C                         _stepD6 02FC                         _stepG1 0364  
                       _stepF3 0344                         _stepE5 0324                         _stepG2 036C  
                       _stepF4 034C                         _stepE6 032C                         _stepG3 0374  
                       _stepF5 0354                         _stepG4 037C                         _stepF6 035C  
                       _stepG5 0384                         _stepG6 038C                         _printf 136D  
               ??_homem_inicio 0031                         clrloop 1D52                      ??_isdigit 0020  
                       saved_w 007E                ??_p1503_cmd_arg 0021            __size_of_p1503_init 0046  
          __size_of_p1503_loop 00A0                  lcd_string@pos 0026      __size_of_lcd_cursor_ddram 0055  
            _protocolo_ver_cmd 0810                ??_protocolo_cmd 0041                ??_protocolo_lcd 003A  
               __pcstackCOMMON 0070                   __pidataBANK0 1D59             ?_protocolo_ver_cmd 0070  
           __size_of_debug_lcd 0028                  __end_of_putch 1D82        __end_of_p1503_analogico 1E46  
      __size_of_homem_animacao 002E            ??_protocolo_ver_cmd 003D           homem_corre_direita@a 003A  
         homem_corre_direita@b 0034           homem_corre_direita@c 0036           homem_corre_direita@d 0038  
         homem_corre_direita@e 0039           homem_corre_direita@f 0037           homem_corre_direita@g 0035  
  __end_of_homem_vira_esquerda 070C             __size_of_lcd_clear 0015              ?_main_msg_inicial 0070  
           __size_of_lcd_putch 000B             __size_of_lcd_write 0039             ??_main_msg_inicial 0034  
                      ??_putch 0020                     __pbssBANK0 0048                     __pbssBANK1 00A0  
              cria_rosto@linha 0031                     _debug_init 1D49      __end_of_protocolo_ver_cmd 0939  
             _p1503_barramento 1D3C                     __pmaintext 117E     __end_of_p1503_envia_pacote 1D49  
                      ?___wmul 0020                     __pintentry 0004    __end_of_homem_corre_direita 1000  
        __end_of_uart_hard_fim 117E                        ?_printf 0028             __size_of_uart_init 000F  
                   _cria_rosto 1E02                     _lcd_string 1E99                      ?_lcd_init 0070  
                    ?_lcd_goto 0070    lcd_cursor_ddram@row_offsets 0028              __end_of_debug_lcd 07FE  
               lcd_novo_char@i 0027           __end_of_homem_inicio 07D6              __end_of_lcd_clear 1DEB  
                 ??_p1503_init 0023                   ??_p1503_loop 0027              __end_of_lcd_putch 1D76  
            __end_of_lcd_write 1F3C                __size_of___wmul 002C                        ___lwdiv 1078  
__size_of_homem_corre_esquerda 0363                __size_of_printf 022F               ?_p1503_analogico 0070  
                   debug_lcd@s 0027                        _isdigit 1DEB             _homem_vira_direita 159C  
                      _segundo 007C                     ??_lcd_init 0025                     ??_lcd_goto 0023  
         end_of_initialization 1E69            ?_homem_vira_direita 0070     __end_of_uart_init_hardware 0810  
           __end_of_p1503_init 2000             __end_of_p1503_loop 136D                     _reles_init 1D9A  
                      init_ram 1DC7               _lcd_cursor_ddram 10C8                    ?_debug_init 0070  
   __size_of_protocolo_ver_cmd 0129           p1503_analogico@canal 0024              __end_of_uart_init 1DC3  
                ?_uart_rx_soft 0070                  ?_uart_tx_soft 0070                        printf@c 0039  
                      printf@f 0028                   __pstringtext 0100           ??_homem_vira_direita 0031  
   __end_of_uart_init_software 1D6B                 _homem_animacao 1002         __size_of_reles_cmd_arg 000D  
        __end_of_lcd_novo_char 1FBA                    ?_cria_rosto 0031                    ?_lcd_string 0024  
                  printf@width 0037                 ??_uart_rx_soft 0070                     lcd_putch@c 0023  
               ??_uart_tx_soft 0020                     lcd_write@c 0022         __end_of_homem_animacao 1030  
               __end_of___wmul 1E99                 __end_of_printf 159C            __size_of_debug_init 0008  
          start_initialization 1E46       __end_of_p1503_barramento 1D42          __end_of_p1503_cmd_arg 1D8E  
        __size_of_homem_inicio 00CA               reles_cmd_arg@cmd 0021               reles_cmd_arg@arg 0020  
                  ?_reles_init 0070                  _reles_cmd_arg 1DA7      __size_of_main_msg_inicial 0028  
          __size_of_cria_rosto 0020                       ??___wmul 0024          __end_of_protocolo_cmd 00D7  
        __end_of_protocolo_lcd 12CD                    __pdataBANK0 0066            __size_of_lcd_string 0034  
              ?_homem_animacao 0070                       ??_printf 002E                   _homem_inicio 070C  
             cria_rosto@coluna 0033             _p1503_envia_pacote 1D42                    __pbssCOMMON 0079  
           protocolo_lcd@linha 003C                  __pcstackBANK0 0020                   _isdigit$6085 0020  
          ?_p1503_envia_pacote 0070   __size_of_homem_vira_esquerda 0264          homem_corre_esquerda@a 003A  
        homem_corre_esquerda@b 0034          homem_corre_esquerda@c 0036          homem_corre_esquerda@d 0038  
        homem_corre_esquerda@e 0039          homem_corre_esquerda@f 0037          homem_corre_esquerda@g 0035  
            __size_of_lcd_init 006D              __size_of_lcd_goto 000C                 ?_reles_cmd_arg 0020  
                    _debug_lcd 07D6               ___lwdiv@dividend 0022                      __ptext950 1002  
                    __ptext951 04A8                      __ptext960 1E99                      __ptext952 0C9C  
                    __ptext961 1E02                      __ptext953 159C                      __ptext970 136D  
                    __ptext962 11E8                      __ptext954 0939                      __ptext971 1F3C  
                    __ptext963 1D8E                      __ptext955 070C                      __ptext947 0015  
                    __ptext980 1D3C                      __ptext972 1F03                      __ptext964 1DD6  
                    __ptext956 1255                      __ptext948 0810                      __ptext981 1D76  
                    __ptext973 1DB4                      __ptext965 1D6B                      __ptext957 07D6  
                    __ptext949 111D                      __ptext982 1D61                      __ptext974 1078  
                    __ptext966 10C8                      __ptext958 12CD                      __ptext983 0800  
                    __ptext975 1E6D                      __ptext967 1F77                      __ptext959 00D7  
                    __ptext984 1D9A                      __ptext976 1DEB                      __ptext968 1FBA  
                    __ptext985 1D49                      __ptext977 1D42                      __ptext969 1E22  
                    __ptext986 1ECD                      __ptext978 1D82                      __ptext987 1030  
                    __ptext979 1DA7                      __ptext988 0000                       ?___lwdiv 0020  
         ??_p1503_envia_pacote 0020                      _lcd_clear 1DD6        p1503_analogico@contexto 0050  
                    _lcd_putch 1D6B       __end_of_lcd_cursor_ddram 111D                      _lcd_write 1F03  
          __size_of_reles_init 000D                   debug_lcd@bug 002A                   debug_lcd@pos 0029  
                     ?_isdigit 0070           __end_of_uart_rx_soft 1078   __size_of_homem_corre_direita 0364  
         __end_of_uart_tx_soft 1F77                      _hexpowers 0112               ___lwdiv@quotient 0025  
 __end_of_homem_corre_esquerda 0C9C                 __size_of_putch 000C              interrupt_function 0004  
                 ??_debug_init 0020                 ___wmul@product 0024         __size_of_uart_hard_fim 0061  
                     _PIE1bits 008C                      _tmr2_cont 007D                     ?_debug_lcd 0027  
                    _uart_init 1DB4             _uart_init_hardware 0800                     ?_lcd_clear 0070  
                   ?_lcd_putch 0070                    __stringbase 0112                     ?_lcd_write 0070  
            ___wmul@multiplier 0020                      _protocolo 004D            ?_uart_init_hardware 0070  
                   printf@_val 0034                     printf@flag 0031                     printf@prec 0032  
                 ??_cria_rosto 0032             __end_of_debug_init 1D51                  homem_inicio@a 0036  
                homem_inicio@b 0032                  homem_inicio@c 0034                   ??_lcd_string 0027  
     __size_of_p1503_analogico 0024             _uart_init_software 1D61                ??_reles_cmd_arg 0021  
           uart_rx_soft@offset 0073           ??_uart_init_hardware 0020            ?_uart_init_software 0070  
             _main_msg_inicial 00D7                      init_fetch 1DC3             __end_of_cria_rosto 1E22  
                   ?_uart_init 0070               __size_of___lwdiv 0050    __size_of_homem_vira_direita 0264  
           __end_of_lcd_string 1ECD                  _uart_hard_fim 111D           ??_uart_init_software 0020  
             __size_of_isdigit 0017                ___lwdiv@divisor 0020              ?_p1503_barramento 0070  
              ___lwdiv@counter 0027               p1503_cmd_arg@cmd 0022               p1503_cmd_arg@arg 0020  
                     _lcd_init 11E8                       _lcd_goto 1D8E             ??_p1503_barramento 0020  
                 ??_reles_init 0020                 protocolo_cmd@a 0052                  __size_of__isr 0036  
                __size_of_main 006A                    ??_debug_lcd 002C                       clear_ram 1D51  
       __size_of_lcd_novo_char 0043               ??_homem_animacao 003B           _homem_corre_esquerda 0939  
          _homem_vira_esquerda 04A8                    ??_lcd_clear 0023          __size_of_uart_rx_soft 0048  
               ?_uart_hard_fim 0070          __size_of_uart_tx_soft 003B                    ??_lcd_putch 0023  
                  ??_lcd_write 0020             __end_of_reles_init 1DA7                      putch@byte 0020  
                   _INTCONbits 000B                       isdigit@c 0021           ?_homem_vira_esquerda 0070  
                     intlevel1 0000              ??_p1503_analogico 0023                      stringcode 010A  
          _homem_corre_direita 0C9C                   _uart_rx_soft 1030                   _uart_tx_soft 1F3C  
                  ??_uart_init 0020                       printf@ap 0033          ?_homem_corre_esquerda 0070  
       __size_of_p1503_cmd_arg 000C              ?_lcd_cursor_ddram 0023                  _lcd_novo_char 1F77  
         ?_homem_corre_direita 0070             ??_lcd_cursor_ddram 0024                       stringtab 0100  
    lcd_cursor_ddram@_numlines 011A                uart_rx_soft@val 0072          ??_homem_vira_esquerda 0031  
       __size_of_protocolo_cmd 00C2         __size_of_protocolo_lcd 0078  
